ARM GAS  C:\Users\Reza\AppData\Local\Temp\cciHt4c7.s 			page 1


   1              		.syntax unified
   2              		.cpu cortex-m3
   3              		.fpu softvfp
   4              		.eabi_attribute 20, 1
   5              		.eabi_attribute 21, 1
   6              		.eabi_attribute 23, 3
   7              		.eabi_attribute 24, 1
   8              		.eabi_attribute 25, 1
   9              		.eabi_attribute 26, 1
  10              		.eabi_attribute 30, 1
  11              		.eabi_attribute 34, 1
  12              		.eabi_attribute 18, 4
  13              		.thumb
  14              		.syntax unified
  15              		.file	"CAN_Rx_INT.c"
  16              		.text
  17              	.Ltext0:
  18              		.cfi_sections	.debug_frame
  19              		.section	.text.CAN_Rx_BusOffIsr,"ax",%progbits
  20              		.align	2
  21              		.global	CAN_Rx_BusOffIsr
  22              		.thumb
  23              		.thumb_func
  24              		.type	CAN_Rx_BusOffIsr, %function
  25              	CAN_Rx_BusOffIsr:
  26              	.LFB68:
  27              		.file 1 "Generated_Source\\PSoC5\\CAN_Rx_INT.c"
   1:Generated_Source\PSoC5/CAN_Rx_INT.c **** /*******************************************************************************
   2:Generated_Source\PSoC5/CAN_Rx_INT.c **** * File Name: CAN_Rx_INT.c
   3:Generated_Source\PSoC5/CAN_Rx_INT.c **** * Version 3.0
   4:Generated_Source\PSoC5/CAN_Rx_INT.c **** *
   5:Generated_Source\PSoC5/CAN_Rx_INT.c **** * Description:
   6:Generated_Source\PSoC5/CAN_Rx_INT.c **** *  This file contains Interrupt Service Routine (ISR) for CAN Component.
   7:Generated_Source\PSoC5/CAN_Rx_INT.c **** *  The Interrupt handlers functions are generated accordingly to the PSoC
   8:Generated_Source\PSoC5/CAN_Rx_INT.c **** *  Creator Customizer inputs.
   9:Generated_Source\PSoC5/CAN_Rx_INT.c **** *
  10:Generated_Source\PSoC5/CAN_Rx_INT.c **** * Note:
  11:Generated_Source\PSoC5/CAN_Rx_INT.c **** *  None
  12:Generated_Source\PSoC5/CAN_Rx_INT.c **** *
  13:Generated_Source\PSoC5/CAN_Rx_INT.c **** ********************************************************************************
  14:Generated_Source\PSoC5/CAN_Rx_INT.c **** * Copyright 2008-2015, Cypress Semiconductor Corporation.  All rights reserved.
  15:Generated_Source\PSoC5/CAN_Rx_INT.c **** * You may use this file only in accordance with the license, terms, conditions,
  16:Generated_Source\PSoC5/CAN_Rx_INT.c **** * disclaimers, and limitations in the end user license agreement accompanying
  17:Generated_Source\PSoC5/CAN_Rx_INT.c **** * the software package with which this file was provided.
  18:Generated_Source\PSoC5/CAN_Rx_INT.c **** *******************************************************************************/
  19:Generated_Source\PSoC5/CAN_Rx_INT.c **** 
  20:Generated_Source\PSoC5/CAN_Rx_INT.c **** #include "CAN_Rx.h"
  21:Generated_Source\PSoC5/CAN_Rx_INT.c **** #include "FreeRTOS.h"
  22:Generated_Source\PSoC5/CAN_Rx_INT.c **** #include "semphr.h"
  23:Generated_Source\PSoC5/CAN_Rx_INT.c **** #include "portmacro.h"
  24:Generated_Source\PSoC5/CAN_Rx_INT.c **** #include "UART_LOG.h"
  25:Generated_Source\PSoC5/CAN_Rx_INT.c **** #include "global.h"
  26:Generated_Source\PSoC5/CAN_Rx_INT.c **** 
  27:Generated_Source\PSoC5/CAN_Rx_INT.c **** 
  28:Generated_Source\PSoC5/CAN_Rx_INT.c **** /* `#START CAN_INT_C_CODE_DEFINITION` */
  29:Generated_Source\PSoC5/CAN_Rx_INT.c **** extern xSemaphoreHandle RxGiver;
  30:Generated_Source\PSoC5/CAN_Rx_INT.c **** extern boolean_t startpacket;
ARM GAS  C:\Users\Reza\AppData\Local\Temp\cciHt4c7.s 			page 2


  31:Generated_Source\PSoC5/CAN_Rx_INT.c **** extern boolean_t endpacket;
  32:Generated_Source\PSoC5/CAN_Rx_INT.c **** /* `#END` */
  33:Generated_Source\PSoC5/CAN_Rx_INT.c **** 
  34:Generated_Source\PSoC5/CAN_Rx_INT.c **** #if (CAN_Rx_ARB_LOST)
  35:Generated_Source\PSoC5/CAN_Rx_INT.c ****     /*******************************************************************************
  36:Generated_Source\PSoC5/CAN_Rx_INT.c ****     * FUNCTION NAME:   CAN_Rx_ArbLostIsr
  37:Generated_Source\PSoC5/CAN_Rx_INT.c ****     ********************************************************************************
  38:Generated_Source\PSoC5/CAN_Rx_INT.c ****     *
  39:Generated_Source\PSoC5/CAN_Rx_INT.c ****     * Summary:
  40:Generated_Source\PSoC5/CAN_Rx_INT.c ****     *  This function is entry point to Arbitration Lost Interrupt. Clears
  41:Generated_Source\PSoC5/CAN_Rx_INT.c ****     *  Arbitration Lost interrupt flag. Only generated if Arbitration Lost
  42:Generated_Source\PSoC5/CAN_Rx_INT.c ****     *  Interrupt enable in Customizer.
  43:Generated_Source\PSoC5/CAN_Rx_INT.c ****     *
  44:Generated_Source\PSoC5/CAN_Rx_INT.c ****     * Parameters:
  45:Generated_Source\PSoC5/CAN_Rx_INT.c ****     *  None.
  46:Generated_Source\PSoC5/CAN_Rx_INT.c ****     *
  47:Generated_Source\PSoC5/CAN_Rx_INT.c ****     * Return:
  48:Generated_Source\PSoC5/CAN_Rx_INT.c ****     *  None.
  49:Generated_Source\PSoC5/CAN_Rx_INT.c ****     *
  50:Generated_Source\PSoC5/CAN_Rx_INT.c ****     * Reentrant:
  51:Generated_Source\PSoC5/CAN_Rx_INT.c ****     *  Depends on Customer code.
  52:Generated_Source\PSoC5/CAN_Rx_INT.c ****     *
  53:Generated_Source\PSoC5/CAN_Rx_INT.c ****     *******************************************************************************/
  54:Generated_Source\PSoC5/CAN_Rx_INT.c ****     void CAN_Rx_ArbLostIsr(void) 
  55:Generated_Source\PSoC5/CAN_Rx_INT.c ****     {
  56:Generated_Source\PSoC5/CAN_Rx_INT.c ****         /* Clear Arbitration Lost flag */
  57:Generated_Source\PSoC5/CAN_Rx_INT.c ****         CAN_Rx_INT_SR_REG.byte[0u] = CAN_Rx_ARBITRATION_LOST_MASK;
  58:Generated_Source\PSoC5/CAN_Rx_INT.c **** 
  59:Generated_Source\PSoC5/CAN_Rx_INT.c ****         /* `#START ARBITRATION_LOST_ISR` */
  60:Generated_Source\PSoC5/CAN_Rx_INT.c **** 
  61:Generated_Source\PSoC5/CAN_Rx_INT.c ****         /* `#END` */
  62:Generated_Source\PSoC5/CAN_Rx_INT.c **** 
  63:Generated_Source\PSoC5/CAN_Rx_INT.c ****         #ifdef CAN_Rx_ARB_LOST_ISR_CALLBACK
  64:Generated_Source\PSoC5/CAN_Rx_INT.c ****             CAN_Rx_ArbLostIsr_Callback();
  65:Generated_Source\PSoC5/CAN_Rx_INT.c ****         #endif /* CAN_Rx_ARB_LOST_ISR_CALLBACK */
  66:Generated_Source\PSoC5/CAN_Rx_INT.c ****     }
  67:Generated_Source\PSoC5/CAN_Rx_INT.c **** #endif /* CAN_Rx_ARB_LOST */
  68:Generated_Source\PSoC5/CAN_Rx_INT.c **** 
  69:Generated_Source\PSoC5/CAN_Rx_INT.c **** 
  70:Generated_Source\PSoC5/CAN_Rx_INT.c **** #if (CAN_Rx_OVERLOAD)
  71:Generated_Source\PSoC5/CAN_Rx_INT.c ****     /*******************************************************************************
  72:Generated_Source\PSoC5/CAN_Rx_INT.c ****     * FUNCTION NAME:   CAN_Rx_OvrLdErrorIsr
  73:Generated_Source\PSoC5/CAN_Rx_INT.c ****     ********************************************************************************
  74:Generated_Source\PSoC5/CAN_Rx_INT.c ****     *
  75:Generated_Source\PSoC5/CAN_Rx_INT.c ****     * Summary:
  76:Generated_Source\PSoC5/CAN_Rx_INT.c ****     *  This function is entry point to Overload Error Interrupt. Clears Overload
  77:Generated_Source\PSoC5/CAN_Rx_INT.c ****     *  Error interrupt flag. Only generated if Overload Error Interrupt enable
  78:Generated_Source\PSoC5/CAN_Rx_INT.c ****     *  in Customizer.
  79:Generated_Source\PSoC5/CAN_Rx_INT.c ****     *
  80:Generated_Source\PSoC5/CAN_Rx_INT.c ****     * Parameters:
  81:Generated_Source\PSoC5/CAN_Rx_INT.c ****     *  None.
  82:Generated_Source\PSoC5/CAN_Rx_INT.c ****     *
  83:Generated_Source\PSoC5/CAN_Rx_INT.c ****     * Return:
  84:Generated_Source\PSoC5/CAN_Rx_INT.c ****     *  None.
  85:Generated_Source\PSoC5/CAN_Rx_INT.c ****     *
  86:Generated_Source\PSoC5/CAN_Rx_INT.c ****     * Reentrant:
  87:Generated_Source\PSoC5/CAN_Rx_INT.c ****     *  Depends on Customer code.
ARM GAS  C:\Users\Reza\AppData\Local\Temp\cciHt4c7.s 			page 3


  88:Generated_Source\PSoC5/CAN_Rx_INT.c ****     *
  89:Generated_Source\PSoC5/CAN_Rx_INT.c ****     *******************************************************************************/
  90:Generated_Source\PSoC5/CAN_Rx_INT.c ****     void CAN_Rx_OvrLdErrorIsr(void) 
  91:Generated_Source\PSoC5/CAN_Rx_INT.c ****     {
  92:Generated_Source\PSoC5/CAN_Rx_INT.c ****         /* Clear Overload Error flag */
  93:Generated_Source\PSoC5/CAN_Rx_INT.c ****         CAN_Rx_INT_SR_REG.byte[0u] = CAN_Rx_OVERLOAD_ERROR_MASK;
  94:Generated_Source\PSoC5/CAN_Rx_INT.c **** 
  95:Generated_Source\PSoC5/CAN_Rx_INT.c ****         /* `#START OVER_LOAD_ERROR_ISR` */
  96:Generated_Source\PSoC5/CAN_Rx_INT.c **** 
  97:Generated_Source\PSoC5/CAN_Rx_INT.c ****         /* `#END` */
  98:Generated_Source\PSoC5/CAN_Rx_INT.c **** 
  99:Generated_Source\PSoC5/CAN_Rx_INT.c ****         #ifdef CAN_Rx_OVR_LD_ERROR_ISR_CALLBACK
 100:Generated_Source\PSoC5/CAN_Rx_INT.c ****             CAN_Rx_OvrLdErrorIsr_Callback();
 101:Generated_Source\PSoC5/CAN_Rx_INT.c ****         #endif /* CAN_Rx_OVR_LD_ERROR_ISR_CALLBACK */
 102:Generated_Source\PSoC5/CAN_Rx_INT.c ****     }
 103:Generated_Source\PSoC5/CAN_Rx_INT.c **** #endif /* CAN_Rx_OVERLOAD */
 104:Generated_Source\PSoC5/CAN_Rx_INT.c **** 
 105:Generated_Source\PSoC5/CAN_Rx_INT.c **** 
 106:Generated_Source\PSoC5/CAN_Rx_INT.c **** #if (CAN_Rx_BIT_ERR)
 107:Generated_Source\PSoC5/CAN_Rx_INT.c ****     /*******************************************************************************
 108:Generated_Source\PSoC5/CAN_Rx_INT.c ****     * FUNCTION NAME:   CAN_Rx_BitErrorIsr
 109:Generated_Source\PSoC5/CAN_Rx_INT.c ****     ********************************************************************************
 110:Generated_Source\PSoC5/CAN_Rx_INT.c ****     *
 111:Generated_Source\PSoC5/CAN_Rx_INT.c ****     * Summary:
 112:Generated_Source\PSoC5/CAN_Rx_INT.c ****     *  This function is entry point to Bit Error Interrupt. Clears Bit Error
 113:Generated_Source\PSoC5/CAN_Rx_INT.c ****     *  interrupt flag. Only generated if Bit Error Interrupt enable in Customizer.
 114:Generated_Source\PSoC5/CAN_Rx_INT.c ****     *
 115:Generated_Source\PSoC5/CAN_Rx_INT.c ****     * Parameters:
 116:Generated_Source\PSoC5/CAN_Rx_INT.c ****     *  None.
 117:Generated_Source\PSoC5/CAN_Rx_INT.c ****     *
 118:Generated_Source\PSoC5/CAN_Rx_INT.c ****     * Return:
 119:Generated_Source\PSoC5/CAN_Rx_INT.c ****     *  None.
 120:Generated_Source\PSoC5/CAN_Rx_INT.c ****     *
 121:Generated_Source\PSoC5/CAN_Rx_INT.c ****     * Reentrant:
 122:Generated_Source\PSoC5/CAN_Rx_INT.c ****     *  Depends on Customer code.
 123:Generated_Source\PSoC5/CAN_Rx_INT.c ****     *
 124:Generated_Source\PSoC5/CAN_Rx_INT.c ****     *******************************************************************************/
 125:Generated_Source\PSoC5/CAN_Rx_INT.c ****     void CAN_Rx_BitErrorIsr(void) 
 126:Generated_Source\PSoC5/CAN_Rx_INT.c ****     {
 127:Generated_Source\PSoC5/CAN_Rx_INT.c ****         /* Clear Bit Error flag */
 128:Generated_Source\PSoC5/CAN_Rx_INT.c ****         CAN_Rx_INT_SR_REG.byte[0u] = CAN_Rx_BIT_ERROR_MASK;
 129:Generated_Source\PSoC5/CAN_Rx_INT.c **** 
 130:Generated_Source\PSoC5/CAN_Rx_INT.c ****         /* `#START BIT_ERROR_ISR` */
 131:Generated_Source\PSoC5/CAN_Rx_INT.c **** 
 132:Generated_Source\PSoC5/CAN_Rx_INT.c ****         /* `#END` */
 133:Generated_Source\PSoC5/CAN_Rx_INT.c **** 
 134:Generated_Source\PSoC5/CAN_Rx_INT.c ****         #ifdef CAN_Rx_BIT_ERROR_ISR_CALLBACK
 135:Generated_Source\PSoC5/CAN_Rx_INT.c ****             CAN_Rx_BitErrorIsr_Callback();
 136:Generated_Source\PSoC5/CAN_Rx_INT.c ****         #endif /* CAN_Rx_BIT_ERROR_ISR_CALLBACK */
 137:Generated_Source\PSoC5/CAN_Rx_INT.c ****     }
 138:Generated_Source\PSoC5/CAN_Rx_INT.c **** #endif /* CAN_Rx_BIT_ERR */
 139:Generated_Source\PSoC5/CAN_Rx_INT.c **** 
 140:Generated_Source\PSoC5/CAN_Rx_INT.c **** 
 141:Generated_Source\PSoC5/CAN_Rx_INT.c **** #if (CAN_Rx_STUFF_ERR)
 142:Generated_Source\PSoC5/CAN_Rx_INT.c ****     /*******************************************************************************
 143:Generated_Source\PSoC5/CAN_Rx_INT.c ****     * FUNCTION NAME:   CAN_Rx_BitStuffErrorIsr
 144:Generated_Source\PSoC5/CAN_Rx_INT.c ****     ********************************************************************************
ARM GAS  C:\Users\Reza\AppData\Local\Temp\cciHt4c7.s 			page 4


 145:Generated_Source\PSoC5/CAN_Rx_INT.c ****     *
 146:Generated_Source\PSoC5/CAN_Rx_INT.c ****     * Summary:
 147:Generated_Source\PSoC5/CAN_Rx_INT.c ****     *  This function is entry point to Bit Stuff Error Interrupt. Clears Bit Stuff
 148:Generated_Source\PSoC5/CAN_Rx_INT.c ****     *  Error interrupt flag. Only generated if Bit Stuff Error Interrupt enable
 149:Generated_Source\PSoC5/CAN_Rx_INT.c ****     *  in Customizer.
 150:Generated_Source\PSoC5/CAN_Rx_INT.c ****     *
 151:Generated_Source\PSoC5/CAN_Rx_INT.c ****     * Parameters:
 152:Generated_Source\PSoC5/CAN_Rx_INT.c ****     *  None.
 153:Generated_Source\PSoC5/CAN_Rx_INT.c ****     *
 154:Generated_Source\PSoC5/CAN_Rx_INT.c ****     * Return:
 155:Generated_Source\PSoC5/CAN_Rx_INT.c ****     *  None.
 156:Generated_Source\PSoC5/CAN_Rx_INT.c ****     *
 157:Generated_Source\PSoC5/CAN_Rx_INT.c ****     * Reentrant:
 158:Generated_Source\PSoC5/CAN_Rx_INT.c ****     *  Depends on Customer code.
 159:Generated_Source\PSoC5/CAN_Rx_INT.c ****     *
 160:Generated_Source\PSoC5/CAN_Rx_INT.c ****     *******************************************************************************/
 161:Generated_Source\PSoC5/CAN_Rx_INT.c ****     void CAN_Rx_BitStuffErrorIsr(void) 
 162:Generated_Source\PSoC5/CAN_Rx_INT.c ****     {
 163:Generated_Source\PSoC5/CAN_Rx_INT.c ****         /* Clear Stuff Error flag */
 164:Generated_Source\PSoC5/CAN_Rx_INT.c ****         CAN_Rx_INT_SR_REG.byte[0u] = CAN_Rx_STUFF_ERROR_MASK;
 165:Generated_Source\PSoC5/CAN_Rx_INT.c **** 
 166:Generated_Source\PSoC5/CAN_Rx_INT.c ****         /* `#START BIT_STUFF_ERROR_ISR` */
 167:Generated_Source\PSoC5/CAN_Rx_INT.c **** 
 168:Generated_Source\PSoC5/CAN_Rx_INT.c ****         /* `#END` */
 169:Generated_Source\PSoC5/CAN_Rx_INT.c **** 
 170:Generated_Source\PSoC5/CAN_Rx_INT.c ****         #ifdef CAN_Rx_BIT_STUFF_ERROR_ISR_CALLBACK
 171:Generated_Source\PSoC5/CAN_Rx_INT.c ****             CAN_Rx_BitStuffErrorIsr_Callback();
 172:Generated_Source\PSoC5/CAN_Rx_INT.c ****         #endif /* CAN_Rx_BIT_STUFF_ERROR_ISR_CALLBACK */
 173:Generated_Source\PSoC5/CAN_Rx_INT.c ****     }
 174:Generated_Source\PSoC5/CAN_Rx_INT.c **** #endif /* CAN_Rx_STUFF_ERR */
 175:Generated_Source\PSoC5/CAN_Rx_INT.c **** 
 176:Generated_Source\PSoC5/CAN_Rx_INT.c **** 
 177:Generated_Source\PSoC5/CAN_Rx_INT.c **** #if (CAN_Rx_ACK_ERR)
 178:Generated_Source\PSoC5/CAN_Rx_INT.c ****     /*******************************************************************************
 179:Generated_Source\PSoC5/CAN_Rx_INT.c ****     * FUNCTION NAME:   CAN_Rx_AckErrorIsr
 180:Generated_Source\PSoC5/CAN_Rx_INT.c ****     ********************************************************************************
 181:Generated_Source\PSoC5/CAN_Rx_INT.c ****     *
 182:Generated_Source\PSoC5/CAN_Rx_INT.c ****     * Summary:
 183:Generated_Source\PSoC5/CAN_Rx_INT.c ****     *  This function is entry point to Acknowledge Error Interrupt. Clears
 184:Generated_Source\PSoC5/CAN_Rx_INT.c ****     *  Acknowledge Error interrupt flag. Only generated if Acknowledge Error
 185:Generated_Source\PSoC5/CAN_Rx_INT.c ****     *  Interrupt enable in Customizer.
 186:Generated_Source\PSoC5/CAN_Rx_INT.c ****     *
 187:Generated_Source\PSoC5/CAN_Rx_INT.c ****     * Parameters:
 188:Generated_Source\PSoC5/CAN_Rx_INT.c ****     *  None.
 189:Generated_Source\PSoC5/CAN_Rx_INT.c ****     *
 190:Generated_Source\PSoC5/CAN_Rx_INT.c ****     * Return:
 191:Generated_Source\PSoC5/CAN_Rx_INT.c ****     *  None.
 192:Generated_Source\PSoC5/CAN_Rx_INT.c ****     *
 193:Generated_Source\PSoC5/CAN_Rx_INT.c ****     * Reentrant:
 194:Generated_Source\PSoC5/CAN_Rx_INT.c ****     *  Depends on Customer code.
 195:Generated_Source\PSoC5/CAN_Rx_INT.c ****     *
 196:Generated_Source\PSoC5/CAN_Rx_INT.c ****     *******************************************************************************/
 197:Generated_Source\PSoC5/CAN_Rx_INT.c ****     void CAN_Rx_AckErrorIsr(void) 
 198:Generated_Source\PSoC5/CAN_Rx_INT.c ****     {
 199:Generated_Source\PSoC5/CAN_Rx_INT.c ****         /* Clear Acknoledge Error flag */
 200:Generated_Source\PSoC5/CAN_Rx_INT.c ****         CAN_Rx_INT_SR_REG.byte[0u] = CAN_Rx_ACK_ERROR_MASK;
 201:Generated_Source\PSoC5/CAN_Rx_INT.c **** 
ARM GAS  C:\Users\Reza\AppData\Local\Temp\cciHt4c7.s 			page 5


 202:Generated_Source\PSoC5/CAN_Rx_INT.c ****         /* `#START ACKNOWLEDGE_ERROR_ISR` */
 203:Generated_Source\PSoC5/CAN_Rx_INT.c **** 
 204:Generated_Source\PSoC5/CAN_Rx_INT.c ****         /* `#END` */
 205:Generated_Source\PSoC5/CAN_Rx_INT.c **** 
 206:Generated_Source\PSoC5/CAN_Rx_INT.c ****         #ifdef CAN_Rx_ACK_ERROR_ISR_CALLBACK
 207:Generated_Source\PSoC5/CAN_Rx_INT.c ****             CAN_Rx_AckErrorIsr_Callback();
 208:Generated_Source\PSoC5/CAN_Rx_INT.c ****         #endif /* CAN_Rx_ACK_ERROR_ISR_CALLBACK */
 209:Generated_Source\PSoC5/CAN_Rx_INT.c ****     }
 210:Generated_Source\PSoC5/CAN_Rx_INT.c **** #endif /* CAN_Rx_ACK_ERR */
 211:Generated_Source\PSoC5/CAN_Rx_INT.c **** 
 212:Generated_Source\PSoC5/CAN_Rx_INT.c **** 
 213:Generated_Source\PSoC5/CAN_Rx_INT.c **** #if (CAN_Rx_FORM_ERR)
 214:Generated_Source\PSoC5/CAN_Rx_INT.c ****     /*******************************************************************************
 215:Generated_Source\PSoC5/CAN_Rx_INT.c ****     * FUNCTION NAME:   CAN_Rx_MsgErrorIsr
 216:Generated_Source\PSoC5/CAN_Rx_INT.c ****     ********************************************************************************
 217:Generated_Source\PSoC5/CAN_Rx_INT.c ****     *
 218:Generated_Source\PSoC5/CAN_Rx_INT.c ****     * Summary:
 219:Generated_Source\PSoC5/CAN_Rx_INT.c ****     *  This function is entry point to Form Error Interrupt. Clears Form Error
 220:Generated_Source\PSoC5/CAN_Rx_INT.c ****     *  interrupt flag. Only generated if Form Error Interrupt enable in Customizer.
 221:Generated_Source\PSoC5/CAN_Rx_INT.c ****     *
 222:Generated_Source\PSoC5/CAN_Rx_INT.c ****     * Parameters:
 223:Generated_Source\PSoC5/CAN_Rx_INT.c ****     *  None.
 224:Generated_Source\PSoC5/CAN_Rx_INT.c ****     *
 225:Generated_Source\PSoC5/CAN_Rx_INT.c ****     * Return:
 226:Generated_Source\PSoC5/CAN_Rx_INT.c ****     *  None.
 227:Generated_Source\PSoC5/CAN_Rx_INT.c ****     *
 228:Generated_Source\PSoC5/CAN_Rx_INT.c ****     * Reentrant:
 229:Generated_Source\PSoC5/CAN_Rx_INT.c ****     *  Depends on Customer code.
 230:Generated_Source\PSoC5/CAN_Rx_INT.c ****     *
 231:Generated_Source\PSoC5/CAN_Rx_INT.c ****     *******************************************************************************/
 232:Generated_Source\PSoC5/CAN_Rx_INT.c ****     void CAN_Rx_MsgErrorIsr(void) 
 233:Generated_Source\PSoC5/CAN_Rx_INT.c ****     {
 234:Generated_Source\PSoC5/CAN_Rx_INT.c ****         /* Clear Form Error flag */
 235:Generated_Source\PSoC5/CAN_Rx_INT.c ****         CAN_Rx_INT_SR_REG.byte[0u] = CAN_Rx_FORM_ERROR_MASK;
 236:Generated_Source\PSoC5/CAN_Rx_INT.c **** 
 237:Generated_Source\PSoC5/CAN_Rx_INT.c ****         /* `#START MESSAGE_ERROR_ISR` */
 238:Generated_Source\PSoC5/CAN_Rx_INT.c **** 
 239:Generated_Source\PSoC5/CAN_Rx_INT.c ****         /* `#END` */
 240:Generated_Source\PSoC5/CAN_Rx_INT.c **** 
 241:Generated_Source\PSoC5/CAN_Rx_INT.c ****         #ifdef CAN_Rx_MSG_ERROR_ISR_CALLBACK
 242:Generated_Source\PSoC5/CAN_Rx_INT.c ****             CAN_Rx_MsgErrorIsr_Callback();
 243:Generated_Source\PSoC5/CAN_Rx_INT.c ****         #endif /* CAN_Rx_MSG_ERROR_ISR_CALLBACK */
 244:Generated_Source\PSoC5/CAN_Rx_INT.c ****     }
 245:Generated_Source\PSoC5/CAN_Rx_INT.c **** #endif /* CAN_Rx_FORM_ERR */
 246:Generated_Source\PSoC5/CAN_Rx_INT.c **** 
 247:Generated_Source\PSoC5/CAN_Rx_INT.c **** 
 248:Generated_Source\PSoC5/CAN_Rx_INT.c **** #if (CAN_Rx_CRC_ERR)
 249:Generated_Source\PSoC5/CAN_Rx_INT.c ****     /*******************************************************************************
 250:Generated_Source\PSoC5/CAN_Rx_INT.c ****     * FUNCTION NAME:   CAN_Rx_CrcErrorIsr
 251:Generated_Source\PSoC5/CAN_Rx_INT.c ****     ********************************************************************************
 252:Generated_Source\PSoC5/CAN_Rx_INT.c ****     *
 253:Generated_Source\PSoC5/CAN_Rx_INT.c ****     * Summary:
 254:Generated_Source\PSoC5/CAN_Rx_INT.c ****     *  This function is entry point to CRC Error Interrupt. Clears CRC Error
 255:Generated_Source\PSoC5/CAN_Rx_INT.c ****     *  interrupt flag. Only generated if CRC Error Interrupt enable in Customizer.
 256:Generated_Source\PSoC5/CAN_Rx_INT.c ****     *
 257:Generated_Source\PSoC5/CAN_Rx_INT.c ****     * Parameters:
 258:Generated_Source\PSoC5/CAN_Rx_INT.c ****     *  None.
ARM GAS  C:\Users\Reza\AppData\Local\Temp\cciHt4c7.s 			page 6


 259:Generated_Source\PSoC5/CAN_Rx_INT.c ****     *
 260:Generated_Source\PSoC5/CAN_Rx_INT.c ****     * Return:
 261:Generated_Source\PSoC5/CAN_Rx_INT.c ****     *  None.
 262:Generated_Source\PSoC5/CAN_Rx_INT.c ****     *
 263:Generated_Source\PSoC5/CAN_Rx_INT.c ****     * Reentrant:
 264:Generated_Source\PSoC5/CAN_Rx_INT.c ****     *  Depends on Customer code.
 265:Generated_Source\PSoC5/CAN_Rx_INT.c ****     *
 266:Generated_Source\PSoC5/CAN_Rx_INT.c ****     *******************************************************************************/
 267:Generated_Source\PSoC5/CAN_Rx_INT.c ****     void CAN_Rx_CrcErrorIsr(void) 
 268:Generated_Source\PSoC5/CAN_Rx_INT.c ****     {
 269:Generated_Source\PSoC5/CAN_Rx_INT.c ****         /* Clear CRC Error flag */
 270:Generated_Source\PSoC5/CAN_Rx_INT.c ****         CAN_Rx_INT_SR_REG.byte[1u] = CAN_Rx_CRC_ERROR_MASK;
 271:Generated_Source\PSoC5/CAN_Rx_INT.c **** 
 272:Generated_Source\PSoC5/CAN_Rx_INT.c ****         /* `#START CRC_ERROR_ISR` */
 273:Generated_Source\PSoC5/CAN_Rx_INT.c **** 
 274:Generated_Source\PSoC5/CAN_Rx_INT.c ****         /* `#END` */
 275:Generated_Source\PSoC5/CAN_Rx_INT.c **** 
 276:Generated_Source\PSoC5/CAN_Rx_INT.c ****         #ifdef CAN_Rx_CRC_ERROR_ISR_CALLBACK
 277:Generated_Source\PSoC5/CAN_Rx_INT.c ****             CAN_Rx_CrcErrorIsr_Callback();
 278:Generated_Source\PSoC5/CAN_Rx_INT.c ****         #endif /* CAN_Rx_CRC_ERROR_ISR_CALLBACK */
 279:Generated_Source\PSoC5/CAN_Rx_INT.c ****     }
 280:Generated_Source\PSoC5/CAN_Rx_INT.c **** #endif /* CAN_Rx_CRC_ERR */
 281:Generated_Source\PSoC5/CAN_Rx_INT.c **** 
 282:Generated_Source\PSoC5/CAN_Rx_INT.c **** 
 283:Generated_Source\PSoC5/CAN_Rx_INT.c **** #if (CAN_Rx_BUS_OFF)
 284:Generated_Source\PSoC5/CAN_Rx_INT.c ****     /*******************************************************************************
 285:Generated_Source\PSoC5/CAN_Rx_INT.c ****     * FUNCTION NAME:   CAN_Rx_BusOffIsr
 286:Generated_Source\PSoC5/CAN_Rx_INT.c ****     ********************************************************************************
 287:Generated_Source\PSoC5/CAN_Rx_INT.c ****     *
 288:Generated_Source\PSoC5/CAN_Rx_INT.c ****     * Summary:
 289:Generated_Source\PSoC5/CAN_Rx_INT.c ****     *  This function is entry point to Bus Off Interrupt. Places CAN Component
 290:Generated_Source\PSoC5/CAN_Rx_INT.c ****     *  to Stop mode. Only generated if Bus Off Interrupt enable in Customizer.
 291:Generated_Source\PSoC5/CAN_Rx_INT.c ****     *  Recommended setting to enable this interrupt.
 292:Generated_Source\PSoC5/CAN_Rx_INT.c ****     *
 293:Generated_Source\PSoC5/CAN_Rx_INT.c ****     * Parameters:
 294:Generated_Source\PSoC5/CAN_Rx_INT.c ****     *  None.
 295:Generated_Source\PSoC5/CAN_Rx_INT.c ****     *
 296:Generated_Source\PSoC5/CAN_Rx_INT.c ****     * Return:
 297:Generated_Source\PSoC5/CAN_Rx_INT.c ****     *  None.
 298:Generated_Source\PSoC5/CAN_Rx_INT.c ****     *
 299:Generated_Source\PSoC5/CAN_Rx_INT.c ****     * Side Effects:
 300:Generated_Source\PSoC5/CAN_Rx_INT.c ****     *  Stops CAN component operation.
 301:Generated_Source\PSoC5/CAN_Rx_INT.c ****     *
 302:Generated_Source\PSoC5/CAN_Rx_INT.c ****     *******************************************************************************/
 303:Generated_Source\PSoC5/CAN_Rx_INT.c ****     void CAN_Rx_BusOffIsr(void) 
 304:Generated_Source\PSoC5/CAN_Rx_INT.c ****     {
  28              		.loc 1 304 0
  29              		.cfi_startproc
  30              		@ args = 0, pretend = 0, frame = 0
  31              		@ frame_needed = 0, uses_anonymous_args = 0
  32 0000 08B5     		push	{r3, lr}
  33              		.cfi_def_cfa_offset 8
  34              		.cfi_offset 3, -8
  35              		.cfi_offset 14, -4
 305:Generated_Source\PSoC5/CAN_Rx_INT.c ****         /* Clear Bus Off flag */
 306:Generated_Source\PSoC5/CAN_Rx_INT.c ****         CAN_Rx_INT_SR_REG.byte[1u] = CAN_Rx_BUS_OFF_MASK;
  36              		.loc 1 306 0
ARM GAS  C:\Users\Reza\AppData\Local\Temp\cciHt4c7.s 			page 7


  37 0002 0222     		movs	r2, #2
  38 0004 034B     		ldr	r3, .L3
  39 0006 5A70     		strb	r2, [r3, #1]
 307:Generated_Source\PSoC5/CAN_Rx_INT.c ****         (void) CAN_Rx_GlobalIntDisable();
  40              		.loc 1 307 0
  41 0008 FFF7FEFF 		bl	CAN_Rx_GlobalIntDisable
  42              	.LVL0:
 308:Generated_Source\PSoC5/CAN_Rx_INT.c **** 
 309:Generated_Source\PSoC5/CAN_Rx_INT.c ****         /* `#START BUS_OFF_ISR` */
 310:Generated_Source\PSoC5/CAN_Rx_INT.c **** 
 311:Generated_Source\PSoC5/CAN_Rx_INT.c ****         /* `#END` */
 312:Generated_Source\PSoC5/CAN_Rx_INT.c **** 
 313:Generated_Source\PSoC5/CAN_Rx_INT.c ****         #ifdef CAN_Rx_BUS_OFF_ISR_CALLBACK
 314:Generated_Source\PSoC5/CAN_Rx_INT.c ****             CAN_Rx_BusOffIsr_Callback();
 315:Generated_Source\PSoC5/CAN_Rx_INT.c ****         #endif /* CAN_Rx_BUS_OFF_ISR_CALLBACK */
 316:Generated_Source\PSoC5/CAN_Rx_INT.c **** 
 317:Generated_Source\PSoC5/CAN_Rx_INT.c ****         (void) CAN_Rx_Stop();
  43              		.loc 1 317 0
  44 000c FFF7FEFF 		bl	CAN_Rx_Stop
  45              	.LVL1:
  46 0010 08BD     		pop	{r3, pc}
  47              	.L4:
  48 0012 00BF     		.align	2
  49              	.L3:
  50 0014 00A00040 		.word	1073782784
  51              		.cfi_endproc
  52              	.LFE68:
  53              		.size	CAN_Rx_BusOffIsr, .-CAN_Rx_BusOffIsr
  54              		.section	.text.CAN_Rx_MsgTXIsr,"ax",%progbits
  55              		.align	2
  56              		.global	CAN_Rx_MsgTXIsr
  57              		.thumb
  58              		.thumb_func
  59              		.type	CAN_Rx_MsgTXIsr, %function
  60              	CAN_Rx_MsgTXIsr:
  61              	.LFB69:
 318:Generated_Source\PSoC5/CAN_Rx_INT.c ****     }
 319:Generated_Source\PSoC5/CAN_Rx_INT.c **** #endif /* CAN_Rx_BUS_OFF */
 320:Generated_Source\PSoC5/CAN_Rx_INT.c **** 
 321:Generated_Source\PSoC5/CAN_Rx_INT.c **** 
 322:Generated_Source\PSoC5/CAN_Rx_INT.c **** #if (CAN_Rx_RX_MSG_LOST)
 323:Generated_Source\PSoC5/CAN_Rx_INT.c ****     /*******************************************************************************
 324:Generated_Source\PSoC5/CAN_Rx_INT.c ****     * FUNCTION NAME:   CAN_Rx_MsgLostIsr
 325:Generated_Source\PSoC5/CAN_Rx_INT.c ****     ********************************************************************************
 326:Generated_Source\PSoC5/CAN_Rx_INT.c ****     *
 327:Generated_Source\PSoC5/CAN_Rx_INT.c ****     * Summary:
 328:Generated_Source\PSoC5/CAN_Rx_INT.c ****     *  This function is entry point to Message Lost Interrupt. Clears Message Lost
 329:Generated_Source\PSoC5/CAN_Rx_INT.c ****     *  interrupt flag. Only generated if Message Lost Interrupt enable in Customizer
 330:Generated_Source\PSoC5/CAN_Rx_INT.c ****     *
 331:Generated_Source\PSoC5/CAN_Rx_INT.c ****     * Parameters:
 332:Generated_Source\PSoC5/CAN_Rx_INT.c ****     *  None.
 333:Generated_Source\PSoC5/CAN_Rx_INT.c ****     *
 334:Generated_Source\PSoC5/CAN_Rx_INT.c ****     * Return:
 335:Generated_Source\PSoC5/CAN_Rx_INT.c ****     *  None.
 336:Generated_Source\PSoC5/CAN_Rx_INT.c ****     *
 337:Generated_Source\PSoC5/CAN_Rx_INT.c ****     * Reentrant:
 338:Generated_Source\PSoC5/CAN_Rx_INT.c ****     *  Depends on Customer code.
ARM GAS  C:\Users\Reza\AppData\Local\Temp\cciHt4c7.s 			page 8


 339:Generated_Source\PSoC5/CAN_Rx_INT.c ****     *
 340:Generated_Source\PSoC5/CAN_Rx_INT.c ****     *******************************************************************************/
 341:Generated_Source\PSoC5/CAN_Rx_INT.c ****     void CAN_Rx_MsgLostIsr(void) 
 342:Generated_Source\PSoC5/CAN_Rx_INT.c ****     {
 343:Generated_Source\PSoC5/CAN_Rx_INT.c ****         /* Clear Receive Message Lost flag */
 344:Generated_Source\PSoC5/CAN_Rx_INT.c ****         CAN_Rx_INT_SR_REG.byte[1u] = CAN_Rx_RX_MSG_LOST_MASK;
 345:Generated_Source\PSoC5/CAN_Rx_INT.c **** 
 346:Generated_Source\PSoC5/CAN_Rx_INT.c ****         /* `#START MESSAGE_LOST_ISR` */
 347:Generated_Source\PSoC5/CAN_Rx_INT.c **** 
 348:Generated_Source\PSoC5/CAN_Rx_INT.c ****         /* `#END` */
 349:Generated_Source\PSoC5/CAN_Rx_INT.c **** 
 350:Generated_Source\PSoC5/CAN_Rx_INT.c ****         #ifdef CAN_Rx_MSG_LOST_ISR_CALLBACK
 351:Generated_Source\PSoC5/CAN_Rx_INT.c ****             CAN_Rx_MsgLostIsr_Callback();
 352:Generated_Source\PSoC5/CAN_Rx_INT.c ****         #endif /* CAN_Rx_MSG_LOST_ISR_CALLBACK */
 353:Generated_Source\PSoC5/CAN_Rx_INT.c ****     }
 354:Generated_Source\PSoC5/CAN_Rx_INT.c **** #endif /* CAN_Rx_RX_MSG_LOST */
 355:Generated_Source\PSoC5/CAN_Rx_INT.c **** 
 356:Generated_Source\PSoC5/CAN_Rx_INT.c **** 
 357:Generated_Source\PSoC5/CAN_Rx_INT.c **** #if (CAN_Rx_TX_MESSAGE)
 358:Generated_Source\PSoC5/CAN_Rx_INT.c ****     /*******************************************************************************
 359:Generated_Source\PSoC5/CAN_Rx_INT.c ****     * FUNCTION NAME:   CAN_Rx_MsgTXIsr
 360:Generated_Source\PSoC5/CAN_Rx_INT.c ****     ********************************************************************************
 361:Generated_Source\PSoC5/CAN_Rx_INT.c ****     *
 362:Generated_Source\PSoC5/CAN_Rx_INT.c ****     * Summary:
 363:Generated_Source\PSoC5/CAN_Rx_INT.c ****     *  This function is entry point to Transmit Message Interrupt. Clears Transmit
 364:Generated_Source\PSoC5/CAN_Rx_INT.c ****     *  Message interrupt flag. Only generated if Transmit Message Interrupt enable
 365:Generated_Source\PSoC5/CAN_Rx_INT.c ****     *  in Customizer.
 366:Generated_Source\PSoC5/CAN_Rx_INT.c ****     *
 367:Generated_Source\PSoC5/CAN_Rx_INT.c ****     * Parameters:
 368:Generated_Source\PSoC5/CAN_Rx_INT.c ****     *  None.
 369:Generated_Source\PSoC5/CAN_Rx_INT.c ****     *
 370:Generated_Source\PSoC5/CAN_Rx_INT.c ****     * Return:
 371:Generated_Source\PSoC5/CAN_Rx_INT.c ****     *  None.
 372:Generated_Source\PSoC5/CAN_Rx_INT.c ****     *
 373:Generated_Source\PSoC5/CAN_Rx_INT.c ****     * Reentrant:
 374:Generated_Source\PSoC5/CAN_Rx_INT.c ****     *  Depends on Customer code.
 375:Generated_Source\PSoC5/CAN_Rx_INT.c ****     *
 376:Generated_Source\PSoC5/CAN_Rx_INT.c ****     *******************************************************************************/
 377:Generated_Source\PSoC5/CAN_Rx_INT.c ****     void CAN_Rx_MsgTXIsr(void) 
 378:Generated_Source\PSoC5/CAN_Rx_INT.c ****     {
  62              		.loc 1 378 0
  63              		.cfi_startproc
  64              		@ args = 0, pretend = 0, frame = 0
  65              		@ frame_needed = 0, uses_anonymous_args = 0
  66              		@ link register save eliminated.
 379:Generated_Source\PSoC5/CAN_Rx_INT.c ****         /* Clear Transmit Message flag */
 380:Generated_Source\PSoC5/CAN_Rx_INT.c ****         CAN_Rx_INT_SR_REG.byte[1u] = CAN_Rx_TX_MESSAGE_MASK;
  67              		.loc 1 380 0
  68 0000 0822     		movs	r2, #8
  69 0002 014B     		ldr	r3, .L6
  70 0004 5A70     		strb	r2, [r3, #1]
  71 0006 7047     		bx	lr
  72              	.L7:
  73              		.align	2
  74              	.L6:
  75 0008 00A00040 		.word	1073782784
  76              		.cfi_endproc
ARM GAS  C:\Users\Reza\AppData\Local\Temp\cciHt4c7.s 			page 9


  77              	.LFE69:
  78              		.size	CAN_Rx_MsgTXIsr, .-CAN_Rx_MsgTXIsr
  79              		.section	.text.CAN_Rx_MsgRXIsr,"ax",%progbits
  80              		.align	2
  81              		.global	CAN_Rx_MsgRXIsr
  82              		.thumb
  83              		.thumb_func
  84              		.type	CAN_Rx_MsgRXIsr, %function
  85              	CAN_Rx_MsgRXIsr:
  86              	.LFB70:
 381:Generated_Source\PSoC5/CAN_Rx_INT.c **** 
 382:Generated_Source\PSoC5/CAN_Rx_INT.c ****         /* `#START MESSAGE_TRANSMITTED_ISR` */
 383:Generated_Source\PSoC5/CAN_Rx_INT.c **** 
 384:Generated_Source\PSoC5/CAN_Rx_INT.c ****         /* `#END` */
 385:Generated_Source\PSoC5/CAN_Rx_INT.c **** 
 386:Generated_Source\PSoC5/CAN_Rx_INT.c ****         #ifdef CAN_Rx_MSG_TX_ISR_CALLBACK
 387:Generated_Source\PSoC5/CAN_Rx_INT.c ****             CAN_Rx_MsgTXIsr_Callback();
 388:Generated_Source\PSoC5/CAN_Rx_INT.c ****         #endif /* CAN_Rx_MSG_TX_ISR_CALLBACK */
 389:Generated_Source\PSoC5/CAN_Rx_INT.c ****     }
 390:Generated_Source\PSoC5/CAN_Rx_INT.c **** #endif /* CAN_Rx_TX_MESSAGE */
 391:Generated_Source\PSoC5/CAN_Rx_INT.c **** 
 392:Generated_Source\PSoC5/CAN_Rx_INT.c **** 
 393:Generated_Source\PSoC5/CAN_Rx_INT.c **** #if (CAN_Rx_RX_MESSAGE)
 394:Generated_Source\PSoC5/CAN_Rx_INT.c ****     /*******************************************************************************
 395:Generated_Source\PSoC5/CAN_Rx_INT.c ****     * FUNCTION NAME:   CAN_Rx_MsgRXIsr
 396:Generated_Source\PSoC5/CAN_Rx_INT.c ****     ********************************************************************************
 397:Generated_Source\PSoC5/CAN_Rx_INT.c ****     *
 398:Generated_Source\PSoC5/CAN_Rx_INT.c ****     * Summary:
 399:Generated_Source\PSoC5/CAN_Rx_INT.c ****     *  This function is entry point to Receive Message Interrupt. Clears Receive
 400:Generated_Source\PSoC5/CAN_Rx_INT.c ****     *  Message interrupt flag and call appropriate handlers for Basic and Full
 401:Generated_Source\PSoC5/CAN_Rx_INT.c ****     *  interrupt based mailboxes. Only generated if Receive Message Interrupt
 402:Generated_Source\PSoC5/CAN_Rx_INT.c ****     *  enable in Customizer. Recommended setting to enable this interrupt.
 403:Generated_Source\PSoC5/CAN_Rx_INT.c ****     *
 404:Generated_Source\PSoC5/CAN_Rx_INT.c ****     * Parameters:
 405:Generated_Source\PSoC5/CAN_Rx_INT.c ****     *  None.
 406:Generated_Source\PSoC5/CAN_Rx_INT.c ****     *
 407:Generated_Source\PSoC5/CAN_Rx_INT.c ****     * Return:
 408:Generated_Source\PSoC5/CAN_Rx_INT.c ****     *  None.
 409:Generated_Source\PSoC5/CAN_Rx_INT.c ****     *
 410:Generated_Source\PSoC5/CAN_Rx_INT.c ****     *******************************************************************************/
 411:Generated_Source\PSoC5/CAN_Rx_INT.c ****     void CAN_Rx_MsgRXIsr(void) 
 412:Generated_Source\PSoC5/CAN_Rx_INT.c ****     {
  87              		.loc 1 412 0
  88              		.cfi_startproc
  89              		@ args = 0, pretend = 0, frame = 0
  90              		@ frame_needed = 0, uses_anonymous_args = 0
  91 0000 38B5     		push	{r3, r4, r5, lr}
  92              		.cfi_def_cfa_offset 16
  93              		.cfi_offset 3, -16
  94              		.cfi_offset 4, -12
  95              		.cfi_offset 5, -8
  96              		.cfi_offset 14, -4
  97              	.LVL2:
 413:Generated_Source\PSoC5/CAN_Rx_INT.c ****         uint8 mailboxNumber;
 414:Generated_Source\PSoC5/CAN_Rx_INT.c ****         uint16 shift = 0x01u;
 415:Generated_Source\PSoC5/CAN_Rx_INT.c **** 
 416:Generated_Source\PSoC5/CAN_Rx_INT.c ****         /* Clear Receive Message flag */
ARM GAS  C:\Users\Reza\AppData\Local\Temp\cciHt4c7.s 			page 10


 417:Generated_Source\PSoC5/CAN_Rx_INT.c ****         CAN_Rx_INT_SR_REG.byte[1u] = CAN_Rx_RX_MESSAGE_MASK;
  98              		.loc 1 417 0
  99 0002 1022     		movs	r2, #16
 100 0004 0C4B     		ldr	r3, .L13
 101 0006 5A70     		strb	r2, [r3, #1]
 102              	.LVL3:
 414:Generated_Source\PSoC5/CAN_Rx_INT.c **** 
 103              		.loc 1 414 0
 104 0008 0125     		movs	r5, #1
 418:Generated_Source\PSoC5/CAN_Rx_INT.c **** 
 419:Generated_Source\PSoC5/CAN_Rx_INT.c ****         /* `#START MESSAGE_RECEIVE_ISR` */
 420:Generated_Source\PSoC5/CAN_Rx_INT.c **** 
 421:Generated_Source\PSoC5/CAN_Rx_INT.c ****         /* `#END` */
 422:Generated_Source\PSoC5/CAN_Rx_INT.c **** 
 423:Generated_Source\PSoC5/CAN_Rx_INT.c ****         #ifdef CAN_Rx_MSG_RX_ISR_CALLBACK
 424:Generated_Source\PSoC5/CAN_Rx_INT.c ****             CAN_Rx_MsgRXIsr_Callback();
 425:Generated_Source\PSoC5/CAN_Rx_INT.c ****         #endif /* CAN_Rx_MSG_RX_ISR_CALLBACK */
 426:Generated_Source\PSoC5/CAN_Rx_INT.c **** 
 427:Generated_Source\PSoC5/CAN_Rx_INT.c ****         for (mailboxNumber = 0u; mailboxNumber < CAN_Rx_NUMBER_OF_RX_MAILBOXES; mailboxNumber++)
 105              		.loc 1 427 0
 106 000a 0024     		movs	r4, #0
 107 000c 10E0     		b	.L9
 108              	.LVL4:
 109              	.L11:
 428:Generated_Source\PSoC5/CAN_Rx_INT.c ****         {
 429:Generated_Source\PSoC5/CAN_Rx_INT.c ****             if ((CY_GET_REG16((reg16 *) &CAN_Rx_BUF_SR_REG.byte[0u]) & shift) != 0u)
 110              		.loc 1 429 0
 111 000e 0B4B     		ldr	r3, .L13+4
 112 0010 1B88     		ldrh	r3, [r3]
 113 0012 1D42     		tst	r5, r3
 114 0014 08D0     		beq	.L10
 430:Generated_Source\PSoC5/CAN_Rx_INT.c ****             {
 431:Generated_Source\PSoC5/CAN_Rx_INT.c ****                 if ((CAN_Rx_RX[mailboxNumber].rxcmd.byte[0u] & CAN_Rx_RX_INT_ENABLE_MASK) != 0u)
 115              		.loc 1 431 0
 116 0016 6301     		lsls	r3, r4, #5
 117 0018 094A     		ldr	r2, .L13+8
 118 001a 9B5C     		ldrb	r3, [r3, r2]	@ zero_extendqisi2
 119 001c 13F0200F 		tst	r3, #32
 120 0020 02D0     		beq	.L10
 432:Generated_Source\PSoC5/CAN_Rx_INT.c ****                 {
 433:Generated_Source\PSoC5/CAN_Rx_INT.c ****                     if ((CAN_Rx_RX_MAILBOX_TYPE & shift) != 0u)
 434:Generated_Source\PSoC5/CAN_Rx_INT.c ****                     {
 435:Generated_Source\PSoC5/CAN_Rx_INT.c ****                         /* RX Full mailboxes handler */
 436:Generated_Source\PSoC5/CAN_Rx_INT.c ****                     }
 437:Generated_Source\PSoC5/CAN_Rx_INT.c ****                     else
 438:Generated_Source\PSoC5/CAN_Rx_INT.c ****                     {
 439:Generated_Source\PSoC5/CAN_Rx_INT.c ****                         /* RX Basic mailbox handler */
 440:Generated_Source\PSoC5/CAN_Rx_INT.c ****                         CAN_Rx_ReceiveMsg(mailboxNumber);
 121              		.loc 1 440 0
 122 0022 2046     		mov	r0, r4
 123 0024 FFF7FEFF 		bl	CAN_Rx_ReceiveMsg
 124              	.LVL5:
 125              	.L10:
 441:Generated_Source\PSoC5/CAN_Rx_INT.c ****                     }
 442:Generated_Source\PSoC5/CAN_Rx_INT.c ****                 }
 443:Generated_Source\PSoC5/CAN_Rx_INT.c ****             }
 444:Generated_Source\PSoC5/CAN_Rx_INT.c ****             shift <<= 1u;
ARM GAS  C:\Users\Reza\AppData\Local\Temp\cciHt4c7.s 			page 11


 126              		.loc 1 444 0 discriminator 2
 127 0028 6D00     		lsls	r5, r5, #1
 128              	.LVL6:
 129 002a ADB2     		uxth	r5, r5
 130              	.LVL7:
 427:Generated_Source\PSoC5/CAN_Rx_INT.c ****         {
 131              		.loc 1 427 0 discriminator 2
 132 002c 0134     		adds	r4, r4, #1
 133              	.LVL8:
 134 002e E4B2     		uxtb	r4, r4
 135              	.LVL9:
 136              	.L9:
 427:Generated_Source\PSoC5/CAN_Rx_INT.c ****         {
 137              		.loc 1 427 0 is_stmt 0 discriminator 1
 138 0030 0F2C     		cmp	r4, #15
 139 0032 ECD9     		bls	.L11
 445:Generated_Source\PSoC5/CAN_Rx_INT.c ****         }
 446:Generated_Source\PSoC5/CAN_Rx_INT.c ****     }
 140              		.loc 1 446 0 is_stmt 1
 141 0034 38BD     		pop	{r3, r4, r5, pc}
 142              	.LVL10:
 143              	.L14:
 144 0036 00BF     		.align	2
 145              	.L13:
 146 0038 00A00040 		.word	1073782784
 147 003c 08A00040 		.word	1073782792
 148 0040 A0A00040 		.word	1073782944
 149              		.cfi_endproc
 150              	.LFE70:
 151              		.size	CAN_Rx_MsgRXIsr, .-CAN_Rx_MsgRXIsr
 152              		.section	.text.CAN_Rx_ISR,"ax",%progbits
 153              		.align	2
 154              		.global	CAN_Rx_ISR
 155              		.thumb
 156              		.thumb_func
 157              		.type	CAN_Rx_ISR, %function
 158              	CAN_Rx_ISR:
 159              	.LFB71:
 447:Generated_Source\PSoC5/CAN_Rx_INT.c **** #endif /* CAN_Rx_RX_MESSAGE */
 448:Generated_Source\PSoC5/CAN_Rx_INT.c **** 
 449:Generated_Source\PSoC5/CAN_Rx_INT.c **** 
 450:Generated_Source\PSoC5/CAN_Rx_INT.c **** /*******************************************************************************
 451:Generated_Source\PSoC5/CAN_Rx_INT.c **** * Function Name: CAN_Rx_ISR
 452:Generated_Source\PSoC5/CAN_Rx_INT.c **** ********************************************************************************
 453:Generated_Source\PSoC5/CAN_Rx_INT.c **** *
 454:Generated_Source\PSoC5/CAN_Rx_INT.c **** * Summary:
 455:Generated_Source\PSoC5/CAN_Rx_INT.c **** *  This ISR is executed when CAN Core generates and interrupt on one of events:
 456:Generated_Source\PSoC5/CAN_Rx_INT.c **** *  Arb_lost, Overload, Bit_err, Stuff_err, Ack_err, Form_err, Crc_err,
 457:Generated_Source\PSoC5/CAN_Rx_INT.c **** *  Buss_off, Rx_msg_lost, Tx_msg or Rx_msg. The interrupt sources depends
 458:Generated_Source\PSoC5/CAN_Rx_INT.c **** *  on the Customizer inputs.
 459:Generated_Source\PSoC5/CAN_Rx_INT.c **** *
 460:Generated_Source\PSoC5/CAN_Rx_INT.c **** * Parameters:
 461:Generated_Source\PSoC5/CAN_Rx_INT.c **** *  None.
 462:Generated_Source\PSoC5/CAN_Rx_INT.c **** *
 463:Generated_Source\PSoC5/CAN_Rx_INT.c **** * Return:
 464:Generated_Source\PSoC5/CAN_Rx_INT.c **** *  None.
 465:Generated_Source\PSoC5/CAN_Rx_INT.c **** *
ARM GAS  C:\Users\Reza\AppData\Local\Temp\cciHt4c7.s 			page 12


 466:Generated_Source\PSoC5/CAN_Rx_INT.c **** *******************************************************************************/
 467:Generated_Source\PSoC5/CAN_Rx_INT.c **** CY_ISR(CAN_Rx_ISR)
 468:Generated_Source\PSoC5/CAN_Rx_INT.c **** {
 160              		.loc 1 468 0
 161              		.cfi_startproc
 162              		@ args = 0, pretend = 0, frame = 0
 163              		@ frame_needed = 0, uses_anonymous_args = 0
 164 0000 08B5     		push	{r3, lr}
 165              		.cfi_def_cfa_offset 8
 166              		.cfi_offset 3, -8
 167              		.cfi_offset 14, -4
 469:Generated_Source\PSoC5/CAN_Rx_INT.c ****     #ifdef CAN_Rx_ISR_INTERRUPT_CALLBACK
 470:Generated_Source\PSoC5/CAN_Rx_INT.c ****         CAN_Rx_ISR_InterruptCallback();
 471:Generated_Source\PSoC5/CAN_Rx_INT.c ****     #endif /* CAN_Rx_ISR_INTERRUPT_CALLBACK */
 472:Generated_Source\PSoC5/CAN_Rx_INT.c ****     
 473:Generated_Source\PSoC5/CAN_Rx_INT.c ****     /* Place your Interrupt code here. */
 474:Generated_Source\PSoC5/CAN_Rx_INT.c ****     /* `#START CAN_ISR` */
 475:Generated_Source\PSoC5/CAN_Rx_INT.c **** 
 476:Generated_Source\PSoC5/CAN_Rx_INT.c ****     /* `#END` */
 477:Generated_Source\PSoC5/CAN_Rx_INT.c ****     
 478:Generated_Source\PSoC5/CAN_Rx_INT.c ****     /* Arbitration */
 479:Generated_Source\PSoC5/CAN_Rx_INT.c ****     #if (CAN_Rx_ARB_LOST && (CAN_Rx_ARB_LOST_USE_HELPER || \
 480:Generated_Source\PSoC5/CAN_Rx_INT.c ****         (!CAN_Rx_ADVANCED_INTERRUPT_CFG)))
 481:Generated_Source\PSoC5/CAN_Rx_INT.c ****         if ((CAN_Rx_INT_SR_REG.byte[0u] & CAN_Rx_ARBITRATION_LOST_MASK) != 0u)
 482:Generated_Source\PSoC5/CAN_Rx_INT.c ****         {
 483:Generated_Source\PSoC5/CAN_Rx_INT.c ****             CAN_Rx_ArbLostIsr();
 484:Generated_Source\PSoC5/CAN_Rx_INT.c ****         }
 485:Generated_Source\PSoC5/CAN_Rx_INT.c ****     #endif /* CAN_Rx_ARB_LOST && CAN_Rx_ARB_LOST_USE_HELPER */
 486:Generated_Source\PSoC5/CAN_Rx_INT.c **** 
 487:Generated_Source\PSoC5/CAN_Rx_INT.c ****     /* Overload Error */
 488:Generated_Source\PSoC5/CAN_Rx_INT.c ****     #if (CAN_Rx_OVERLOAD && (CAN_Rx_OVERLOAD_USE_HELPER || \
 489:Generated_Source\PSoC5/CAN_Rx_INT.c ****         (!CAN_Rx_ADVANCED_INTERRUPT_CFG)))
 490:Generated_Source\PSoC5/CAN_Rx_INT.c ****         if ((CAN_Rx_INT_SR_REG.byte[0u] & CAN_Rx_OVERLOAD_ERROR_MASK) != 0u)
 491:Generated_Source\PSoC5/CAN_Rx_INT.c ****         {
 492:Generated_Source\PSoC5/CAN_Rx_INT.c ****             CAN_Rx_OvrLdErrorIsr();
 493:Generated_Source\PSoC5/CAN_Rx_INT.c ****         }
 494:Generated_Source\PSoC5/CAN_Rx_INT.c ****     #endif /* CAN_Rx_OVERLOAD && CAN_Rx_OVERLOAD_USE_HELPER */
 495:Generated_Source\PSoC5/CAN_Rx_INT.c **** 
 496:Generated_Source\PSoC5/CAN_Rx_INT.c ****     /* Bit Error */
 497:Generated_Source\PSoC5/CAN_Rx_INT.c ****     #if (CAN_Rx_BIT_ERR && (CAN_Rx_BIT_ERR_USE_HELPER || \
 498:Generated_Source\PSoC5/CAN_Rx_INT.c ****         (!CAN_Rx_ADVANCED_INTERRUPT_CFG)))
 499:Generated_Source\PSoC5/CAN_Rx_INT.c ****         if ((CAN_Rx_INT_SR_REG.byte[0u] & CAN_Rx_BIT_ERROR_MASK) != 0u)
 500:Generated_Source\PSoC5/CAN_Rx_INT.c ****         {
 501:Generated_Source\PSoC5/CAN_Rx_INT.c ****             CAN_Rx_BitErrorIsr();
 502:Generated_Source\PSoC5/CAN_Rx_INT.c ****         }
 503:Generated_Source\PSoC5/CAN_Rx_INT.c ****     #endif /* CAN_Rx_BIT_ERR && CAN_Rx_BIT_ERR_USE_HELPER */
 504:Generated_Source\PSoC5/CAN_Rx_INT.c **** 
 505:Generated_Source\PSoC5/CAN_Rx_INT.c ****     /* Bit Staff Error */
 506:Generated_Source\PSoC5/CAN_Rx_INT.c ****     #if (CAN_Rx_STUFF_ERR && (CAN_Rx_STUFF_ERR_USE_HELPER || \
 507:Generated_Source\PSoC5/CAN_Rx_INT.c ****         (!CAN_Rx_ADVANCED_INTERRUPT_CFG)))
 508:Generated_Source\PSoC5/CAN_Rx_INT.c ****         if ((CAN_Rx_INT_SR_REG.byte[0u] & CAN_Rx_STUFF_ERROR_MASK) != 0u)
 509:Generated_Source\PSoC5/CAN_Rx_INT.c ****         {
 510:Generated_Source\PSoC5/CAN_Rx_INT.c ****             CAN_Rx_BitStuffErrorIsr();
 511:Generated_Source\PSoC5/CAN_Rx_INT.c ****         }
 512:Generated_Source\PSoC5/CAN_Rx_INT.c ****     #endif /* CAN_Rx_STUFF_ERR && CAN_Rx_STUFF_ERR_USE_HELPER */
 513:Generated_Source\PSoC5/CAN_Rx_INT.c **** 
 514:Generated_Source\PSoC5/CAN_Rx_INT.c ****     /* ACK Error */
ARM GAS  C:\Users\Reza\AppData\Local\Temp\cciHt4c7.s 			page 13


 515:Generated_Source\PSoC5/CAN_Rx_INT.c ****     #if (CAN_Rx_ACK_ERR && (CAN_Rx_ACK_ERR_USE_HELPER || \
 516:Generated_Source\PSoC5/CAN_Rx_INT.c ****         (!CAN_Rx_ADVANCED_INTERRUPT_CFG)))
 517:Generated_Source\PSoC5/CAN_Rx_INT.c ****         if ((CAN_Rx_INT_SR_REG.byte[0u] & CAN_Rx_ACK_ERROR_MASK) != 0u)
 518:Generated_Source\PSoC5/CAN_Rx_INT.c ****         {
 519:Generated_Source\PSoC5/CAN_Rx_INT.c ****             CAN_Rx_AckErrorIsr();
 520:Generated_Source\PSoC5/CAN_Rx_INT.c ****         }
 521:Generated_Source\PSoC5/CAN_Rx_INT.c ****     #endif /* CAN_Rx_ACK_ERR && CAN_Rx_ACK_ERR_USE_HELPER */
 522:Generated_Source\PSoC5/CAN_Rx_INT.c **** 
 523:Generated_Source\PSoC5/CAN_Rx_INT.c ****     /* Form(msg) Error */
 524:Generated_Source\PSoC5/CAN_Rx_INT.c ****     #if (CAN_Rx_FORM_ERR && (CAN_Rx_FORM_ERR_USE_HELPER || \
 525:Generated_Source\PSoC5/CAN_Rx_INT.c ****         (!CAN_Rx_ADVANCED_INTERRUPT_CFG)))
 526:Generated_Source\PSoC5/CAN_Rx_INT.c ****         if ((CAN_Rx_INT_SR_REG.byte[0u] & CAN_Rx_FORM_ERROR_MASK) != 0u)
 527:Generated_Source\PSoC5/CAN_Rx_INT.c ****         {
 528:Generated_Source\PSoC5/CAN_Rx_INT.c ****             CAN_Rx_MsgErrorIsr();
 529:Generated_Source\PSoC5/CAN_Rx_INT.c ****         }
 530:Generated_Source\PSoC5/CAN_Rx_INT.c ****     #endif /* CAN_Rx_FORM_ERR && CAN_Rx_FORM_ERR_USE_HELPER */
 531:Generated_Source\PSoC5/CAN_Rx_INT.c **** 
 532:Generated_Source\PSoC5/CAN_Rx_INT.c ****     /* CRC Error */
 533:Generated_Source\PSoC5/CAN_Rx_INT.c ****     #if (CAN_Rx_CRC_ERR && (CAN_Rx_CRC_ERR_USE_HELPER || \
 534:Generated_Source\PSoC5/CAN_Rx_INT.c ****         (!CAN_Rx_ADVANCED_INTERRUPT_CFG)))
 535:Generated_Source\PSoC5/CAN_Rx_INT.c ****         if ((CAN_Rx_INT_SR_REG.byte[1u] & CAN_Rx_CRC_ERROR_MASK) != 0u)
 536:Generated_Source\PSoC5/CAN_Rx_INT.c ****         {
 537:Generated_Source\PSoC5/CAN_Rx_INT.c ****             CAN_Rx_CrcErrorIsr();
 538:Generated_Source\PSoC5/CAN_Rx_INT.c ****         }
 539:Generated_Source\PSoC5/CAN_Rx_INT.c ****     #endif /* CAN_Rx_CRC_ERR && CAN_Rx_CRC_ERR_USE_HELPER */
 540:Generated_Source\PSoC5/CAN_Rx_INT.c **** 
 541:Generated_Source\PSoC5/CAN_Rx_INT.c ****     /* Bus Off state */
 542:Generated_Source\PSoC5/CAN_Rx_INT.c ****     #if (CAN_Rx_BUS_OFF && (CAN_Rx_BUS_OFF_USE_HELPER || \
 543:Generated_Source\PSoC5/CAN_Rx_INT.c ****         (!CAN_Rx_ADVANCED_INTERRUPT_CFG)))
 544:Generated_Source\PSoC5/CAN_Rx_INT.c ****         if ((CAN_Rx_INT_SR_REG.byte[1u] & CAN_Rx_BUS_OFF_MASK) != 0u)
 168              		.loc 1 544 0
 169 0002 144B     		ldr	r3, .L21
 170 0004 5B78     		ldrb	r3, [r3, #1]	@ zero_extendqisi2
 171 0006 13F0020F 		tst	r3, #2
 172 000a 01D0     		beq	.L16
 545:Generated_Source\PSoC5/CAN_Rx_INT.c ****         {
 546:Generated_Source\PSoC5/CAN_Rx_INT.c ****             CAN_Rx_BusOffIsr();
 173              		.loc 1 546 0
 174 000c FFF7FEFF 		bl	CAN_Rx_BusOffIsr
 175              	.LVL11:
 176              	.L16:
 547:Generated_Source\PSoC5/CAN_Rx_INT.c ****         }
 548:Generated_Source\PSoC5/CAN_Rx_INT.c ****     #endif /* CAN_Rx_BUS_OFF && CAN_Rx_BUS_OFF_USE_HELPER */
 549:Generated_Source\PSoC5/CAN_Rx_INT.c **** 
 550:Generated_Source\PSoC5/CAN_Rx_INT.c ****     /* Message Lost */
 551:Generated_Source\PSoC5/CAN_Rx_INT.c ****     #if (CAN_Rx_RX_MSG_LOST && (CAN_Rx_RX_MSG_LOST_USE_HELPER || \
 552:Generated_Source\PSoC5/CAN_Rx_INT.c ****         (!CAN_Rx_ADVANCED_INTERRUPT_CFG)))
 553:Generated_Source\PSoC5/CAN_Rx_INT.c ****         if ((CAN_Rx_INT_SR_REG.byte[1u] & CAN_Rx_RX_MSG_LOST_MASK) != 0u)
 554:Generated_Source\PSoC5/CAN_Rx_INT.c ****         {
 555:Generated_Source\PSoC5/CAN_Rx_INT.c ****             CAN_Rx_MsgLostIsr();
 556:Generated_Source\PSoC5/CAN_Rx_INT.c ****         }
 557:Generated_Source\PSoC5/CAN_Rx_INT.c ****     #endif /* CAN_Rx_RX_MSG_LOST && CAN_Rx_RX_MSG_LOST_USE_HELPER */
 558:Generated_Source\PSoC5/CAN_Rx_INT.c **** 
 559:Generated_Source\PSoC5/CAN_Rx_INT.c ****     /* TX Message Send */
 560:Generated_Source\PSoC5/CAN_Rx_INT.c ****     #if (CAN_Rx_TX_MESSAGE && (CAN_Rx_TX_MESSAGE_USE_HELPER || \
 561:Generated_Source\PSoC5/CAN_Rx_INT.c ****         (!CAN_Rx_ADVANCED_INTERRUPT_CFG)))
 562:Generated_Source\PSoC5/CAN_Rx_INT.c ****         if ((CAN_Rx_INT_SR_REG.byte[1u] & CAN_Rx_TX_MESSAGE_MASK) != 0u)
ARM GAS  C:\Users\Reza\AppData\Local\Temp\cciHt4c7.s 			page 14


 177              		.loc 1 562 0
 178 0010 104B     		ldr	r3, .L21
 179 0012 5B78     		ldrb	r3, [r3, #1]	@ zero_extendqisi2
 180 0014 13F0080F 		tst	r3, #8
 181 0018 01D0     		beq	.L17
 563:Generated_Source\PSoC5/CAN_Rx_INT.c ****         {
 564:Generated_Source\PSoC5/CAN_Rx_INT.c ****             CAN_Rx_MsgTXIsr();
 182              		.loc 1 564 0
 183 001a FFF7FEFF 		bl	CAN_Rx_MsgTXIsr
 184              	.LVL12:
 185              	.L17:
 565:Generated_Source\PSoC5/CAN_Rx_INT.c ****         }
 566:Generated_Source\PSoC5/CAN_Rx_INT.c ****     #endif /* CAN_Rx_TX_MESSAGE && CAN_Rx_TX_MESSAGE_USE_HELPER */
 567:Generated_Source\PSoC5/CAN_Rx_INT.c **** 
 568:Generated_Source\PSoC5/CAN_Rx_INT.c ****     /* RX Message Available */
 569:Generated_Source\PSoC5/CAN_Rx_INT.c ****     #if (CAN_Rx_RX_MESSAGE && (CAN_Rx_RX_MESSAGE_USE_HELPER || \
 570:Generated_Source\PSoC5/CAN_Rx_INT.c ****         (!CAN_Rx_ADVANCED_INTERRUPT_CFG)))
 571:Generated_Source\PSoC5/CAN_Rx_INT.c ****         static signed long xHigherPriorityTaskWoken;
 572:Generated_Source\PSoC5/CAN_Rx_INT.c ****         xHigherPriorityTaskWoken = pdFALSE;
 186              		.loc 1 572 0
 187 001e 0022     		movs	r2, #0
 188 0020 0D4B     		ldr	r3, .L21+4
 189 0022 1A60     		str	r2, [r3]
 573:Generated_Source\PSoC5/CAN_Rx_INT.c ****         if ((CAN_Rx_INT_SR_REG.byte[1u] & CAN_Rx_RX_MESSAGE_MASK) != 0u)
 190              		.loc 1 573 0
 191 0024 0B4B     		ldr	r3, .L21
 192 0026 5B78     		ldrb	r3, [r3, #1]	@ zero_extendqisi2
 193 0028 13F0100F 		tst	r3, #16
 194 002c 06D0     		beq	.L18
 574:Generated_Source\PSoC5/CAN_Rx_INT.c ****         {
 575:Generated_Source\PSoC5/CAN_Rx_INT.c ****                 CAN_Rx_MsgRXIsr();
 195              		.loc 1 575 0
 196 002e FFF7FEFF 		bl	CAN_Rx_MsgRXIsr
 197              	.LVL13:
 576:Generated_Source\PSoC5/CAN_Rx_INT.c ****                 xSemaphoreGiveFromISR( RxGiver, &xHigherPriorityTaskWoken );
 198              		.loc 1 576 0
 199 0032 0949     		ldr	r1, .L21+4
 200 0034 094B     		ldr	r3, .L21+8
 201 0036 1868     		ldr	r0, [r3]
 202 0038 FFF7FEFF 		bl	xQueueGiveFromISR
 203              	.LVL14:
 204              	.L18:
 577:Generated_Source\PSoC5/CAN_Rx_INT.c ****         }
 578:Generated_Source\PSoC5/CAN_Rx_INT.c ****         portYIELD_FROM_ISR( xHigherPriorityTaskWoken );
 205              		.loc 1 578 0
 206 003c 064B     		ldr	r3, .L21+4
 207 003e 1B68     		ldr	r3, [r3]
 208 0040 3BB1     		cbz	r3, .L15
 209              		.loc 1 578 0 is_stmt 0 discriminator 1
 210 0042 4FF08052 		mov	r2, #268435456
 211 0046 064B     		ldr	r3, .L21+12
 212 0048 1A60     		str	r2, [r3]
 213              		.syntax unified
 214              	@ 578 "Generated_Source\PSoC5\CAN_Rx_INT.c" 1
 215 004a BFF34F8F 		dsb
 216              	@ 0 "" 2
 217              	@ 578 "Generated_Source\PSoC5\CAN_Rx_INT.c" 1
ARM GAS  C:\Users\Reza\AppData\Local\Temp\cciHt4c7.s 			page 15


 218 004e BFF36F8F 		isb
 219              	@ 0 "" 2
 220              		.thumb
 221              		.syntax unified
 222              	.L15:
 223 0052 08BD     		pop	{r3, pc}
 224              	.L22:
 225              		.align	2
 226              	.L21:
 227 0054 00A00040 		.word	1073782784
 228 0058 00000000 		.word	.LANCHOR0
 229 005c 00000000 		.word	RxGiver
 230 0060 04ED00E0 		.word	-536810236
 231              		.cfi_endproc
 232              	.LFE71:
 233              		.size	CAN_Rx_ISR, .-CAN_Rx_ISR
 234              		.bss
 235              		.align	2
 236              		.set	.LANCHOR0,. + 0
 237              		.type	xHigherPriorityTaskWoken.6659, %object
 238              		.size	xHigherPriorityTaskWoken.6659, 4
 239              	xHigherPriorityTaskWoken.6659:
 240 0000 00000000 		.space	4
 241              		.text
 242              	.Letext0:
 243              		.file 2 "c:\\program files (x86)\\cypress\\psoc creator\\4.2\\psoc creator\\import\\gnu\\arm\\5.4.
 244              		.file 3 "c:\\program files (x86)\\cypress\\psoc creator\\4.2\\psoc creator\\import\\gnu\\arm\\5.4.
 245              		.file 4 "Generated_Source\\PSoC5\\cytypes.h"
 246              		.file 5 "Generated_Source\\PSoC5\\CAN_Rx.h"
 247              		.file 6 ".\\Source\\bsw\\FreeRTOS\\include/portmacro.h"
 248              		.file 7 ".\\Source\\bsw\\FreeRTOS\\include/queue.h"
 249              		.file 8 ".\\Source\\bsw\\FreeRTOS\\include/semphr.h"
 250              		.file 9 "Generated_Source\\PSoC5/core_cm3.h"