ARM GAS  C:\Users\Reza\AppData\Local\Temp\ccxA9TIB.s 			page 1


   1              		.syntax unified
   2              		.cpu cortex-m3
   3              		.fpu softvfp
   4              		.eabi_attribute 20, 1
   5              		.eabi_attribute 21, 1
   6              		.eabi_attribute 23, 3
   7              		.eabi_attribute 24, 1
   8              		.eabi_attribute 25, 1
   9              		.eabi_attribute 26, 1
  10              		.eabi_attribute 30, 1
  11              		.eabi_attribute 34, 1
  12              		.eabi_attribute 18, 4
  13              		.thumb
  14              		.syntax unified
  15              		.file	"CAN_Rx_TX_RX_func.c"
  16              		.text
  17              	.Ltext0:
  18              		.cfi_sections	.debug_frame
  19              		.section	.text.CAN_Rx_SendMsg,"ax",%progbits
  20              		.align	2
  21              		.global	CAN_Rx_SendMsg
  22              		.thumb
  23              		.thumb_func
  24              		.type	CAN_Rx_SendMsg, %function
  25              	CAN_Rx_SendMsg:
  26              	.LFB68:
  27              		.file 1 "Generated_Source\\PSoC5\\CAN_Rx_TX_RX_func.c"
   1:Generated_Source\PSoC5/CAN_Rx_TX_RX_func.c **** /*******************************************************************************
   2:Generated_Source\PSoC5/CAN_Rx_TX_RX_func.c **** * File Name: CAN_Rx_TX_RX_func.c
   3:Generated_Source\PSoC5/CAN_Rx_TX_RX_func.c **** * Version 3.0
   4:Generated_Source\PSoC5/CAN_Rx_TX_RX_func.c **** *
   5:Generated_Source\PSoC5/CAN_Rx_TX_RX_func.c **** * Description:
   6:Generated_Source\PSoC5/CAN_Rx_TX_RX_func.c **** *  There are functions process "Full" Receive and Transmit mailboxes:
   7:Generated_Source\PSoC5/CAN_Rx_TX_RX_func.c **** *     - CAN_Rx_SendMsg0-7();
   8:Generated_Source\PSoC5/CAN_Rx_TX_RX_func.c **** *     - CAN_Rx_ReceiveMsg0-15();
   9:Generated_Source\PSoC5/CAN_Rx_TX_RX_func.c **** *  Transmission of message, and receive routine for "Basic" mailboxes:
  10:Generated_Source\PSoC5/CAN_Rx_TX_RX_func.c **** *     - CAN_Rx_SendMsg();
  11:Generated_Source\PSoC5/CAN_Rx_TX_RX_func.c **** *     - CAN_Rx_TxCancel();
  12:Generated_Source\PSoC5/CAN_Rx_TX_RX_func.c **** *     - CAN_Rx_ReceiveMsg();
  13:Generated_Source\PSoC5/CAN_Rx_TX_RX_func.c **** *
  14:Generated_Source\PSoC5/CAN_Rx_TX_RX_func.c **** *  Note:
  15:Generated_Source\PSoC5/CAN_Rx_TX_RX_func.c **** *   None
  16:Generated_Source\PSoC5/CAN_Rx_TX_RX_func.c **** *
  17:Generated_Source\PSoC5/CAN_Rx_TX_RX_func.c **** ********************************************************************************
  18:Generated_Source\PSoC5/CAN_Rx_TX_RX_func.c **** * Copyright 2008-2015, Cypress Semiconductor Corporation.  All rights reserved.
  19:Generated_Source\PSoC5/CAN_Rx_TX_RX_func.c **** * You may use this file only in accordance with the license, terms, conditions,
  20:Generated_Source\PSoC5/CAN_Rx_TX_RX_func.c **** * disclaimers, and limitations in the end user license agreement accompanying
  21:Generated_Source\PSoC5/CAN_Rx_TX_RX_func.c **** * the software package with which this file was provided.
  22:Generated_Source\PSoC5/CAN_Rx_TX_RX_func.c **** *******************************************************************************/
  23:Generated_Source\PSoC5/CAN_Rx_TX_RX_func.c **** 
  24:Generated_Source\PSoC5/CAN_Rx_TX_RX_func.c **** #include "CAN_Rx.h"
  25:Generated_Source\PSoC5/CAN_Rx_TX_RX_func.c **** #include "seven.h"
  26:Generated_Source\PSoC5/CAN_Rx_TX_RX_func.c **** #include "UART_LOG.h"
  27:Generated_Source\PSoC5/CAN_Rx_TX_RX_func.c **** #include "FreeRTOS.h"
  28:Generated_Source\PSoC5/CAN_Rx_TX_RX_func.c **** #include "semphr.h"
  29:Generated_Source\PSoC5/CAN_Rx_TX_RX_func.c **** 
  30:Generated_Source\PSoC5/CAN_Rx_TX_RX_func.c **** /* `#START TX_RX_FUNCTION` */
ARM GAS  C:\Users\Reza\AppData\Local\Temp\ccxA9TIB.s 			page 2


  31:Generated_Source\PSoC5/CAN_Rx_TX_RX_func.c **** 
  32:Generated_Source\PSoC5/CAN_Rx_TX_RX_func.c **** extern uint16_t Lidar_data1[256];
  33:Generated_Source\PSoC5/CAN_Rx_TX_RX_func.c **** extern uint16_t Lidar_data2[256];
  34:Generated_Source\PSoC5/CAN_Rx_TX_RX_func.c **** extern uint16_t indx;
  35:Generated_Source\PSoC5/CAN_Rx_TX_RX_func.c **** extern uint8_t buffernumber;
  36:Generated_Source\PSoC5/CAN_Rx_TX_RX_func.c **** extern boolean_t startpacket;
  37:Generated_Source\PSoC5/CAN_Rx_TX_RX_func.c **** extern boolean_t endpacket;
  38:Generated_Source\PSoC5/CAN_Rx_TX_RX_func.c **** extern uint16_t Receivedata1[1];
  39:Generated_Source\PSoC5/CAN_Rx_TX_RX_func.c **** extern uint16_t Receivedata2[1];
  40:Generated_Source\PSoC5/CAN_Rx_TX_RX_func.c **** extern uint8_t LEDNumber;
  41:Generated_Source\PSoC5/CAN_Rx_TX_RX_func.c **** 
  42:Generated_Source\PSoC5/CAN_Rx_TX_RX_func.c **** /* `#END` */
  43:Generated_Source\PSoC5/CAN_Rx_TX_RX_func.c **** 
  44:Generated_Source\PSoC5/CAN_Rx_TX_RX_func.c **** 
  45:Generated_Source\PSoC5/CAN_Rx_TX_RX_func.c **** 
  46:Generated_Source\PSoC5/CAN_Rx_TX_RX_func.c **** /*******************************************************************************
  47:Generated_Source\PSoC5/CAN_Rx_TX_RX_func.c **** * FUNCTION NAME:   CAN_Rx_SendMsg
  48:Generated_Source\PSoC5/CAN_Rx_TX_RX_func.c **** ********************************************************************************
  49:Generated_Source\PSoC5/CAN_Rx_TX_RX_func.c **** *
  50:Generated_Source\PSoC5/CAN_Rx_TX_RX_func.c **** * Summary:
  51:Generated_Source\PSoC5/CAN_Rx_TX_RX_func.c **** *  This function is Send Message from one of Basic mailboxes. The function loops
  52:Generated_Source\PSoC5/CAN_Rx_TX_RX_func.c **** *  through the transmit message buffer designed as Basic CAN mailboxes for the
  53:Generated_Source\PSoC5/CAN_Rx_TX_RX_func.c **** *  first free available and sends from it. The number of retries is limited.
  54:Generated_Source\PSoC5/CAN_Rx_TX_RX_func.c **** *
  55:Generated_Source\PSoC5/CAN_Rx_TX_RX_func.c **** * Parameters:
  56:Generated_Source\PSoC5/CAN_Rx_TX_RX_func.c **** *  message: The pointer to a structure that contains all required data to send
  57:Generated_Source\PSoC5/CAN_Rx_TX_RX_func.c **** *           messages.
  58:Generated_Source\PSoC5/CAN_Rx_TX_RX_func.c **** *
  59:Generated_Source\PSoC5/CAN_Rx_TX_RX_func.c **** * Return:
  60:Generated_Source\PSoC5/CAN_Rx_TX_RX_func.c **** *  Indication if message has been sent.
  61:Generated_Source\PSoC5/CAN_Rx_TX_RX_func.c **** *   Define                             Description
  62:Generated_Source\PSoC5/CAN_Rx_TX_RX_func.c **** *    CYRET_SUCCESS                      The function passed successfully
  63:Generated_Source\PSoC5/CAN_Rx_TX_RX_func.c **** *    CAN_Rx_FAIL              The function failed
  64:Generated_Source\PSoC5/CAN_Rx_TX_RX_func.c **** *
  65:Generated_Source\PSoC5/CAN_Rx_TX_RX_func.c **** *******************************************************************************/
  66:Generated_Source\PSoC5/CAN_Rx_TX_RX_func.c **** uint8 CAN_Rx_SendMsg(const CAN_Rx_TX_MSG *message) 
  67:Generated_Source\PSoC5/CAN_Rx_TX_RX_func.c **** {
  28              		.loc 1 67 0
  29              		.cfi_startproc
  30              		@ args = 0, pretend = 0, frame = 0
  31              		@ frame_needed = 0, uses_anonymous_args = 0
  32              	.LVL0:
  33 0000 F0B5     		push	{r4, r5, r6, r7, lr}
  34              		.cfi_def_cfa_offset 20
  35              		.cfi_offset 4, -20
  36              		.cfi_offset 5, -16
  37              		.cfi_offset 6, -12
  38              		.cfi_offset 7, -8
  39              		.cfi_offset 14, -4
  40              	.LVL1:
  68:Generated_Source\PSoC5/CAN_Rx_TX_RX_func.c ****     uint8 i, j, shift;
  69:Generated_Source\PSoC5/CAN_Rx_TX_RX_func.c ****     uint8 retry = 0u;
  70:Generated_Source\PSoC5/CAN_Rx_TX_RX_func.c ****     uint8 result = CAN_Rx_FAIL;
  41              		.loc 1 70 0
  42 0002 0121     		movs	r1, #1
  69:Generated_Source\PSoC5/CAN_Rx_TX_RX_func.c ****     uint8 result = CAN_Rx_FAIL;
  43              		.loc 1 69 0
ARM GAS  C:\Users\Reza\AppData\Local\Temp\ccxA9TIB.s 			page 3


  44 0004 0026     		movs	r6, #0
  71:Generated_Source\PSoC5/CAN_Rx_TX_RX_func.c ****     uint32 regTemp;
  72:Generated_Source\PSoC5/CAN_Rx_TX_RX_func.c **** 
  73:Generated_Source\PSoC5/CAN_Rx_TX_RX_func.c ****     while (retry < CAN_Rx_RETRY_NUMBER)
  45              		.loc 1 73 0
  46 0006 5DE0     		b	.L2
  47              	.LVL2:
  48              	.L16:
  74:Generated_Source\PSoC5/CAN_Rx_TX_RX_func.c ****     {
  75:Generated_Source\PSoC5/CAN_Rx_TX_RX_func.c ****         shift = 1u;    /* Start from first mailbox */
  76:Generated_Source\PSoC5/CAN_Rx_TX_RX_func.c ****         for (i = 0u; i < CAN_Rx_NUMBER_OF_TX_MAILBOXES; i++)
  77:Generated_Source\PSoC5/CAN_Rx_TX_RX_func.c ****         {
  78:Generated_Source\PSoC5/CAN_Rx_TX_RX_func.c ****             /* Find Basic TX mailboxes */
  79:Generated_Source\PSoC5/CAN_Rx_TX_RX_func.c ****             if ((CAN_Rx_TX_MAILBOX_TYPE & shift) == 0u)
  49              		.loc 1 79 0
  50 0008 17F0030F 		tst	r7, #3
  51 000c 4DD1     		bne	.L3
  80:Generated_Source\PSoC5/CAN_Rx_TX_RX_func.c ****             {
  81:Generated_Source\PSoC5/CAN_Rx_TX_RX_func.c ****                 /* Find free mailbox */
  82:Generated_Source\PSoC5/CAN_Rx_TX_RX_func.c ****                 #if (CY_PSOC3 || CY_PSOC5)
  83:Generated_Source\PSoC5/CAN_Rx_TX_RX_func.c ****                     if ((CAN_Rx_BUF_SR_REG.byte[2] & shift) == 0u)
  52              		.loc 1 83 0
  53 000e 2F4B     		ldr	r3, .L22
  54 0010 9B78     		ldrb	r3, [r3, #2]	@ zero_extendqisi2
  55 0012 3B42     		tst	r3, r7
  56 0014 49D1     		bne	.L3
  57              	.LVL3:
  84:Generated_Source\PSoC5/CAN_Rx_TX_RX_func.c ****                 #else  /* CY_PSOC4 */
  85:Generated_Source\PSoC5/CAN_Rx_TX_RX_func.c ****                     if ((CAN_Rx_BUF_SR_REG &
  86:Generated_Source\PSoC5/CAN_Rx_TX_RX_func.c ****                         (uint32) ((uint32) shift << CAN_Rx_TWO_BYTE_OFFSET)) == 0u)
  87:Generated_Source\PSoC5/CAN_Rx_TX_RX_func.c ****                 #endif /* CY_PSOC3 || CY_PSOC5 */
  88:Generated_Source\PSoC5/CAN_Rx_TX_RX_func.c ****                     {
  89:Generated_Source\PSoC5/CAN_Rx_TX_RX_func.c ****                         regTemp = 0u;
  90:Generated_Source\PSoC5/CAN_Rx_TX_RX_func.c **** 
  91:Generated_Source\PSoC5/CAN_Rx_TX_RX_func.c ****                         /* Set message parameters */
  92:Generated_Source\PSoC5/CAN_Rx_TX_RX_func.c ****                         if (message->rtr != CAN_Rx_STANDARD_MESSAGE)
  58              		.loc 1 92 0
  59 0016 0379     		ldrb	r3, [r0, #4]	@ zero_extendqisi2
  60 0018 0BB1     		cbz	r3, .L4
  93:Generated_Source\PSoC5/CAN_Rx_TX_RX_func.c ****                         {
  94:Generated_Source\PSoC5/CAN_Rx_TX_RX_func.c ****                             regTemp = CAN_Rx_TX_RTR_MASK;    /* RTR message Enable */
  61              		.loc 1 94 0
  62 001a 4FF40013 		mov	r3, #2097152
  63              	.L4:
  64              	.LVL4:
  95:Generated_Source\PSoC5/CAN_Rx_TX_RX_func.c ****                         }
  96:Generated_Source\PSoC5/CAN_Rx_TX_RX_func.c **** 
  97:Generated_Source\PSoC5/CAN_Rx_TX_RX_func.c ****                         if (message->ide == CAN_Rx_STANDARD_MESSAGE)
  65              		.loc 1 97 0
  66 001e 4179     		ldrb	r1, [r0, #5]	@ zero_extendqisi2
  67              	.LVL5:
  68 0020 31B9     		cbnz	r1, .L5
  98:Generated_Source\PSoC5/CAN_Rx_TX_RX_func.c ****                         {
  99:Generated_Source\PSoC5/CAN_Rx_TX_RX_func.c ****                             CAN_Rx_SET_TX_ID_STANDARD_MSG(i, message->id);
  69              		.loc 1 99 0
  70 0022 2B49     		ldr	r1, .L22+4
  71 0024 01EB0211 		add	r1, r1, r2, lsl #4
ARM GAS  C:\Users\Reza\AppData\Local\Temp\ccxA9TIB.s 			page 4


  72 0028 0468     		ldr	r4, [r0]
  73 002a 6405     		lsls	r4, r4, #21
  74 002c 4C60     		str	r4, [r1, #4]
  75 002e 07E0     		b	.L6
  76              	.L5:
 100:Generated_Source\PSoC5/CAN_Rx_TX_RX_func.c ****                         }
 101:Generated_Source\PSoC5/CAN_Rx_TX_RX_func.c ****                         else
 102:Generated_Source\PSoC5/CAN_Rx_TX_RX_func.c ****                         {
 103:Generated_Source\PSoC5/CAN_Rx_TX_RX_func.c ****                             regTemp |= CAN_Rx_TX_IDE_MASK;
  77              		.loc 1 103 0
  78 0030 43F48013 		orr	r3, r3, #1048576
  79              	.LVL6:
 104:Generated_Source\PSoC5/CAN_Rx_TX_RX_func.c ****                             CAN_Rx_SET_TX_ID_EXTENDED_MSG(i, message->id);
  80              		.loc 1 104 0
  81 0034 2649     		ldr	r1, .L22+4
  82 0036 01EB0211 		add	r1, r1, r2, lsl #4
  83 003a 0468     		ldr	r4, [r0]
  84 003c E400     		lsls	r4, r4, #3
  85 003e 4C60     		str	r4, [r1, #4]
  86              	.L6:
 105:Generated_Source\PSoC5/CAN_Rx_TX_RX_func.c ****                         }
 106:Generated_Source\PSoC5/CAN_Rx_TX_RX_func.c **** 
 107:Generated_Source\PSoC5/CAN_Rx_TX_RX_func.c ****                         if (message->dlc < CAN_Rx_TX_DLC_MAX_VALUE)
  87              		.loc 1 107 0
  88 0040 90F806E0 		ldrb	lr, [r0, #6]	@ zero_extendqisi2
  89 0044 BEF1070F 		cmp	lr, #7
  90 0048 02D8     		bhi	.L7
 108:Generated_Source\PSoC5/CAN_Rx_TX_RX_func.c ****                         {
 109:Generated_Source\PSoC5/CAN_Rx_TX_RX_func.c ****                             regTemp |= ((uint32) message->dlc) << CAN_Rx_TWO_BYTE_OFFSET;
  91              		.loc 1 109 0
  92 004a 43EA0E4E 		orr	lr, r3, lr, lsl #16
  93              	.LVL7:
  94 004e 01E0     		b	.L8
  95              	.LVL8:
  96              	.L7:
 110:Generated_Source\PSoC5/CAN_Rx_TX_RX_func.c ****                         }
 111:Generated_Source\PSoC5/CAN_Rx_TX_RX_func.c ****                         else
 112:Generated_Source\PSoC5/CAN_Rx_TX_RX_func.c ****                         {
 113:Generated_Source\PSoC5/CAN_Rx_TX_RX_func.c ****                             regTemp |= CAN_Rx_TX_DLC_UPPER_VALUE;
  97              		.loc 1 113 0
  98 0050 43F4002E 		orr	lr, r3, #524288
  99              	.LVL9:
 100              	.L8:
 114:Generated_Source\PSoC5/CAN_Rx_TX_RX_func.c ****                         }
 115:Generated_Source\PSoC5/CAN_Rx_TX_RX_func.c **** 
 116:Generated_Source\PSoC5/CAN_Rx_TX_RX_func.c ****                         if (message->irq != CAN_Rx_TRANSMIT_INT_DISABLE)
 101              		.loc 1 116 0
 102 0054 C379     		ldrb	r3, [r0, #7]	@ zero_extendqisi2
 103 0056 0BB1     		cbz	r3, .L9
 117:Generated_Source\PSoC5/CAN_Rx_TX_RX_func.c ****                         {
 118:Generated_Source\PSoC5/CAN_Rx_TX_RX_func.c ****                             regTemp |= CAN_Rx_TX_INT_ENABLE_MASK;    /* Transmit Interrupt Enable *
 104              		.loc 1 118 0
 105 0058 4EF0040E 		orr	lr, lr, #4
 106              	.LVL10:
 107              	.L9:
 119:Generated_Source\PSoC5/CAN_Rx_TX_RX_func.c ****                         }
 120:Generated_Source\PSoC5/CAN_Rx_TX_RX_func.c **** 
ARM GAS  C:\Users\Reza\AppData\Local\Temp\ccxA9TIB.s 			page 5


 121:Generated_Source\PSoC5/CAN_Rx_TX_RX_func.c ****                         for (j = 0u; (j < message->dlc) && (j < CAN_Rx_TX_DLC_MAX_VALUE); j++)
 108              		.loc 1 121 0
 109 005c 0023     		movs	r3, #0
 110 005e 0FE0     		b	.L10
 111              	.LVL11:
 112              	.L14:
 122:Generated_Source\PSoC5/CAN_Rx_TX_RX_func.c ****                         {
 123:Generated_Source\PSoC5/CAN_Rx_TX_RX_func.c ****                             #if (CY_PSOC3 || CY_PSOC5)
 124:Generated_Source\PSoC5/CAN_Rx_TX_RX_func.c ****                                 CAN_Rx_TX_DATA_BYTE(i, j) = message->msg->byte[j];
 113              		.loc 1 124 0
 114 0060 1B49     		ldr	r1, .L22+4
 115 0062 01EB0214 		add	r4, r1, r2, lsl #4
 116 0066 032B     		cmp	r3, #3
 117 0068 02D9     		bls	.L11
 118              		.loc 1 124 0 is_stmt 0 discriminator 1
 119 006a C3F10B01 		rsb	r1, r3, #11
 120 006e 01E0     		b	.L12
 121              	.L11:
 122              		.loc 1 124 0 discriminator 2
 123 0070 C3F10301 		rsb	r1, r3, #3
 124              	.L12:
 125              		.loc 1 124 0 discriminator 4
 126 0074 8568     		ldr	r5, [r0, #8]
 127 0076 ED5C     		ldrb	r5, [r5, r3]	@ zero_extendqisi2
 128 0078 2144     		add	r1, r1, r4
 129 007a 0D72     		strb	r5, [r1, #8]
 121:Generated_Source\PSoC5/CAN_Rx_TX_RX_func.c ****                         {
 130              		.loc 1 121 0 is_stmt 1 discriminator 4
 131 007c 0133     		adds	r3, r3, #1
 132              	.LVL12:
 133 007e DBB2     		uxtb	r3, r3
 134              	.LVL13:
 135              	.L10:
 121:Generated_Source\PSoC5/CAN_Rx_TX_RX_func.c ****                         {
 136              		.loc 1 121 0 is_stmt 0 discriminator 2
 137 0080 8179     		ldrb	r1, [r0, #6]	@ zero_extendqisi2
 138 0082 8B42     		cmp	r3, r1
 139 0084 01D2     		bcs	.L13
 121:Generated_Source\PSoC5/CAN_Rx_TX_RX_func.c ****                         {
 140              		.loc 1 121 0 discriminator 3
 141 0086 072B     		cmp	r3, #7
 142 0088 EAD9     		bls	.L14
 143              	.L13:
 125:Generated_Source\PSoC5/CAN_Rx_TX_RX_func.c ****                             #else /* CY_PSOC4 */
 126:Generated_Source\PSoC5/CAN_Rx_TX_RX_func.c ****                                 CAN_Rx_TX_DATA_BYTE(i, j, message->msg->byte[j]);
 127:Generated_Source\PSoC5/CAN_Rx_TX_RX_func.c ****                             #endif /* CY_PSOC3 || CY_PSOC5 */
 128:Generated_Source\PSoC5/CAN_Rx_TX_RX_func.c ****                         }
 129:Generated_Source\PSoC5/CAN_Rx_TX_RX_func.c **** 
 130:Generated_Source\PSoC5/CAN_Rx_TX_RX_func.c ****                         /* Disable isr */
 131:Generated_Source\PSoC5/CAN_Rx_TX_RX_func.c ****     CyIntDisable(CAN_Rx_ISR_NUMBER);
 144              		.loc 1 131 0 is_stmt 1
 145 008a 4FF48034 		mov	r4, #65536
 146 008e 114B     		ldr	r3, .L22+8
 147              	.LVL14:
 148 0090 1C60     		str	r4, [r3]
 132:Generated_Source\PSoC5/CAN_Rx_TX_RX_func.c **** 
 133:Generated_Source\PSoC5/CAN_Rx_TX_RX_func.c ****                         /* WPN[23] and WPN[3] set to 1 for write to CAN Control reg */
ARM GAS  C:\Users\Reza\AppData\Local\Temp\ccxA9TIB.s 			page 6


 134:Generated_Source\PSoC5/CAN_Rx_TX_RX_func.c ****                         CY_SET_REG32(CAN_Rx_TX_CMD_PTR(i), (regTemp | CAN_Rx_TX_WPN_SET));
 149              		.loc 1 134 0
 150 0092 1101     		lsls	r1, r2, #4
 151 0094 0E4D     		ldr	r5, .L22+4
 152 0096 4EF40003 		orr	r3, lr, #8388608
 153 009a 43F00803 		orr	r3, r3, #8
 154 009e 4B51     		str	r3, [r1, r5]
 135:Generated_Source\PSoC5/CAN_Rx_TX_RX_func.c **** 
 136:Generated_Source\PSoC5/CAN_Rx_TX_RX_func.c ****                         #if (CY_PSOC3 || CY_PSOC5)
 137:Generated_Source\PSoC5/CAN_Rx_TX_RX_func.c ****                             CY_SET_REG32(CAN_Rx_TX_CMD_PTR(i), CAN_Rx_SEND_MESSAGE);
 155              		.loc 1 137 0
 156 00a0 0123     		movs	r3, #1
 157 00a2 4B51     		str	r3, [r1, r5]
 138:Generated_Source\PSoC5/CAN_Rx_TX_RX_func.c ****                         #else /* CY_PSOC4 */
 139:Generated_Source\PSoC5/CAN_Rx_TX_RX_func.c ****                             if (message->sst != CAN_Rx_STANDARD_MESSAGE)
 140:Generated_Source\PSoC5/CAN_Rx_TX_RX_func.c ****                             {
 141:Generated_Source\PSoC5/CAN_Rx_TX_RX_func.c ****                                 /* Single Shot Transmission */
 142:Generated_Source\PSoC5/CAN_Rx_TX_RX_func.c ****                                 CAN_Rx_TX_CMD_REG(i) |= CAN_Rx_SEND_MESSAGE |
 143:Generated_Source\PSoC5/CAN_Rx_TX_RX_func.c ****                                 CAN_Rx_TX_ABORT_MASK;
 144:Generated_Source\PSoC5/CAN_Rx_TX_RX_func.c ****                             }
 145:Generated_Source\PSoC5/CAN_Rx_TX_RX_func.c ****                             else
 146:Generated_Source\PSoC5/CAN_Rx_TX_RX_func.c ****                             {
 147:Generated_Source\PSoC5/CAN_Rx_TX_RX_func.c ****                                 CAN_Rx_TX_CMD_REG(i) |= CAN_Rx_SEND_MESSAGE;
 148:Generated_Source\PSoC5/CAN_Rx_TX_RX_func.c ****                             }
 149:Generated_Source\PSoC5/CAN_Rx_TX_RX_func.c ****                         #endif /* CY_PSOC3 || CY_PSOC5 */
 150:Generated_Source\PSoC5/CAN_Rx_TX_RX_func.c **** 
 151:Generated_Source\PSoC5/CAN_Rx_TX_RX_func.c ****                         /* Enable isr */
 152:Generated_Source\PSoC5/CAN_Rx_TX_RX_func.c ****     CyIntEnable(CAN_Rx_ISR_NUMBER);
 158              		.loc 1 152 0
 159 00a4 0C4B     		ldr	r3, .L22+12
 160 00a6 1C60     		str	r4, [r3]
 161              	.LVL15:
 153:Generated_Source\PSoC5/CAN_Rx_TX_RX_func.c **** 
 154:Generated_Source\PSoC5/CAN_Rx_TX_RX_func.c ****                         result = CYRET_SUCCESS;
 162              		.loc 1 154 0
 163 00a8 0021     		movs	r1, #0
 164              	.LVL16:
 165              	.L3:
 155:Generated_Source\PSoC5/CAN_Rx_TX_RX_func.c ****                     }
 156:Generated_Source\PSoC5/CAN_Rx_TX_RX_func.c ****             }
 157:Generated_Source\PSoC5/CAN_Rx_TX_RX_func.c ****             shift <<= 1u;
 166              		.loc 1 157 0
 167 00aa 7B00     		lsls	r3, r7, #1
 168 00ac DFB2     		uxtb	r7, r3
 169              	.LVL17:
 158:Generated_Source\PSoC5/CAN_Rx_TX_RX_func.c ****             if (result == CYRET_SUCCESS)
 170              		.loc 1 158 0
 171 00ae 31B1     		cbz	r1, .L15
  76:Generated_Source\PSoC5/CAN_Rx_TX_RX_func.c ****         {
 172              		.loc 1 76 0 discriminator 2
 173 00b0 0132     		adds	r2, r2, #1
 174              	.LVL18:
 175 00b2 D2B2     		uxtb	r2, r2
 176              	.LVL19:
 177 00b4 01E0     		b	.L18
 178              	.LVL20:
 179              	.L20:
ARM GAS  C:\Users\Reza\AppData\Local\Temp\ccxA9TIB.s 			page 7


 180 00b6 0127     		movs	r7, #1
 181 00b8 0022     		movs	r2, #0
 182              	.L18:
 183              	.LVL21:
  76:Generated_Source\PSoC5/CAN_Rx_TX_RX_func.c ****         {
 184              		.loc 1 76 0 is_stmt 0 discriminator 1
 185 00ba 072A     		cmp	r2, #7
 186 00bc A4D9     		bls	.L16
 187              	.L15:
 159:Generated_Source\PSoC5/CAN_Rx_TX_RX_func.c ****             {
 160:Generated_Source\PSoC5/CAN_Rx_TX_RX_func.c ****                 break;
 161:Generated_Source\PSoC5/CAN_Rx_TX_RX_func.c ****             }
 162:Generated_Source\PSoC5/CAN_Rx_TX_RX_func.c ****         }
 163:Generated_Source\PSoC5/CAN_Rx_TX_RX_func.c ****         if (result == CYRET_SUCCESS)
 188              		.loc 1 163 0 is_stmt 1
 189 00be 19B1     		cbz	r1, .L17
 164:Generated_Source\PSoC5/CAN_Rx_TX_RX_func.c ****         {
 165:Generated_Source\PSoC5/CAN_Rx_TX_RX_func.c ****             break;
 166:Generated_Source\PSoC5/CAN_Rx_TX_RX_func.c ****         }
 167:Generated_Source\PSoC5/CAN_Rx_TX_RX_func.c ****         else
 168:Generated_Source\PSoC5/CAN_Rx_TX_RX_func.c ****         {
 169:Generated_Source\PSoC5/CAN_Rx_TX_RX_func.c ****             retry++;
 190              		.loc 1 169 0
 191 00c0 0136     		adds	r6, r6, #1
 192              	.LVL22:
 193 00c2 F6B2     		uxtb	r6, r6
 194              	.LVL23:
 195              	.L2:
  73:Generated_Source\PSoC5/CAN_Rx_TX_RX_func.c ****     {
 196              		.loc 1 73 0
 197 00c4 022E     		cmp	r6, #2
 198 00c6 F6D9     		bls	.L20
 199              	.L17:
 170:Generated_Source\PSoC5/CAN_Rx_TX_RX_func.c ****         }
 171:Generated_Source\PSoC5/CAN_Rx_TX_RX_func.c ****     }
 172:Generated_Source\PSoC5/CAN_Rx_TX_RX_func.c **** 
 173:Generated_Source\PSoC5/CAN_Rx_TX_RX_func.c ****     return (result);
 174:Generated_Source\PSoC5/CAN_Rx_TX_RX_func.c **** }
 200              		.loc 1 174 0
 201 00c8 0846     		mov	r0, r1
 202              	.LVL24:
 203 00ca F0BD     		pop	{r4, r5, r6, r7, pc}
 204              	.LVL25:
 205              	.L23:
 206              		.align	2
 207              	.L22:
 208 00cc 08A00040 		.word	1073782792
 209 00d0 20A00040 		.word	1073782816
 210 00d4 80E100E0 		.word	-536813184
 211 00d8 00E100E0 		.word	-536813312
 212              		.cfi_endproc
 213              	.LFE68:
 214              		.size	CAN_Rx_SendMsg, .-CAN_Rx_SendMsg
 215              		.section	.text.CAN_Rx_TxCancel,"ax",%progbits
 216              		.align	2
 217              		.global	CAN_Rx_TxCancel
 218              		.thumb
ARM GAS  C:\Users\Reza\AppData\Local\Temp\ccxA9TIB.s 			page 8


 219              		.thumb_func
 220              		.type	CAN_Rx_TxCancel, %function
 221              	CAN_Rx_TxCancel:
 222              	.LFB69:
 175:Generated_Source\PSoC5/CAN_Rx_TX_RX_func.c **** 
 176:Generated_Source\PSoC5/CAN_Rx_TX_RX_func.c **** 
 177:Generated_Source\PSoC5/CAN_Rx_TX_RX_func.c **** /*******************************************************************************
 178:Generated_Source\PSoC5/CAN_Rx_TX_RX_func.c **** * FUNCTION NAME:   CAN_Rx_TxCancel
 179:Generated_Source\PSoC5/CAN_Rx_TX_RX_func.c **** ********************************************************************************
 180:Generated_Source\PSoC5/CAN_Rx_TX_RX_func.c **** *
 181:Generated_Source\PSoC5/CAN_Rx_TX_RX_func.c **** * Summary:
 182:Generated_Source\PSoC5/CAN_Rx_TX_RX_func.c **** *  This function cancels transmission of a message that has been queued to be
 183:Generated_Source\PSoC5/CAN_Rx_TX_RX_func.c **** *  transmitted. Values between 0 and 7 are valid.
 184:Generated_Source\PSoC5/CAN_Rx_TX_RX_func.c **** *
 185:Generated_Source\PSoC5/CAN_Rx_TX_RX_func.c **** * Parameters:
 186:Generated_Source\PSoC5/CAN_Rx_TX_RX_func.c **** *  bufferId: The mailbox number.
 187:Generated_Source\PSoC5/CAN_Rx_TX_RX_func.c **** *
 188:Generated_Source\PSoC5/CAN_Rx_TX_RX_func.c **** * Return:
 189:Generated_Source\PSoC5/CAN_Rx_TX_RX_func.c **** *  None.
 190:Generated_Source\PSoC5/CAN_Rx_TX_RX_func.c **** *
 191:Generated_Source\PSoC5/CAN_Rx_TX_RX_func.c **** *******************************************************************************/
 192:Generated_Source\PSoC5/CAN_Rx_TX_RX_func.c **** void CAN_Rx_TxCancel(uint8 bufferId) 
 193:Generated_Source\PSoC5/CAN_Rx_TX_RX_func.c **** {
 223              		.loc 1 193 0
 224              		.cfi_startproc
 225              		@ args = 0, pretend = 0, frame = 0
 226              		@ frame_needed = 0, uses_anonymous_args = 0
 227              		@ link register save eliminated.
 228              	.LVL26:
 194:Generated_Source\PSoC5/CAN_Rx_TX_RX_func.c ****     if (bufferId < CAN_Rx_NUMBER_OF_TX_MAILBOXES)
 229              		.loc 1 194 0
 230 0000 0728     		cmp	r0, #7
 231 0002 07D8     		bhi	.L24
 195:Generated_Source\PSoC5/CAN_Rx_TX_RX_func.c ****     {
 196:Generated_Source\PSoC5/CAN_Rx_TX_RX_func.c ****         CAN_Rx_TX_ABORT_MESSAGE(bufferId);
 232              		.loc 1 196 0
 233 0004 0001     		lsls	r0, r0, #4
 234              	.LVL27:
 235 0006 044A     		ldr	r2, .L26
 236 0008 835C     		ldrb	r3, [r0, r2]	@ zero_extendqisi2
 237 000a 03F0FC03 		and	r3, r3, #252
 238 000e 43F00203 		orr	r3, r3, #2
 239 0012 8354     		strb	r3, [r0, r2]
 240              	.L24:
 241 0014 7047     		bx	lr
 242              	.L27:
 243 0016 00BF     		.align	2
 244              	.L26:
 245 0018 20A00040 		.word	1073782816
 246              		.cfi_endproc
 247              	.LFE69:
 248              		.size	CAN_Rx_TxCancel, .-CAN_Rx_TxCancel
 249              		.section	.text.CAN_Rx_SendMsg0,"ax",%progbits
 250              		.align	2
 251              		.global	CAN_Rx_SendMsg0
 252              		.thumb
 253              		.thumb_func
ARM GAS  C:\Users\Reza\AppData\Local\Temp\ccxA9TIB.s 			page 9


 254              		.type	CAN_Rx_SendMsg0, %function
 255              	CAN_Rx_SendMsg0:
 256              	.LFB70:
 197:Generated_Source\PSoC5/CAN_Rx_TX_RX_func.c ****     }
 198:Generated_Source\PSoC5/CAN_Rx_TX_RX_func.c **** }
 199:Generated_Source\PSoC5/CAN_Rx_TX_RX_func.c **** 
 200:Generated_Source\PSoC5/CAN_Rx_TX_RX_func.c **** 
 201:Generated_Source\PSoC5/CAN_Rx_TX_RX_func.c **** #if (CAN_Rx_TX0_FUNC_ENABLE)
 202:Generated_Source\PSoC5/CAN_Rx_TX_RX_func.c ****     /*******************************************************************************
 203:Generated_Source\PSoC5/CAN_Rx_TX_RX_func.c ****     * FUNCTION NAME:   CAN_Rx_SendMsg0
 204:Generated_Source\PSoC5/CAN_Rx_TX_RX_func.c ****     ********************************************************************************
 205:Generated_Source\PSoC5/CAN_Rx_TX_RX_func.c ****     *
 206:Generated_Source\PSoC5/CAN_Rx_TX_RX_func.c ****     * Summary:
 207:Generated_Source\PSoC5/CAN_Rx_TX_RX_func.c ****     *  This function is the entry point to Transmit Message 0. The function checks
 208:Generated_Source\PSoC5/CAN_Rx_TX_RX_func.c ****     *  if mailbox 0 doesn't already have un-transmitted messages waiting for
 209:Generated_Source\PSoC5/CAN_Rx_TX_RX_func.c ****     *  arbitration. If not initiate transmission of the message.
 210:Generated_Source\PSoC5/CAN_Rx_TX_RX_func.c ****     *  Generated only for the Transmit mailbox designed as Full.
 211:Generated_Source\PSoC5/CAN_Rx_TX_RX_func.c ****     *
 212:Generated_Source\PSoC5/CAN_Rx_TX_RX_func.c ****     * Parameters:
 213:Generated_Source\PSoC5/CAN_Rx_TX_RX_func.c ****     *  None.
 214:Generated_Source\PSoC5/CAN_Rx_TX_RX_func.c ****     *
 215:Generated_Source\PSoC5/CAN_Rx_TX_RX_func.c ****     * Return:
 216:Generated_Source\PSoC5/CAN_Rx_TX_RX_func.c ****     *  Indication if Message has been sent.
 217:Generated_Source\PSoC5/CAN_Rx_TX_RX_func.c ****     *   Define                             Description
 218:Generated_Source\PSoC5/CAN_Rx_TX_RX_func.c ****     *    CYRET_SUCCESS                      The function passed successfully
 219:Generated_Source\PSoC5/CAN_Rx_TX_RX_func.c ****     *    CAN_Rx_FAIL              The function failed
 220:Generated_Source\PSoC5/CAN_Rx_TX_RX_func.c ****     *
 221:Generated_Source\PSoC5/CAN_Rx_TX_RX_func.c ****     *******************************************************************************/
 222:Generated_Source\PSoC5/CAN_Rx_TX_RX_func.c ****     uint8 CAN_Rx_SendMsg0(void) 
 223:Generated_Source\PSoC5/CAN_Rx_TX_RX_func.c ****     {
 257              		.loc 1 223 0
 258              		.cfi_startproc
 259              		@ args = 0, pretend = 0, frame = 0
 260              		@ frame_needed = 0, uses_anonymous_args = 0
 261              		@ link register save eliminated.
 262              	.LVL28:
 224:Generated_Source\PSoC5/CAN_Rx_TX_RX_func.c ****         uint8 result = CYRET_SUCCESS;
 225:Generated_Source\PSoC5/CAN_Rx_TX_RX_func.c **** 
 226:Generated_Source\PSoC5/CAN_Rx_TX_RX_func.c ****         #if (CY_PSOC3 || CY_PSOC5)
 227:Generated_Source\PSoC5/CAN_Rx_TX_RX_func.c ****             if ((CAN_Rx_TX[0u].txcmd.byte[0u] & CAN_Rx_TX_REQUEST_PENDING) != 0u)
 263              		.loc 1 227 0
 264 0000 064B     		ldr	r3, .L31
 265 0002 1B78     		ldrb	r3, [r3]	@ zero_extendqisi2
 266 0004 13F0010F 		tst	r3, #1
 267 0008 06D1     		bne	.L30
 228:Generated_Source\PSoC5/CAN_Rx_TX_RX_func.c ****         #else  /* CY_PSOC4 */
 229:Generated_Source\PSoC5/CAN_Rx_TX_RX_func.c ****             if ((CAN_Rx_TX_CMD_REG(0u) & CAN_Rx_TX_REQUEST_PENDING) != 0u)
 230:Generated_Source\PSoC5/CAN_Rx_TX_RX_func.c ****         #endif /* CY_PSOC3 || CY_PSOC5 */
 231:Generated_Source\PSoC5/CAN_Rx_TX_RX_func.c ****             {
 232:Generated_Source\PSoC5/CAN_Rx_TX_RX_func.c ****                 result = CAN_Rx_FAIL;
 233:Generated_Source\PSoC5/CAN_Rx_TX_RX_func.c ****             }
 234:Generated_Source\PSoC5/CAN_Rx_TX_RX_func.c ****             else
 235:Generated_Source\PSoC5/CAN_Rx_TX_RX_func.c ****             {
 236:Generated_Source\PSoC5/CAN_Rx_TX_RX_func.c ****                 /* `#START MESSAGE_0_TRASMITTED` */
 237:Generated_Source\PSoC5/CAN_Rx_TX_RX_func.c **** 
 238:Generated_Source\PSoC5/CAN_Rx_TX_RX_func.c ****                 /* `#END` */
 239:Generated_Source\PSoC5/CAN_Rx_TX_RX_func.c **** 
ARM GAS  C:\Users\Reza\AppData\Local\Temp\ccxA9TIB.s 			page 10


 240:Generated_Source\PSoC5/CAN_Rx_TX_RX_func.c ****                 #ifdef CAN_Rx_SEND_MSG_0_CALLBACK
 241:Generated_Source\PSoC5/CAN_Rx_TX_RX_func.c ****                     CAN_Rx_SendMsg_0_Callback();
 242:Generated_Source\PSoC5/CAN_Rx_TX_RX_func.c ****                 #endif /* CAN_Rx_SEND_MSG_0_CALLBACK */
 243:Generated_Source\PSoC5/CAN_Rx_TX_RX_func.c **** 
 244:Generated_Source\PSoC5/CAN_Rx_TX_RX_func.c ****                 CY_SET_REG32(CAN_Rx_TX_CMD_PTR(0u),
 268              		.loc 1 244 0
 269 000a 044A     		ldr	r2, .L31
 270 000c 1368     		ldr	r3, [r2]
 271 000e 43F00103 		orr	r3, r3, #1
 272 0012 1360     		str	r3, [r2]
 224:Generated_Source\PSoC5/CAN_Rx_TX_RX_func.c ****         uint8 result = CYRET_SUCCESS;
 273              		.loc 1 224 0
 274 0014 0020     		movs	r0, #0
 275 0016 7047     		bx	lr
 276              	.L30:
 232:Generated_Source\PSoC5/CAN_Rx_TX_RX_func.c ****             }
 277              		.loc 1 232 0
 278 0018 0120     		movs	r0, #1
 279              	.LVL29:
 245:Generated_Source\PSoC5/CAN_Rx_TX_RX_func.c ****                 CY_GET_REG32(CAN_Rx_TX_CMD_PTR(0u)) | CAN_Rx_SEND_MESSAGE);
 246:Generated_Source\PSoC5/CAN_Rx_TX_RX_func.c ****             }
 247:Generated_Source\PSoC5/CAN_Rx_TX_RX_func.c **** 
 248:Generated_Source\PSoC5/CAN_Rx_TX_RX_func.c ****         return (result);
 249:Generated_Source\PSoC5/CAN_Rx_TX_RX_func.c ****     }
 280              		.loc 1 249 0
 281 001a 7047     		bx	lr
 282              	.L32:
 283              		.align	2
 284              	.L31:
 285 001c 20A00040 		.word	1073782816
 286              		.cfi_endproc
 287              	.LFE70:
 288              		.size	CAN_Rx_SendMsg0, .-CAN_Rx_SendMsg0
 289              		.section	.text.CAN_Rx_SendMsgTx_message,"ax",%progbits
 290              		.align	2
 291              		.global	CAN_Rx_SendMsgTx_message
 292              		.thumb
 293              		.thumb_func
 294              		.type	CAN_Rx_SendMsgTx_message, %function
 295              	CAN_Rx_SendMsgTx_message:
 296              	.LFB71:
 250:Generated_Source\PSoC5/CAN_Rx_TX_RX_func.c **** #endif /* CAN_Rx_TX0_FUNC_ENABLE */
 251:Generated_Source\PSoC5/CAN_Rx_TX_RX_func.c **** 
 252:Generated_Source\PSoC5/CAN_Rx_TX_RX_func.c **** 
 253:Generated_Source\PSoC5/CAN_Rx_TX_RX_func.c **** #if (CAN_Rx_TX1_FUNC_ENABLE)
 254:Generated_Source\PSoC5/CAN_Rx_TX_RX_func.c ****     /*******************************************************************************
 255:Generated_Source\PSoC5/CAN_Rx_TX_RX_func.c ****     * FUNCTION NAME:   CAN_Rx_SendMsgTx_message
 256:Generated_Source\PSoC5/CAN_Rx_TX_RX_func.c ****     ********************************************************************************
 257:Generated_Source\PSoC5/CAN_Rx_TX_RX_func.c ****     *
 258:Generated_Source\PSoC5/CAN_Rx_TX_RX_func.c ****     * Summary:
 259:Generated_Source\PSoC5/CAN_Rx_TX_RX_func.c ****     *  This function is the entry point to Transmit Message 1. The function checks
 260:Generated_Source\PSoC5/CAN_Rx_TX_RX_func.c ****     *  if mailbox 1 doesn't already have un-transmitted messages waiting for
 261:Generated_Source\PSoC5/CAN_Rx_TX_RX_func.c ****     *  arbitration. If not initiate transmission of the message.
 262:Generated_Source\PSoC5/CAN_Rx_TX_RX_func.c ****     *  Generated only for the Transmit mailbox designed as Full.
 263:Generated_Source\PSoC5/CAN_Rx_TX_RX_func.c ****     *
 264:Generated_Source\PSoC5/CAN_Rx_TX_RX_func.c ****     * Parameters:
 265:Generated_Source\PSoC5/CAN_Rx_TX_RX_func.c ****     *  None.
ARM GAS  C:\Users\Reza\AppData\Local\Temp\ccxA9TIB.s 			page 11


 266:Generated_Source\PSoC5/CAN_Rx_TX_RX_func.c ****     *
 267:Generated_Source\PSoC5/CAN_Rx_TX_RX_func.c ****     * Return:
 268:Generated_Source\PSoC5/CAN_Rx_TX_RX_func.c ****     *  Indication if Message has been sent.
 269:Generated_Source\PSoC5/CAN_Rx_TX_RX_func.c ****     *   Define                             Description
 270:Generated_Source\PSoC5/CAN_Rx_TX_RX_func.c ****     *    CYRET_SUCCESS                      The function passed successfully
 271:Generated_Source\PSoC5/CAN_Rx_TX_RX_func.c ****     *    CAN_Rx_FAIL              The function failed
 272:Generated_Source\PSoC5/CAN_Rx_TX_RX_func.c ****     *
 273:Generated_Source\PSoC5/CAN_Rx_TX_RX_func.c ****     *******************************************************************************/
 274:Generated_Source\PSoC5/CAN_Rx_TX_RX_func.c ****     uint8 CAN_Rx_SendMsgTx_message(void) 
 275:Generated_Source\PSoC5/CAN_Rx_TX_RX_func.c ****     {
 297              		.loc 1 275 0
 298              		.cfi_startproc
 299              		@ args = 0, pretend = 0, frame = 0
 300              		@ frame_needed = 0, uses_anonymous_args = 0
 301 0000 08B5     		push	{r3, lr}
 302              		.cfi_def_cfa_offset 8
 303              		.cfi_offset 3, -8
 304              		.cfi_offset 14, -4
 305              	.LVL30:
 276:Generated_Source\PSoC5/CAN_Rx_TX_RX_func.c ****         uint8 result = CYRET_SUCCESS;
 277:Generated_Source\PSoC5/CAN_Rx_TX_RX_func.c **** 
 278:Generated_Source\PSoC5/CAN_Rx_TX_RX_func.c ****         #if (CY_PSOC3 || CY_PSOC5)
 279:Generated_Source\PSoC5/CAN_Rx_TX_RX_func.c ****             if ((CAN_Rx_TX[1u].txcmd.byte[0u] & CAN_Rx_TX_REQUEST_PENDING) != 0u)
 306              		.loc 1 279 0
 307 0002 084B     		ldr	r3, .L37
 308 0004 1B78     		ldrb	r3, [r3]	@ zero_extendqisi2
 309 0006 13F0010F 		tst	r3, #1
 310 000a 09D1     		bne	.L35
 280:Generated_Source\PSoC5/CAN_Rx_TX_RX_func.c ****         #else  /* CY_PSOC4 */
 281:Generated_Source\PSoC5/CAN_Rx_TX_RX_func.c ****             if ((CAN_Rx_TX_CMD_REG(1u) & CAN_Rx_TX_REQUEST_PENDING) != 0u)
 282:Generated_Source\PSoC5/CAN_Rx_TX_RX_func.c ****         #endif /* CY_PSOC3 || CY_PSOC5 */
 283:Generated_Source\PSoC5/CAN_Rx_TX_RX_func.c ****             {
 284:Generated_Source\PSoC5/CAN_Rx_TX_RX_func.c ****                 result = CAN_Rx_FAIL;
 285:Generated_Source\PSoC5/CAN_Rx_TX_RX_func.c ****             }
 286:Generated_Source\PSoC5/CAN_Rx_TX_RX_func.c ****             else
 287:Generated_Source\PSoC5/CAN_Rx_TX_RX_func.c ****             {
 288:Generated_Source\PSoC5/CAN_Rx_TX_RX_func.c ****                 /* `#START MESSAGE_Tx_message_TRASMITTED` */
 289:Generated_Source\PSoC5/CAN_Rx_TX_RX_func.c ****                 UART_LOG_PutString("CAN_Rx_SendMsgTx_message\n");
 311              		.loc 1 289 0
 312 000c 0648     		ldr	r0, .L37+4
 313 000e FFF7FEFF 		bl	UART_LOG_PutString
 314              	.LVL31:
 290:Generated_Source\PSoC5/CAN_Rx_TX_RX_func.c ****                 //CAN_Rx_TX_DATA_BYTE1(1) = CAN_Data;
 291:Generated_Source\PSoC5/CAN_Rx_TX_RX_func.c **** 
 292:Generated_Source\PSoC5/CAN_Rx_TX_RX_func.c ****                 /* `#END` */
 293:Generated_Source\PSoC5/CAN_Rx_TX_RX_func.c **** 
 294:Generated_Source\PSoC5/CAN_Rx_TX_RX_func.c ****                 #ifdef CAN_Rx_SEND_MSG_Tx_message_CALLBACK
 295:Generated_Source\PSoC5/CAN_Rx_TX_RX_func.c ****                     CAN_Rx_SendMsg_Tx_message_Callback();
 296:Generated_Source\PSoC5/CAN_Rx_TX_RX_func.c ****                 #endif /* CAN_Rx_SEND_MSG_Tx_message_CALLBACK */
 297:Generated_Source\PSoC5/CAN_Rx_TX_RX_func.c **** 
 298:Generated_Source\PSoC5/CAN_Rx_TX_RX_func.c ****                 CY_SET_REG32(CAN_Rx_TX_CMD_PTR(1u),
 315              		.loc 1 298 0
 316 0012 044A     		ldr	r2, .L37
 317 0014 1368     		ldr	r3, [r2]
 318 0016 43F00103 		orr	r3, r3, #1
 319 001a 1360     		str	r3, [r2]
 276:Generated_Source\PSoC5/CAN_Rx_TX_RX_func.c **** 
ARM GAS  C:\Users\Reza\AppData\Local\Temp\ccxA9TIB.s 			page 12


 320              		.loc 1 276 0
 321 001c 0020     		movs	r0, #0
 322 001e 08BD     		pop	{r3, pc}
 323              	.L35:
 284:Generated_Source\PSoC5/CAN_Rx_TX_RX_func.c ****             }
 324              		.loc 1 284 0
 325 0020 0120     		movs	r0, #1
 326              	.LVL32:
 299:Generated_Source\PSoC5/CAN_Rx_TX_RX_func.c ****                 CY_GET_REG32(CAN_Rx_TX_CMD_PTR(1u)) | CAN_Rx_SEND_MESSAGE);
 300:Generated_Source\PSoC5/CAN_Rx_TX_RX_func.c ****             }
 301:Generated_Source\PSoC5/CAN_Rx_TX_RX_func.c **** 
 302:Generated_Source\PSoC5/CAN_Rx_TX_RX_func.c ****         return (result);
 303:Generated_Source\PSoC5/CAN_Rx_TX_RX_func.c ****     }
 327              		.loc 1 303 0
 328 0022 08BD     		pop	{r3, pc}
 329              	.L38:
 330              		.align	2
 331              	.L37:
 332 0024 30A00040 		.word	1073782832
 333 0028 00000000 		.word	.LC0
 334              		.cfi_endproc
 335              	.LFE71:
 336              		.size	CAN_Rx_SendMsgTx_message, .-CAN_Rx_SendMsgTx_message
 337              		.section	.text.CAN_Rx_ReceiveMsg,"ax",%progbits
 338              		.align	2
 339              		.global	CAN_Rx_ReceiveMsg
 340              		.thumb
 341              		.thumb_func
 342              		.type	CAN_Rx_ReceiveMsg, %function
 343              	CAN_Rx_ReceiveMsg:
 344              	.LFB72:
 304:Generated_Source\PSoC5/CAN_Rx_TX_RX_func.c **** #endif /* CAN_Rx_TX1_FUNC_ENABLE */
 305:Generated_Source\PSoC5/CAN_Rx_TX_RX_func.c **** 
 306:Generated_Source\PSoC5/CAN_Rx_TX_RX_func.c **** 
 307:Generated_Source\PSoC5/CAN_Rx_TX_RX_func.c **** #if (CAN_Rx_TX2_FUNC_ENABLE)
 308:Generated_Source\PSoC5/CAN_Rx_TX_RX_func.c ****     /*******************************************************************************
 309:Generated_Source\PSoC5/CAN_Rx_TX_RX_func.c ****     * FUNCTION NAME:   CAN_Rx_SendMsg2
 310:Generated_Source\PSoC5/CAN_Rx_TX_RX_func.c ****     ********************************************************************************
 311:Generated_Source\PSoC5/CAN_Rx_TX_RX_func.c ****     *
 312:Generated_Source\PSoC5/CAN_Rx_TX_RX_func.c ****     * Summary:
 313:Generated_Source\PSoC5/CAN_Rx_TX_RX_func.c ****     *  This function is the entry point to Transmit Message 2. The function checks
 314:Generated_Source\PSoC5/CAN_Rx_TX_RX_func.c ****     *  if mailbox 2 doesn't already have un-transmitted messages waiting for
 315:Generated_Source\PSoC5/CAN_Rx_TX_RX_func.c ****     *  arbitration. If not initiate transmission of the message.
 316:Generated_Source\PSoC5/CAN_Rx_TX_RX_func.c ****     *  Generated only for the Transmit mailbox designed as Full.
 317:Generated_Source\PSoC5/CAN_Rx_TX_RX_func.c ****     *
 318:Generated_Source\PSoC5/CAN_Rx_TX_RX_func.c ****     * Parameters:
 319:Generated_Source\PSoC5/CAN_Rx_TX_RX_func.c ****     *  None.
 320:Generated_Source\PSoC5/CAN_Rx_TX_RX_func.c ****     *
 321:Generated_Source\PSoC5/CAN_Rx_TX_RX_func.c ****     * Return:
 322:Generated_Source\PSoC5/CAN_Rx_TX_RX_func.c ****     *  Indication if Message has been sent.
 323:Generated_Source\PSoC5/CAN_Rx_TX_RX_func.c ****     *   Define                             Description
 324:Generated_Source\PSoC5/CAN_Rx_TX_RX_func.c ****     *    CYRET_SUCCESS                      The function passed successfully
 325:Generated_Source\PSoC5/CAN_Rx_TX_RX_func.c ****     *    CAN_Rx_FAIL              The function failed
 326:Generated_Source\PSoC5/CAN_Rx_TX_RX_func.c ****     *
 327:Generated_Source\PSoC5/CAN_Rx_TX_RX_func.c ****     *******************************************************************************/
 328:Generated_Source\PSoC5/CAN_Rx_TX_RX_func.c ****     uint8 CAN_Rx_SendMsg2(void) 
 329:Generated_Source\PSoC5/CAN_Rx_TX_RX_func.c ****     {
ARM GAS  C:\Users\Reza\AppData\Local\Temp\ccxA9TIB.s 			page 13


 330:Generated_Source\PSoC5/CAN_Rx_TX_RX_func.c ****         uint8 result = CYRET_SUCCESS;
 331:Generated_Source\PSoC5/CAN_Rx_TX_RX_func.c **** 
 332:Generated_Source\PSoC5/CAN_Rx_TX_RX_func.c ****         #if (CY_PSOC3 || CY_PSOC5)
 333:Generated_Source\PSoC5/CAN_Rx_TX_RX_func.c ****             if ((CAN_Rx_TX[2u].txcmd.byte[0u] & CAN_Rx_TX_REQUEST_PENDING) != 0u)
 334:Generated_Source\PSoC5/CAN_Rx_TX_RX_func.c ****         #else  /* CY_PSOC4 */
 335:Generated_Source\PSoC5/CAN_Rx_TX_RX_func.c ****             if ((CAN_Rx_TX_CMD_REG(2u) & CAN_Rx_TX_REQUEST_PENDING) != 0u)
 336:Generated_Source\PSoC5/CAN_Rx_TX_RX_func.c ****         #endif /* CY_PSOC3 || CY_PSOC5 */
 337:Generated_Source\PSoC5/CAN_Rx_TX_RX_func.c ****             {
 338:Generated_Source\PSoC5/CAN_Rx_TX_RX_func.c ****                 result = CAN_Rx_FAIL;
 339:Generated_Source\PSoC5/CAN_Rx_TX_RX_func.c ****             }
 340:Generated_Source\PSoC5/CAN_Rx_TX_RX_func.c ****             else
 341:Generated_Source\PSoC5/CAN_Rx_TX_RX_func.c ****             {
 342:Generated_Source\PSoC5/CAN_Rx_TX_RX_func.c ****                 /* `#START MESSAGE_2_TRASMITTED` */
 343:Generated_Source\PSoC5/CAN_Rx_TX_RX_func.c **** 
 344:Generated_Source\PSoC5/CAN_Rx_TX_RX_func.c ****                 /* `#END` */
 345:Generated_Source\PSoC5/CAN_Rx_TX_RX_func.c **** 
 346:Generated_Source\PSoC5/CAN_Rx_TX_RX_func.c ****                 #ifdef CAN_Rx_SEND_MSG_2_CALLBACK
 347:Generated_Source\PSoC5/CAN_Rx_TX_RX_func.c ****                     CAN_Rx_SendMsg_2_Callback();
 348:Generated_Source\PSoC5/CAN_Rx_TX_RX_func.c ****                 #endif /* CAN_Rx_SEND_MSG_2_CALLBACK */
 349:Generated_Source\PSoC5/CAN_Rx_TX_RX_func.c **** 
 350:Generated_Source\PSoC5/CAN_Rx_TX_RX_func.c ****                 CY_SET_REG32(CAN_Rx_TX_CMD_PTR(2u),
 351:Generated_Source\PSoC5/CAN_Rx_TX_RX_func.c ****                 CY_GET_REG32(CAN_Rx_TX_CMD_PTR(2u)) | CAN_Rx_SEND_MESSAGE);
 352:Generated_Source\PSoC5/CAN_Rx_TX_RX_func.c ****             }
 353:Generated_Source\PSoC5/CAN_Rx_TX_RX_func.c **** 
 354:Generated_Source\PSoC5/CAN_Rx_TX_RX_func.c ****         return (result);
 355:Generated_Source\PSoC5/CAN_Rx_TX_RX_func.c ****     }
 356:Generated_Source\PSoC5/CAN_Rx_TX_RX_func.c **** #endif /* CAN_Rx_TX2_FUNC_ENABLE */
 357:Generated_Source\PSoC5/CAN_Rx_TX_RX_func.c **** 
 358:Generated_Source\PSoC5/CAN_Rx_TX_RX_func.c **** 
 359:Generated_Source\PSoC5/CAN_Rx_TX_RX_func.c **** #if (CAN_Rx_TX3_FUNC_ENABLE)
 360:Generated_Source\PSoC5/CAN_Rx_TX_RX_func.c ****     /*******************************************************************************
 361:Generated_Source\PSoC5/CAN_Rx_TX_RX_func.c ****     * FUNCTION NAME:   CAN_Rx_SendMsg3
 362:Generated_Source\PSoC5/CAN_Rx_TX_RX_func.c ****     ********************************************************************************
 363:Generated_Source\PSoC5/CAN_Rx_TX_RX_func.c ****     *
 364:Generated_Source\PSoC5/CAN_Rx_TX_RX_func.c ****     * Summary:
 365:Generated_Source\PSoC5/CAN_Rx_TX_RX_func.c ****     *  This function is the entry point to Transmit Message 3. The function checks
 366:Generated_Source\PSoC5/CAN_Rx_TX_RX_func.c ****     *  if mailbox 3 doesn't already have un-transmitted messages waiting for
 367:Generated_Source\PSoC5/CAN_Rx_TX_RX_func.c ****     *  arbitration. If not initiate transmission of the message.
 368:Generated_Source\PSoC5/CAN_Rx_TX_RX_func.c ****     *  Generated only for the Transmit mailbox designed as Full.
 369:Generated_Source\PSoC5/CAN_Rx_TX_RX_func.c ****     *
 370:Generated_Source\PSoC5/CAN_Rx_TX_RX_func.c ****     * Parameters:
 371:Generated_Source\PSoC5/CAN_Rx_TX_RX_func.c ****     *  None.
 372:Generated_Source\PSoC5/CAN_Rx_TX_RX_func.c ****     *
 373:Generated_Source\PSoC5/CAN_Rx_TX_RX_func.c ****     * Return:
 374:Generated_Source\PSoC5/CAN_Rx_TX_RX_func.c ****     *  Indication if Message has been sent.
 375:Generated_Source\PSoC5/CAN_Rx_TX_RX_func.c ****     *   Define                             Description
 376:Generated_Source\PSoC5/CAN_Rx_TX_RX_func.c ****     *    CYRET_SUCCESS                      The function passed successfully
 377:Generated_Source\PSoC5/CAN_Rx_TX_RX_func.c ****     *    CAN_Rx_FAIL              The function failed
 378:Generated_Source\PSoC5/CAN_Rx_TX_RX_func.c ****     *
 379:Generated_Source\PSoC5/CAN_Rx_TX_RX_func.c ****     *******************************************************************************/
 380:Generated_Source\PSoC5/CAN_Rx_TX_RX_func.c ****     uint8 CAN_Rx_SendMsg3(void) 
 381:Generated_Source\PSoC5/CAN_Rx_TX_RX_func.c ****     {
 382:Generated_Source\PSoC5/CAN_Rx_TX_RX_func.c ****         uint8 result = CYRET_SUCCESS;
 383:Generated_Source\PSoC5/CAN_Rx_TX_RX_func.c **** 
 384:Generated_Source\PSoC5/CAN_Rx_TX_RX_func.c ****         #if (CY_PSOC3 || CY_PSOC5)
 385:Generated_Source\PSoC5/CAN_Rx_TX_RX_func.c ****             if ((CAN_Rx_TX[3u].txcmd.byte[0u] & CAN_Rx_TX_REQUEST_PENDING) != 0u)
 386:Generated_Source\PSoC5/CAN_Rx_TX_RX_func.c ****         #else  /* CY_PSOC4 */
ARM GAS  C:\Users\Reza\AppData\Local\Temp\ccxA9TIB.s 			page 14


 387:Generated_Source\PSoC5/CAN_Rx_TX_RX_func.c ****             if ((CAN_Rx_TX_CMD_REG(3u) & CAN_Rx_TX_REQUEST_PENDING) != 0u)
 388:Generated_Source\PSoC5/CAN_Rx_TX_RX_func.c ****         #endif /* CY_PSOC3 || CY_PSOC5 */
 389:Generated_Source\PSoC5/CAN_Rx_TX_RX_func.c ****             {
 390:Generated_Source\PSoC5/CAN_Rx_TX_RX_func.c ****                 result = CAN_Rx_FAIL;
 391:Generated_Source\PSoC5/CAN_Rx_TX_RX_func.c ****             }
 392:Generated_Source\PSoC5/CAN_Rx_TX_RX_func.c ****             else
 393:Generated_Source\PSoC5/CAN_Rx_TX_RX_func.c ****             {
 394:Generated_Source\PSoC5/CAN_Rx_TX_RX_func.c ****                 /* `#START MESSAGE_3_TRASMITTED` */
 395:Generated_Source\PSoC5/CAN_Rx_TX_RX_func.c **** 
 396:Generated_Source\PSoC5/CAN_Rx_TX_RX_func.c ****                 /* `#END` */
 397:Generated_Source\PSoC5/CAN_Rx_TX_RX_func.c **** 
 398:Generated_Source\PSoC5/CAN_Rx_TX_RX_func.c ****                 #ifdef CAN_Rx_SEND_MSG_3_CALLBACK
 399:Generated_Source\PSoC5/CAN_Rx_TX_RX_func.c ****                     CAN_Rx_SendMsg_3_Callback();
 400:Generated_Source\PSoC5/CAN_Rx_TX_RX_func.c ****                 #endif /* CAN_Rx_SEND_MSG_3_CALLBACK */
 401:Generated_Source\PSoC5/CAN_Rx_TX_RX_func.c **** 
 402:Generated_Source\PSoC5/CAN_Rx_TX_RX_func.c ****                 CY_SET_REG32(CAN_Rx_TX_CMD_PTR(3u),
 403:Generated_Source\PSoC5/CAN_Rx_TX_RX_func.c ****                 CY_GET_REG32(CAN_Rx_TX_CMD_PTR(3u)) | CAN_Rx_SEND_MESSAGE);
 404:Generated_Source\PSoC5/CAN_Rx_TX_RX_func.c ****             }
 405:Generated_Source\PSoC5/CAN_Rx_TX_RX_func.c **** 
 406:Generated_Source\PSoC5/CAN_Rx_TX_RX_func.c ****         return (result);
 407:Generated_Source\PSoC5/CAN_Rx_TX_RX_func.c ****     }
 408:Generated_Source\PSoC5/CAN_Rx_TX_RX_func.c **** #endif /* CAN_Rx_TX3_FUNC_ENABLE */
 409:Generated_Source\PSoC5/CAN_Rx_TX_RX_func.c **** 
 410:Generated_Source\PSoC5/CAN_Rx_TX_RX_func.c **** 
 411:Generated_Source\PSoC5/CAN_Rx_TX_RX_func.c **** #if (CAN_Rx_TX4_FUNC_ENABLE)
 412:Generated_Source\PSoC5/CAN_Rx_TX_RX_func.c ****     /*******************************************************************************
 413:Generated_Source\PSoC5/CAN_Rx_TX_RX_func.c ****     * FUNCTION NAME:   CAN_Rx_SendMsg4
 414:Generated_Source\PSoC5/CAN_Rx_TX_RX_func.c ****     ********************************************************************************
 415:Generated_Source\PSoC5/CAN_Rx_TX_RX_func.c ****     *
 416:Generated_Source\PSoC5/CAN_Rx_TX_RX_func.c ****     * Summary:
 417:Generated_Source\PSoC5/CAN_Rx_TX_RX_func.c ****     *  This function is the entry point to Transmit Message 4. The function checks
 418:Generated_Source\PSoC5/CAN_Rx_TX_RX_func.c ****     *  if mailbox 4 doesn't already have un-transmitted messages waiting for
 419:Generated_Source\PSoC5/CAN_Rx_TX_RX_func.c ****     *  arbitration. If not initiate transmission of the message.
 420:Generated_Source\PSoC5/CAN_Rx_TX_RX_func.c ****     *  Generated only for the Transmit mailbox designed as Full.
 421:Generated_Source\PSoC5/CAN_Rx_TX_RX_func.c ****     *
 422:Generated_Source\PSoC5/CAN_Rx_TX_RX_func.c ****     * Parameters:
 423:Generated_Source\PSoC5/CAN_Rx_TX_RX_func.c ****     *  None.
 424:Generated_Source\PSoC5/CAN_Rx_TX_RX_func.c ****     *
 425:Generated_Source\PSoC5/CAN_Rx_TX_RX_func.c ****     * Return:
 426:Generated_Source\PSoC5/CAN_Rx_TX_RX_func.c ****     *  Indication if Message has been sent.
 427:Generated_Source\PSoC5/CAN_Rx_TX_RX_func.c ****     *   Define                             Description
 428:Generated_Source\PSoC5/CAN_Rx_TX_RX_func.c ****     *    CYRET_SUCCESS                      The function passed successfully
 429:Generated_Source\PSoC5/CAN_Rx_TX_RX_func.c ****     *    CAN_Rx_FAIL              The function failed
 430:Generated_Source\PSoC5/CAN_Rx_TX_RX_func.c ****     *
 431:Generated_Source\PSoC5/CAN_Rx_TX_RX_func.c ****     *******************************************************************************/
 432:Generated_Source\PSoC5/CAN_Rx_TX_RX_func.c ****     uint8 CAN_Rx_SendMsg4(void) 
 433:Generated_Source\PSoC5/CAN_Rx_TX_RX_func.c ****     {
 434:Generated_Source\PSoC5/CAN_Rx_TX_RX_func.c ****         uint8 result = CYRET_SUCCESS;
 435:Generated_Source\PSoC5/CAN_Rx_TX_RX_func.c **** 
 436:Generated_Source\PSoC5/CAN_Rx_TX_RX_func.c ****         #if (CY_PSOC3 || CY_PSOC5)
 437:Generated_Source\PSoC5/CAN_Rx_TX_RX_func.c ****             if ((CAN_Rx_TX[4u].txcmd.byte[0u] & CAN_Rx_TX_REQUEST_PENDING) != 0u)
 438:Generated_Source\PSoC5/CAN_Rx_TX_RX_func.c ****         #else  /* CY_PSOC4 */
 439:Generated_Source\PSoC5/CAN_Rx_TX_RX_func.c ****             if ((CAN_Rx_TX_CMD_REG(4u) & CAN_Rx_TX_REQUEST_PENDING) != 0u)
 440:Generated_Source\PSoC5/CAN_Rx_TX_RX_func.c ****         #endif /* CY_PSOC3 || CY_PSOC5 */
 441:Generated_Source\PSoC5/CAN_Rx_TX_RX_func.c ****             {
 442:Generated_Source\PSoC5/CAN_Rx_TX_RX_func.c ****                 result = CAN_Rx_FAIL;
 443:Generated_Source\PSoC5/CAN_Rx_TX_RX_func.c ****             }
ARM GAS  C:\Users\Reza\AppData\Local\Temp\ccxA9TIB.s 			page 15


 444:Generated_Source\PSoC5/CAN_Rx_TX_RX_func.c ****             else
 445:Generated_Source\PSoC5/CAN_Rx_TX_RX_func.c ****             {
 446:Generated_Source\PSoC5/CAN_Rx_TX_RX_func.c ****                 /* `#START MESSAGE_4_TRASMITTED` */
 447:Generated_Source\PSoC5/CAN_Rx_TX_RX_func.c **** 
 448:Generated_Source\PSoC5/CAN_Rx_TX_RX_func.c ****                 /* `#END` */
 449:Generated_Source\PSoC5/CAN_Rx_TX_RX_func.c **** 
 450:Generated_Source\PSoC5/CAN_Rx_TX_RX_func.c ****                 #ifdef CAN_Rx_SEND_MSG_4_CALLBACK
 451:Generated_Source\PSoC5/CAN_Rx_TX_RX_func.c ****                     CAN_Rx_SendMsg_4_Callback();
 452:Generated_Source\PSoC5/CAN_Rx_TX_RX_func.c ****                 #endif /* CAN_Rx_SEND_MSG_4_CALLBACK */
 453:Generated_Source\PSoC5/CAN_Rx_TX_RX_func.c **** 
 454:Generated_Source\PSoC5/CAN_Rx_TX_RX_func.c ****                 CY_SET_REG32(CAN_Rx_TX_CMD_PTR(4u),
 455:Generated_Source\PSoC5/CAN_Rx_TX_RX_func.c ****                 CY_GET_REG32(CAN_Rx_TX_CMD_PTR(4u)) | CAN_Rx_SEND_MESSAGE);
 456:Generated_Source\PSoC5/CAN_Rx_TX_RX_func.c ****             }
 457:Generated_Source\PSoC5/CAN_Rx_TX_RX_func.c **** 
 458:Generated_Source\PSoC5/CAN_Rx_TX_RX_func.c ****         return (result);
 459:Generated_Source\PSoC5/CAN_Rx_TX_RX_func.c ****     }
 460:Generated_Source\PSoC5/CAN_Rx_TX_RX_func.c **** #endif /* CAN_Rx_TX4_FUNC_ENABLE */
 461:Generated_Source\PSoC5/CAN_Rx_TX_RX_func.c **** 
 462:Generated_Source\PSoC5/CAN_Rx_TX_RX_func.c **** 
 463:Generated_Source\PSoC5/CAN_Rx_TX_RX_func.c **** #if (CAN_Rx_TX5_FUNC_ENABLE)
 464:Generated_Source\PSoC5/CAN_Rx_TX_RX_func.c ****     /*******************************************************************************
 465:Generated_Source\PSoC5/CAN_Rx_TX_RX_func.c ****     * FUNCTION NAME:   CAN_Rx_SendMsg5
 466:Generated_Source\PSoC5/CAN_Rx_TX_RX_func.c ****     ********************************************************************************
 467:Generated_Source\PSoC5/CAN_Rx_TX_RX_func.c ****     *
 468:Generated_Source\PSoC5/CAN_Rx_TX_RX_func.c ****     * Summary:
 469:Generated_Source\PSoC5/CAN_Rx_TX_RX_func.c ****     *  This function is the entry point to Transmit Message 5. The function checks
 470:Generated_Source\PSoC5/CAN_Rx_TX_RX_func.c ****     *  if mailbox 5 doesn't already have un-transmitted messages waiting for
 471:Generated_Source\PSoC5/CAN_Rx_TX_RX_func.c ****     *  arbitration. If not initiate transmission of the message.
 472:Generated_Source\PSoC5/CAN_Rx_TX_RX_func.c ****     *  Generated only for the Transmit mailbox designed as Full.
 473:Generated_Source\PSoC5/CAN_Rx_TX_RX_func.c ****     *
 474:Generated_Source\PSoC5/CAN_Rx_TX_RX_func.c ****     * Parameters:
 475:Generated_Source\PSoC5/CAN_Rx_TX_RX_func.c ****     *  None.
 476:Generated_Source\PSoC5/CAN_Rx_TX_RX_func.c ****     *
 477:Generated_Source\PSoC5/CAN_Rx_TX_RX_func.c ****     * Return:
 478:Generated_Source\PSoC5/CAN_Rx_TX_RX_func.c ****     *  Indication if Message has been sent.
 479:Generated_Source\PSoC5/CAN_Rx_TX_RX_func.c ****     *   Define                             Description
 480:Generated_Source\PSoC5/CAN_Rx_TX_RX_func.c ****     *    CYRET_SUCCESS                      The function passed successfully
 481:Generated_Source\PSoC5/CAN_Rx_TX_RX_func.c ****     *    CAN_Rx_FAIL              The function failed
 482:Generated_Source\PSoC5/CAN_Rx_TX_RX_func.c ****     *
 483:Generated_Source\PSoC5/CAN_Rx_TX_RX_func.c ****     *******************************************************************************/
 484:Generated_Source\PSoC5/CAN_Rx_TX_RX_func.c ****     uint8 CAN_Rx_SendMsg5(void) 
 485:Generated_Source\PSoC5/CAN_Rx_TX_RX_func.c ****     {
 486:Generated_Source\PSoC5/CAN_Rx_TX_RX_func.c ****         uint8 result = CYRET_SUCCESS;
 487:Generated_Source\PSoC5/CAN_Rx_TX_RX_func.c **** 
 488:Generated_Source\PSoC5/CAN_Rx_TX_RX_func.c ****         #if (CY_PSOC3 || CY_PSOC5)
 489:Generated_Source\PSoC5/CAN_Rx_TX_RX_func.c ****             if ((CAN_Rx_TX[5u].txcmd.byte[0u] & CAN_Rx_TX_REQUEST_PENDING) != 0u)
 490:Generated_Source\PSoC5/CAN_Rx_TX_RX_func.c ****         #else  /* CY_PSOC4 */
 491:Generated_Source\PSoC5/CAN_Rx_TX_RX_func.c ****             if ((CAN_Rx_TX_CMD_REG(5u) & CAN_Rx_TX_REQUEST_PENDING) != 0u)
 492:Generated_Source\PSoC5/CAN_Rx_TX_RX_func.c ****         #endif /* CY_PSOC3 || CY_PSOC5 */
 493:Generated_Source\PSoC5/CAN_Rx_TX_RX_func.c ****             {
 494:Generated_Source\PSoC5/CAN_Rx_TX_RX_func.c ****                 result = CAN_Rx_FAIL;
 495:Generated_Source\PSoC5/CAN_Rx_TX_RX_func.c ****             }
 496:Generated_Source\PSoC5/CAN_Rx_TX_RX_func.c ****             else
 497:Generated_Source\PSoC5/CAN_Rx_TX_RX_func.c ****             {
 498:Generated_Source\PSoC5/CAN_Rx_TX_RX_func.c ****                 /* `#START MESSAGE_5_TRASMITTED` */
 499:Generated_Source\PSoC5/CAN_Rx_TX_RX_func.c **** 
 500:Generated_Source\PSoC5/CAN_Rx_TX_RX_func.c ****                 /* `#END` */
ARM GAS  C:\Users\Reza\AppData\Local\Temp\ccxA9TIB.s 			page 16


 501:Generated_Source\PSoC5/CAN_Rx_TX_RX_func.c **** 
 502:Generated_Source\PSoC5/CAN_Rx_TX_RX_func.c ****                 #ifdef CAN_Rx_SEND_MSG_5_CALLBACK
 503:Generated_Source\PSoC5/CAN_Rx_TX_RX_func.c ****                     CAN_Rx_SendMsg_5_Callback();
 504:Generated_Source\PSoC5/CAN_Rx_TX_RX_func.c ****                 #endif /* CAN_Rx_SEND_MSG_5_CALLBACK */
 505:Generated_Source\PSoC5/CAN_Rx_TX_RX_func.c **** 
 506:Generated_Source\PSoC5/CAN_Rx_TX_RX_func.c ****                 CY_SET_REG32(CAN_Rx_TX_CMD_PTR(5u),
 507:Generated_Source\PSoC5/CAN_Rx_TX_RX_func.c ****                 CY_GET_REG32(CAN_Rx_TX_CMD_PTR(5u)) | CAN_Rx_SEND_MESSAGE);
 508:Generated_Source\PSoC5/CAN_Rx_TX_RX_func.c ****             }
 509:Generated_Source\PSoC5/CAN_Rx_TX_RX_func.c **** 
 510:Generated_Source\PSoC5/CAN_Rx_TX_RX_func.c ****         return (result);
 511:Generated_Source\PSoC5/CAN_Rx_TX_RX_func.c ****     }
 512:Generated_Source\PSoC5/CAN_Rx_TX_RX_func.c **** #endif /* CAN_Rx_TX5_FUNC_ENABLE */
 513:Generated_Source\PSoC5/CAN_Rx_TX_RX_func.c **** 
 514:Generated_Source\PSoC5/CAN_Rx_TX_RX_func.c **** 
 515:Generated_Source\PSoC5/CAN_Rx_TX_RX_func.c **** #if (CAN_Rx_TX6_FUNC_ENABLE)
 516:Generated_Source\PSoC5/CAN_Rx_TX_RX_func.c ****     /*******************************************************************************
 517:Generated_Source\PSoC5/CAN_Rx_TX_RX_func.c ****     * FUNCTION NAME:   CAN_Rx_SendMsg6
 518:Generated_Source\PSoC5/CAN_Rx_TX_RX_func.c ****     ********************************************************************************
 519:Generated_Source\PSoC5/CAN_Rx_TX_RX_func.c ****     *
 520:Generated_Source\PSoC5/CAN_Rx_TX_RX_func.c ****     * Summary:
 521:Generated_Source\PSoC5/CAN_Rx_TX_RX_func.c ****     *  This function is the entry point to Transmit Message 6. The function checks
 522:Generated_Source\PSoC5/CAN_Rx_TX_RX_func.c ****     *  if mailbox 6 doesn't already have un-transmitted messages waiting for
 523:Generated_Source\PSoC5/CAN_Rx_TX_RX_func.c ****     *  arbitration. If not initiate transmission of the message.
 524:Generated_Source\PSoC5/CAN_Rx_TX_RX_func.c ****     *  Generated only for the Transmit mailbox designed as Full.
 525:Generated_Source\PSoC5/CAN_Rx_TX_RX_func.c ****     *
 526:Generated_Source\PSoC5/CAN_Rx_TX_RX_func.c ****     * Parameters:
 527:Generated_Source\PSoC5/CAN_Rx_TX_RX_func.c ****     *  None.
 528:Generated_Source\PSoC5/CAN_Rx_TX_RX_func.c ****     *
 529:Generated_Source\PSoC5/CAN_Rx_TX_RX_func.c ****     * Return:
 530:Generated_Source\PSoC5/CAN_Rx_TX_RX_func.c ****     *  Indication if Message has been sent.
 531:Generated_Source\PSoC5/CAN_Rx_TX_RX_func.c ****     *   Define                             Description
 532:Generated_Source\PSoC5/CAN_Rx_TX_RX_func.c ****     *    CYRET_SUCCESS                      The function passed successfully
 533:Generated_Source\PSoC5/CAN_Rx_TX_RX_func.c ****     *    CAN_Rx_FAIL              The function failed
 534:Generated_Source\PSoC5/CAN_Rx_TX_RX_func.c ****     *
 535:Generated_Source\PSoC5/CAN_Rx_TX_RX_func.c ****     *******************************************************************************/
 536:Generated_Source\PSoC5/CAN_Rx_TX_RX_func.c ****     uint8 CAN_Rx_SendMsg6(void) 
 537:Generated_Source\PSoC5/CAN_Rx_TX_RX_func.c ****     {
 538:Generated_Source\PSoC5/CAN_Rx_TX_RX_func.c ****         uint8 result = CYRET_SUCCESS;
 539:Generated_Source\PSoC5/CAN_Rx_TX_RX_func.c **** 
 540:Generated_Source\PSoC5/CAN_Rx_TX_RX_func.c ****         #if (CY_PSOC3 || CY_PSOC5)
 541:Generated_Source\PSoC5/CAN_Rx_TX_RX_func.c ****             if ((CAN_Rx_TX[6u].txcmd.byte[0u] & CAN_Rx_TX_REQUEST_PENDING) != 0u)
 542:Generated_Source\PSoC5/CAN_Rx_TX_RX_func.c ****         #else  /* CY_PSOC4 */
 543:Generated_Source\PSoC5/CAN_Rx_TX_RX_func.c ****             if ((CAN_Rx_TX_CMD_REG(6u) & CAN_Rx_TX_REQUEST_PENDING) != 0u)
 544:Generated_Source\PSoC5/CAN_Rx_TX_RX_func.c ****         #endif /* CY_PSOC3 || CY_PSOC5 */
 545:Generated_Source\PSoC5/CAN_Rx_TX_RX_func.c ****             {
 546:Generated_Source\PSoC5/CAN_Rx_TX_RX_func.c ****                 result = CAN_Rx_FAIL;
 547:Generated_Source\PSoC5/CAN_Rx_TX_RX_func.c ****             }
 548:Generated_Source\PSoC5/CAN_Rx_TX_RX_func.c ****             else
 549:Generated_Source\PSoC5/CAN_Rx_TX_RX_func.c ****             {
 550:Generated_Source\PSoC5/CAN_Rx_TX_RX_func.c ****                 /* `#START MESSAGE_6_TRASMITTED` */
 551:Generated_Source\PSoC5/CAN_Rx_TX_RX_func.c **** 
 552:Generated_Source\PSoC5/CAN_Rx_TX_RX_func.c ****                 /* `#END` */
 553:Generated_Source\PSoC5/CAN_Rx_TX_RX_func.c **** 
 554:Generated_Source\PSoC5/CAN_Rx_TX_RX_func.c ****                 #ifdef CAN_Rx_SEND_MSG_6_CALLBACK
 555:Generated_Source\PSoC5/CAN_Rx_TX_RX_func.c ****                     CAN_Rx_SendMsg_6_Callback();
 556:Generated_Source\PSoC5/CAN_Rx_TX_RX_func.c ****                 #endif /* CAN_Rx_SEND_MSG_6_CALLBACK */
 557:Generated_Source\PSoC5/CAN_Rx_TX_RX_func.c **** 
ARM GAS  C:\Users\Reza\AppData\Local\Temp\ccxA9TIB.s 			page 17


 558:Generated_Source\PSoC5/CAN_Rx_TX_RX_func.c ****                 CY_SET_REG32(CAN_Rx_TX_CMD_PTR(6u),
 559:Generated_Source\PSoC5/CAN_Rx_TX_RX_func.c ****                 CY_GET_REG32(CAN_Rx_TX_CMD_PTR(6u)) | CAN_Rx_SEND_MESSAGE);
 560:Generated_Source\PSoC5/CAN_Rx_TX_RX_func.c ****             }
 561:Generated_Source\PSoC5/CAN_Rx_TX_RX_func.c **** 
 562:Generated_Source\PSoC5/CAN_Rx_TX_RX_func.c ****         return (result);
 563:Generated_Source\PSoC5/CAN_Rx_TX_RX_func.c ****     }
 564:Generated_Source\PSoC5/CAN_Rx_TX_RX_func.c **** #endif /* CAN_Rx_TX6_FUNC_ENABLE */
 565:Generated_Source\PSoC5/CAN_Rx_TX_RX_func.c **** 
 566:Generated_Source\PSoC5/CAN_Rx_TX_RX_func.c **** 
 567:Generated_Source\PSoC5/CAN_Rx_TX_RX_func.c **** #if (CAN_Rx_TX7_FUNC_ENABLE)
 568:Generated_Source\PSoC5/CAN_Rx_TX_RX_func.c ****     /*******************************************************************************
 569:Generated_Source\PSoC5/CAN_Rx_TX_RX_func.c ****     * FUNCTION NAME:   CAN_Rx_SendMsg7)
 570:Generated_Source\PSoC5/CAN_Rx_TX_RX_func.c ****     ********************************************************************************
 571:Generated_Source\PSoC5/CAN_Rx_TX_RX_func.c ****     *
 572:Generated_Source\PSoC5/CAN_Rx_TX_RX_func.c ****     * Summary:
 573:Generated_Source\PSoC5/CAN_Rx_TX_RX_func.c ****     *  This function is the entry point to Transmit Message 7. The function checks
 574:Generated_Source\PSoC5/CAN_Rx_TX_RX_func.c ****     *  if mailbox 7 doesn't already have un-transmitted messages waiting for
 575:Generated_Source\PSoC5/CAN_Rx_TX_RX_func.c ****     *  arbitration. If not initiate transmission of the message.
 576:Generated_Source\PSoC5/CAN_Rx_TX_RX_func.c ****     *  Generated only for the Transmit mailbox designed as Full.
 577:Generated_Source\PSoC5/CAN_Rx_TX_RX_func.c ****     *
 578:Generated_Source\PSoC5/CAN_Rx_TX_RX_func.c ****     * Parameters:
 579:Generated_Source\PSoC5/CAN_Rx_TX_RX_func.c ****     *  None.
 580:Generated_Source\PSoC5/CAN_Rx_TX_RX_func.c ****     *
 581:Generated_Source\PSoC5/CAN_Rx_TX_RX_func.c ****     * Return:
 582:Generated_Source\PSoC5/CAN_Rx_TX_RX_func.c ****     *  Indication if Message has been sent.
 583:Generated_Source\PSoC5/CAN_Rx_TX_RX_func.c ****     *   Define                             Description
 584:Generated_Source\PSoC5/CAN_Rx_TX_RX_func.c ****     *    CYRET_SUCCESS                      The function passed successfully
 585:Generated_Source\PSoC5/CAN_Rx_TX_RX_func.c ****     *    CAN_Rx_FAIL              The function failed
 586:Generated_Source\PSoC5/CAN_Rx_TX_RX_func.c ****     *
 587:Generated_Source\PSoC5/CAN_Rx_TX_RX_func.c ****     *******************************************************************************/
 588:Generated_Source\PSoC5/CAN_Rx_TX_RX_func.c ****     uint8 CAN_Rx_SendMsg7(void) 
 589:Generated_Source\PSoC5/CAN_Rx_TX_RX_func.c ****     {
 590:Generated_Source\PSoC5/CAN_Rx_TX_RX_func.c ****         uint8 result = CYRET_SUCCESS;
 591:Generated_Source\PSoC5/CAN_Rx_TX_RX_func.c **** 
 592:Generated_Source\PSoC5/CAN_Rx_TX_RX_func.c ****         #if (CY_PSOC3 || CY_PSOC5)
 593:Generated_Source\PSoC5/CAN_Rx_TX_RX_func.c ****             if ((CAN_Rx_TX[7u].txcmd.byte[0u] & CAN_Rx_TX_REQUEST_PENDING) != 0u)
 594:Generated_Source\PSoC5/CAN_Rx_TX_RX_func.c ****         #else  /* CY_PSOC4 */
 595:Generated_Source\PSoC5/CAN_Rx_TX_RX_func.c ****             if ((CAN_Rx_TX_CMD_REG(7u) & CAN_Rx_TX_REQUEST_PENDING) != 0u)
 596:Generated_Source\PSoC5/CAN_Rx_TX_RX_func.c ****         #endif /* CY_PSOC3 || CY_PSOC5 */
 597:Generated_Source\PSoC5/CAN_Rx_TX_RX_func.c ****             {
 598:Generated_Source\PSoC5/CAN_Rx_TX_RX_func.c ****                 result = CAN_Rx_FAIL;
 599:Generated_Source\PSoC5/CAN_Rx_TX_RX_func.c ****             }
 600:Generated_Source\PSoC5/CAN_Rx_TX_RX_func.c ****             else
 601:Generated_Source\PSoC5/CAN_Rx_TX_RX_func.c ****             {
 602:Generated_Source\PSoC5/CAN_Rx_TX_RX_func.c ****                 /* `#START MESSAGE_7_TRASMITTED` */
 603:Generated_Source\PSoC5/CAN_Rx_TX_RX_func.c **** 
 604:Generated_Source\PSoC5/CAN_Rx_TX_RX_func.c ****                 /* `#END` */
 605:Generated_Source\PSoC5/CAN_Rx_TX_RX_func.c **** 
 606:Generated_Source\PSoC5/CAN_Rx_TX_RX_func.c ****                 #ifdef CAN_Rx_SEND_MSG_7_CALLBACK
 607:Generated_Source\PSoC5/CAN_Rx_TX_RX_func.c ****                     CAN_Rx_SendMsg_7_Callback();
 608:Generated_Source\PSoC5/CAN_Rx_TX_RX_func.c ****                 #endif /* CAN_Rx_SEND_MSG_7_CALLBACK */
 609:Generated_Source\PSoC5/CAN_Rx_TX_RX_func.c **** 
 610:Generated_Source\PSoC5/CAN_Rx_TX_RX_func.c ****                 CY_SET_REG32(CAN_Rx_TX_CMD_PTR(7u),
 611:Generated_Source\PSoC5/CAN_Rx_TX_RX_func.c ****                 CY_GET_REG32(CAN_Rx_TX_CMD_PTR(7u)) | CAN_Rx_SEND_MESSAGE);
 612:Generated_Source\PSoC5/CAN_Rx_TX_RX_func.c ****             }
 613:Generated_Source\PSoC5/CAN_Rx_TX_RX_func.c **** 
 614:Generated_Source\PSoC5/CAN_Rx_TX_RX_func.c ****         return (result);
ARM GAS  C:\Users\Reza\AppData\Local\Temp\ccxA9TIB.s 			page 18


 615:Generated_Source\PSoC5/CAN_Rx_TX_RX_func.c ****     }
 616:Generated_Source\PSoC5/CAN_Rx_TX_RX_func.c **** #endif /* CAN_Rx_TX7_FUNC_ENABLE */
 617:Generated_Source\PSoC5/CAN_Rx_TX_RX_func.c **** 
 618:Generated_Source\PSoC5/CAN_Rx_TX_RX_func.c **** 
 619:Generated_Source\PSoC5/CAN_Rx_TX_RX_func.c **** /*******************************************************************************
 620:Generated_Source\PSoC5/CAN_Rx_TX_RX_func.c **** * FUNCTION NAME:   CAN_Rx_ReceiveMsg
 621:Generated_Source\PSoC5/CAN_Rx_TX_RX_func.c **** ********************************************************************************
 622:Generated_Source\PSoC5/CAN_Rx_TX_RX_func.c **** *
 623:Generated_Source\PSoC5/CAN_Rx_TX_RX_func.c **** * Summary:
 624:Generated_Source\PSoC5/CAN_Rx_TX_RX_func.c **** *  This function is the entry point to Receive Message Interrupt for Basic
 625:Generated_Source\PSoC5/CAN_Rx_TX_RX_func.c **** *  mailboxes. Clears the Receive particular Message interrupt flag. Generated
 626:Generated_Source\PSoC5/CAN_Rx_TX_RX_func.c **** *  only if one of the Receive mailboxes is designed as Basic.
 627:Generated_Source\PSoC5/CAN_Rx_TX_RX_func.c **** *
 628:Generated_Source\PSoC5/CAN_Rx_TX_RX_func.c **** * Parameters:
 629:Generated_Source\PSoC5/CAN_Rx_TX_RX_func.c **** *  rxMailbox: The mailbox number that trig Receive Message Interrupt.
 630:Generated_Source\PSoC5/CAN_Rx_TX_RX_func.c **** *
 631:Generated_Source\PSoC5/CAN_Rx_TX_RX_func.c **** * Return:
 632:Generated_Source\PSoC5/CAN_Rx_TX_RX_func.c **** *  None.
 633:Generated_Source\PSoC5/CAN_Rx_TX_RX_func.c **** *
 634:Generated_Source\PSoC5/CAN_Rx_TX_RX_func.c **** * Reentrant:
 635:Generated_Source\PSoC5/CAN_Rx_TX_RX_func.c **** *  Depends on the Customer code.
 636:Generated_Source\PSoC5/CAN_Rx_TX_RX_func.c **** *
 637:Generated_Source\PSoC5/CAN_Rx_TX_RX_func.c **** *******************************************************************************/
 638:Generated_Source\PSoC5/CAN_Rx_TX_RX_func.c **** void CAN_Rx_ReceiveMsg(uint8 rxMailbox) 
 639:Generated_Source\PSoC5/CAN_Rx_TX_RX_func.c **** {
 345              		.loc 1 639 0
 346              		.cfi_startproc
 347              		@ args = 0, pretend = 0, frame = 0
 348              		@ frame_needed = 0, uses_anonymous_args = 0
 349              		@ link register save eliminated.
 350              	.LVL33:
 351 0000 70B4     		push	{r4, r5, r6}
 352              		.cfi_def_cfa_offset 12
 353              		.cfi_offset 4, -12
 354              		.cfi_offset 5, -8
 355              		.cfi_offset 6, -4
 640:Generated_Source\PSoC5/CAN_Rx_TX_RX_func.c ****     #if (CY_PSOC3 || CY_PSOC5)
 641:Generated_Source\PSoC5/CAN_Rx_TX_RX_func.c ****         if ((CAN_Rx_RX[rxMailbox].rxcmd.byte[0u] & CAN_Rx_RX_ACK_MSG) != 0u)
 356              		.loc 1 641 0
 357 0002 4001     		lsls	r0, r0, #5
 358              	.LVL34:
 359 0004 0F4E     		ldr	r6, .L46
 360 0006 8519     		adds	r5, r0, r6
 361 0008 835D     		ldrb	r3, [r0, r6]	@ zero_extendqisi2
 362 000a 13F0010F 		tst	r3, #1
 363 000e 17D0     		beq	.L39
 364              	.LVL35:
 365              	.LBB2:
 642:Generated_Source\PSoC5/CAN_Rx_TX_RX_func.c ****     #else  /* CY_PSOC4 */
 643:Generated_Source\PSoC5/CAN_Rx_TX_RX_func.c ****         if ((CAN_Rx_RX_CMD_REG(rxMailbox) & CAN_Rx_RX_ACK_MSG) != 0u)
 644:Generated_Source\PSoC5/CAN_Rx_TX_RX_func.c ****     #endif /* CY_PSOC3 || CY_PSOC5 */
 645:Generated_Source\PSoC5/CAN_Rx_TX_RX_func.c ****         {
 646:Generated_Source\PSoC5/CAN_Rx_TX_RX_func.c ****             /* `#START MESSAGE_BASIC_RECEIVED` */
 647:Generated_Source\PSoC5/CAN_Rx_TX_RX_func.c ****             uint8 bIndex=0;
 648:Generated_Source\PSoC5/CAN_Rx_TX_RX_func.c ****             uint8 bLength=0;
 649:Generated_Source\PSoC5/CAN_Rx_TX_RX_func.c ****             char data[20];
 650:Generated_Source\PSoC5/CAN_Rx_TX_RX_func.c ****             bLength = CAN_Rx_GET_DLC(rxMailbox);
ARM GAS  C:\Users\Reza\AppData\Local\Temp\ccxA9TIB.s 			page 19


 366              		.loc 1 650 0
 367 0010 AC78     		ldrb	r4, [r5, #2]	@ zero_extendqisi2
 368 0012 04F00F04 		and	r4, r4, #15
 369              	.LVL36:
 651:Generated_Source\PSoC5/CAN_Rx_TX_RX_func.c **** 
 652:Generated_Source\PSoC5/CAN_Rx_TX_RX_func.c ****                 for (bIndex=0;bIndex<bLength;bIndex++)
 370              		.loc 1 652 0
 371 0016 0023     		movs	r3, #0
 372 0018 0CE0     		b	.L41
 373              	.LVL37:
 374              	.L44:
 653:Generated_Source\PSoC5/CAN_Rx_TX_RX_func.c ****                 {
 654:Generated_Source\PSoC5/CAN_Rx_TX_RX_func.c ****                 LEDNumber = CAN_Rx_RX_DATA_BYTE(rxMailbox,bIndex);
 375              		.loc 1 654 0
 376 001a 032B     		cmp	r3, #3
 377 001c 02D9     		bls	.L42
 378              		.loc 1 654 0 is_stmt 0 discriminator 1
 379 001e C3F10B02 		rsb	r2, r3, #11
 380 0022 01E0     		b	.L43
 381              	.L42:
 382              		.loc 1 654 0 discriminator 2
 383 0024 C3F10302 		rsb	r2, r3, #3
 384              	.L43:
 385              		.loc 1 654 0 discriminator 4
 386 0028 2A44     		add	r2, r2, r5
 387 002a 117A     		ldrb	r1, [r2, #8]	@ zero_extendqisi2
 388 002c 064A     		ldr	r2, .L46+4
 389 002e 1170     		strb	r1, [r2]
 652:Generated_Source\PSoC5/CAN_Rx_TX_RX_func.c ****                 {
 390              		.loc 1 652 0 is_stmt 1 discriminator 4
 391 0030 0133     		adds	r3, r3, #1
 392              	.LVL38:
 393 0032 DBB2     		uxtb	r3, r3
 394              	.LVL39:
 395              	.L41:
 652:Generated_Source\PSoC5/CAN_Rx_TX_RX_func.c ****                 {
 396              		.loc 1 652 0 is_stmt 0 discriminator 2
 397 0034 A342     		cmp	r3, r4
 398 0036 F0D3     		bcc	.L44
 655:Generated_Source\PSoC5/CAN_Rx_TX_RX_func.c ****                 }
 656:Generated_Source\PSoC5/CAN_Rx_TX_RX_func.c **** 
 657:Generated_Source\PSoC5/CAN_Rx_TX_RX_func.c ****             /* `#END` */
 658:Generated_Source\PSoC5/CAN_Rx_TX_RX_func.c **** 
 659:Generated_Source\PSoC5/CAN_Rx_TX_RX_func.c ****             #ifdef CAN_Rx_RECEIVE_MSG_CALLBACK
 660:Generated_Source\PSoC5/CAN_Rx_TX_RX_func.c ****                 CAN_Rx_ReceiveMsg_Callback();
 661:Generated_Source\PSoC5/CAN_Rx_TX_RX_func.c ****             #endif /* CAN_Rx_RECEIVE_MSG_CALLBACK */
 662:Generated_Source\PSoC5/CAN_Rx_TX_RX_func.c **** 
 663:Generated_Source\PSoC5/CAN_Rx_TX_RX_func.c ****             #if (CY_PSOC3 || CY_PSOC5)
 664:Generated_Source\PSoC5/CAN_Rx_TX_RX_func.c ****                 CAN_Rx_RX[rxMailbox].rxcmd.byte[0u] |= CAN_Rx_RX_ACK_MSG;
 399              		.loc 1 664 0 is_stmt 1
 400 0038 835D     		ldrb	r3, [r0, r6]	@ zero_extendqisi2
 401              	.LVL40:
 402 003a 43F00103 		orr	r3, r3, #1
 403 003e 8355     		strb	r3, [r0, r6]
 404              	.LVL41:
 405              	.L39:
 406              	.LBE2:
ARM GAS  C:\Users\Reza\AppData\Local\Temp\ccxA9TIB.s 			page 20


 665:Generated_Source\PSoC5/CAN_Rx_TX_RX_func.c ****             #else  /* CY_PSOC4 */
 666:Generated_Source\PSoC5/CAN_Rx_TX_RX_func.c ****                 CAN_Rx_RX_CMD_REG(rxMailbox) |= CAN_Rx_RX_ACK_MSG;
 667:Generated_Source\PSoC5/CAN_Rx_TX_RX_func.c ****             #endif /* CY_PSOC3 || CY_PSOC5 */
 668:Generated_Source\PSoC5/CAN_Rx_TX_RX_func.c ****         }
 669:Generated_Source\PSoC5/CAN_Rx_TX_RX_func.c **** }
 407              		.loc 1 669 0
 408 0040 70BC     		pop	{r4, r5, r6}
 409              		.cfi_restore 6
 410              		.cfi_restore 5
 411              		.cfi_restore 4
 412              		.cfi_def_cfa_offset 0
 413 0042 7047     		bx	lr
 414              	.L47:
 415              		.align	2
 416              	.L46:
 417 0044 A0A00040 		.word	1073782944
 418 0048 00000000 		.word	LEDNumber
 419              		.cfi_endproc
 420              	.LFE72:
 421              		.size	CAN_Rx_ReceiveMsg, .-CAN_Rx_ReceiveMsg
 422              		.section	.rodata.str1.4,"aMS",%progbits,1
 423              		.align	2
 424              	.LC0:
 425 0000 43414E5F 		.ascii	"CAN_Rx_SendMsgTx_message\012\000"
 425      52785F53 
 425      656E644D 
 425      73675478 
 425      5F6D6573 
 426              		.text
 427              	.Letext0:
 428              		.file 2 "c:\\program files (x86)\\cypress\\psoc creator\\4.2\\psoc creator\\import\\gnu\\arm\\5.4.
 429              		.file 3 "c:\\program files (x86)\\cypress\\psoc creator\\4.2\\psoc creator\\import\\gnu\\arm\\5.4.
 430              		.file 4 "Generated_Source\\PSoC5\\cytypes.h"
 431              		.file 5 "Generated_Source\\PSoC5\\CAN_Rx.h"
 432              		.file 6 "Generated_Source\\PSoC5/core_cm3.h"
 433              		.file 7 "Generated_Source\\PSoC5/UART_LOG.h"