ARM GAS  C:\Users\Reza\AppData\Local\Temp\ccllsGQ4.s 			page 1


   1              		.syntax unified
   2              		.cpu cortex-m3
   3              		.fpu softvfp
   4              		.eabi_attribute 20, 1
   5              		.eabi_attribute 21, 1
   6              		.eabi_attribute 23, 3
   7              		.eabi_attribute 24, 1
   8              		.eabi_attribute 25, 1
   9              		.eabi_attribute 26, 1
  10              		.eabi_attribute 30, 1
  11              		.eabi_attribute 34, 1
  12              		.eabi_attribute 18, 4
  13              		.thumb
  14              		.syntax unified
  15              		.file	"heap_1.c"
  16              		.text
  17              	.Ltext0:
  18              		.cfi_sections	.debug_frame
  19              		.section	.text.pvPortMalloc,"ax",%progbits
  20              		.align	2
  21              		.global	pvPortMalloc
  22              		.thumb
  23              		.thumb_func
  24              		.type	pvPortMalloc, %function
  25              	pvPortMalloc:
  26              	.LFB68:
  27              		.file 1 "Source\\bsw\\FreeRTOS\\src\\heap_1.c"
   1:Source\bsw\FreeRTOS\src/heap_1.c **** /*
   2:Source\bsw\FreeRTOS\src/heap_1.c ****  * FreeRTOS Kernel V10.3.1
   3:Source\bsw\FreeRTOS\src/heap_1.c ****  * Copyright (C) 2020 Amazon.com, Inc. or its affiliates.  All Rights Reserved.
   4:Source\bsw\FreeRTOS\src/heap_1.c ****  *
   5:Source\bsw\FreeRTOS\src/heap_1.c ****  * Permission is hereby granted, free of charge, to any person obtaining a copy of
   6:Source\bsw\FreeRTOS\src/heap_1.c ****  * this software and associated documentation files (the "Software"), to deal in
   7:Source\bsw\FreeRTOS\src/heap_1.c ****  * the Software without restriction, including without limitation the rights to
   8:Source\bsw\FreeRTOS\src/heap_1.c ****  * use, copy, modify, merge, publish, distribute, sublicense, and/or sell copies of
   9:Source\bsw\FreeRTOS\src/heap_1.c ****  * the Software, and to permit persons to whom the Software is furnished to do so,
  10:Source\bsw\FreeRTOS\src/heap_1.c ****  * subject to the following conditions:
  11:Source\bsw\FreeRTOS\src/heap_1.c ****  *
  12:Source\bsw\FreeRTOS\src/heap_1.c ****  * The above copyright notice and this permission notice shall be included in all
  13:Source\bsw\FreeRTOS\src/heap_1.c ****  * copies or substantial portions of the Software.
  14:Source\bsw\FreeRTOS\src/heap_1.c ****  *
  15:Source\bsw\FreeRTOS\src/heap_1.c ****  * THE SOFTWARE IS PROVIDED "AS IS", WITHOUT WARRANTY OF ANY KIND, EXPRESS OR
  16:Source\bsw\FreeRTOS\src/heap_1.c ****  * IMPLIED, INCLUDING BUT NOT LIMITED TO THE WARRANTIES OF MERCHANTABILITY, FITNESS
  17:Source\bsw\FreeRTOS\src/heap_1.c ****  * FOR A PARTICULAR PURPOSE AND NONINFRINGEMENT. IN NO EVENT SHALL THE AUTHORS OR
  18:Source\bsw\FreeRTOS\src/heap_1.c ****  * COPYRIGHT HOLDERS BE LIABLE FOR ANY CLAIM, DAMAGES OR OTHER LIABILITY, WHETHER
  19:Source\bsw\FreeRTOS\src/heap_1.c ****  * IN AN ACTION OF CONTRACT, TORT OR OTHERWISE, ARISING FROM, OUT OF OR IN
  20:Source\bsw\FreeRTOS\src/heap_1.c ****  * CONNECTION WITH THE SOFTWARE OR THE USE OR OTHER DEALINGS IN THE SOFTWARE.
  21:Source\bsw\FreeRTOS\src/heap_1.c ****  *
  22:Source\bsw\FreeRTOS\src/heap_1.c ****  * http://www.FreeRTOS.org
  23:Source\bsw\FreeRTOS\src/heap_1.c ****  * http://aws.amazon.com/freertos
  24:Source\bsw\FreeRTOS\src/heap_1.c ****  *
  25:Source\bsw\FreeRTOS\src/heap_1.c ****  * 1 tab == 4 spaces!
  26:Source\bsw\FreeRTOS\src/heap_1.c ****  */
  27:Source\bsw\FreeRTOS\src/heap_1.c **** 
  28:Source\bsw\FreeRTOS\src/heap_1.c **** 
  29:Source\bsw\FreeRTOS\src/heap_1.c **** /*
  30:Source\bsw\FreeRTOS\src/heap_1.c ****  * The simplest possible implementation of pvPortMalloc().  Note that this
ARM GAS  C:\Users\Reza\AppData\Local\Temp\ccllsGQ4.s 			page 2


  31:Source\bsw\FreeRTOS\src/heap_1.c ****  * implementation does NOT allow allocated memory to be freed again.
  32:Source\bsw\FreeRTOS\src/heap_1.c ****  *
  33:Source\bsw\FreeRTOS\src/heap_1.c ****  * See heap_2.c, heap_3.c and heap_4.c for alternative implementations, and the
  34:Source\bsw\FreeRTOS\src/heap_1.c ****  * memory management pages of http://www.FreeRTOS.org for more information.
  35:Source\bsw\FreeRTOS\src/heap_1.c ****  */
  36:Source\bsw\FreeRTOS\src/heap_1.c **** #include <stdlib.h>
  37:Source\bsw\FreeRTOS\src/heap_1.c **** 
  38:Source\bsw\FreeRTOS\src/heap_1.c **** /* Defining MPU_WRAPPERS_INCLUDED_FROM_API_FILE prevents task.h from redefining
  39:Source\bsw\FreeRTOS\src/heap_1.c **** all the API functions to use the MPU wrappers.  That should only be done when
  40:Source\bsw\FreeRTOS\src/heap_1.c **** task.h is included from an application file. */
  41:Source\bsw\FreeRTOS\src/heap_1.c **** #define MPU_WRAPPERS_INCLUDED_FROM_API_FILE
  42:Source\bsw\FreeRTOS\src/heap_1.c **** 
  43:Source\bsw\FreeRTOS\src/heap_1.c **** #include "FreeRTOS.h"
  44:Source\bsw\FreeRTOS\src/heap_1.c **** #include "task.h"
  45:Source\bsw\FreeRTOS\src/heap_1.c **** 
  46:Source\bsw\FreeRTOS\src/heap_1.c **** #undef MPU_WRAPPERS_INCLUDED_FROM_API_FILE
  47:Source\bsw\FreeRTOS\src/heap_1.c **** 
  48:Source\bsw\FreeRTOS\src/heap_1.c **** #if( configSUPPORT_DYNAMIC_ALLOCATION == 0 )
  49:Source\bsw\FreeRTOS\src/heap_1.c **** 	#error This file must not be used if configSUPPORT_DYNAMIC_ALLOCATION is 0
  50:Source\bsw\FreeRTOS\src/heap_1.c **** #endif
  51:Source\bsw\FreeRTOS\src/heap_1.c **** 
  52:Source\bsw\FreeRTOS\src/heap_1.c **** /* A few bytes might be lost to byte aligning the heap start address. */
  53:Source\bsw\FreeRTOS\src/heap_1.c **** #define configADJUSTED_HEAP_SIZE	( configTOTAL_HEAP_SIZE - portBYTE_ALIGNMENT )
  54:Source\bsw\FreeRTOS\src/heap_1.c **** 
  55:Source\bsw\FreeRTOS\src/heap_1.c **** /* Allocate the memory for the heap. */
  56:Source\bsw\FreeRTOS\src/heap_1.c **** #if( configAPPLICATION_ALLOCATED_HEAP == 1 )
  57:Source\bsw\FreeRTOS\src/heap_1.c **** 	/* The application writer has already defined the array used for the RTOS
  58:Source\bsw\FreeRTOS\src/heap_1.c **** 	heap - probably so it can be placed in a special segment or address. */
  59:Source\bsw\FreeRTOS\src/heap_1.c **** 	extern uint8_t ucHeap[ configTOTAL_HEAP_SIZE ];
  60:Source\bsw\FreeRTOS\src/heap_1.c **** #else
  61:Source\bsw\FreeRTOS\src/heap_1.c **** 	static uint8_t ucHeap[ configTOTAL_HEAP_SIZE ];
  62:Source\bsw\FreeRTOS\src/heap_1.c **** #endif /* configAPPLICATION_ALLOCATED_HEAP */
  63:Source\bsw\FreeRTOS\src/heap_1.c **** 
  64:Source\bsw\FreeRTOS\src/heap_1.c **** /* Index into the ucHeap array. */
  65:Source\bsw\FreeRTOS\src/heap_1.c **** static size_t xNextFreeByte = ( size_t ) 0;
  66:Source\bsw\FreeRTOS\src/heap_1.c **** 
  67:Source\bsw\FreeRTOS\src/heap_1.c **** /*-----------------------------------------------------------*/
  68:Source\bsw\FreeRTOS\src/heap_1.c **** 
  69:Source\bsw\FreeRTOS\src/heap_1.c **** void *pvPortMalloc( size_t xWantedSize )
  70:Source\bsw\FreeRTOS\src/heap_1.c **** {
  28              		.loc 1 70 0
  29              		.cfi_startproc
  30              		@ args = 0, pretend = 0, frame = 0
  31              		@ frame_needed = 0, uses_anonymous_args = 0
  32              	.LVL0:
  33 0000 38B5     		push	{r3, r4, r5, lr}
  34              		.cfi_def_cfa_offset 16
  35              		.cfi_offset 3, -16
  36              		.cfi_offset 4, -12
  37              		.cfi_offset 5, -8
  38              		.cfi_offset 14, -4
  39 0002 0446     		mov	r4, r0
  40              	.LVL1:
  71:Source\bsw\FreeRTOS\src/heap_1.c **** void *pvReturn = NULL;
  72:Source\bsw\FreeRTOS\src/heap_1.c **** static uint8_t *pucAlignedHeap = NULL;
  73:Source\bsw\FreeRTOS\src/heap_1.c **** 
  74:Source\bsw\FreeRTOS\src/heap_1.c **** 	/* Ensure that blocks are always aligned to the required number of bytes. */
ARM GAS  C:\Users\Reza\AppData\Local\Temp\ccllsGQ4.s 			page 3


  75:Source\bsw\FreeRTOS\src/heap_1.c **** 	#if( portBYTE_ALIGNMENT != 1 )
  76:Source\bsw\FreeRTOS\src/heap_1.c **** 	{
  77:Source\bsw\FreeRTOS\src/heap_1.c **** 		if( xWantedSize & portBYTE_ALIGNMENT_MASK )
  41              		.loc 1 77 0
  42 0004 10F0070F 		tst	r0, #7
  43 0008 02D0     		beq	.L2
  78:Source\bsw\FreeRTOS\src/heap_1.c **** 		{
  79:Source\bsw\FreeRTOS\src/heap_1.c **** 			/* Byte alignment required. */
  80:Source\bsw\FreeRTOS\src/heap_1.c **** 			xWantedSize += ( portBYTE_ALIGNMENT - ( xWantedSize & portBYTE_ALIGNMENT_MASK ) );
  44              		.loc 1 80 0
  45 000a 20F00704 		bic	r4, r0, #7
  46 000e 0834     		adds	r4, r4, #8
  47              	.LVL2:
  48              	.L2:
  81:Source\bsw\FreeRTOS\src/heap_1.c **** 		}
  82:Source\bsw\FreeRTOS\src/heap_1.c **** 	}
  83:Source\bsw\FreeRTOS\src/heap_1.c **** 	#endif
  84:Source\bsw\FreeRTOS\src/heap_1.c **** 
  85:Source\bsw\FreeRTOS\src/heap_1.c **** 	vTaskSuspendAll();
  49              		.loc 1 85 0
  50 0010 FFF7FEFF 		bl	vTaskSuspendAll
  51              	.LVL3:
  86:Source\bsw\FreeRTOS\src/heap_1.c **** 	{
  87:Source\bsw\FreeRTOS\src/heap_1.c **** 		if( pucAlignedHeap == NULL )
  52              		.loc 1 87 0
  53 0014 114B     		ldr	r3, .L9
  54 0016 1B68     		ldr	r3, [r3]
  55 0018 2BB9     		cbnz	r3, .L3
  88:Source\bsw\FreeRTOS\src/heap_1.c **** 		{
  89:Source\bsw\FreeRTOS\src/heap_1.c **** 			/* Ensure the heap starts on a correctly aligned boundary. */
  90:Source\bsw\FreeRTOS\src/heap_1.c **** 			pucAlignedHeap = ( uint8_t * ) ( ( ( portPOINTER_SIZE_TYPE ) &ucHeap[ portBYTE_ALIGNMENT ] ) & (
  56              		.loc 1 90 0
  57 001a 104A     		ldr	r2, .L9
  58 001c 02F10C03 		add	r3, r2, #12
  59 0020 23F00703 		bic	r3, r3, #7
  60 0024 1360     		str	r3, [r2]
  61              	.L3:
  91:Source\bsw\FreeRTOS\src/heap_1.c **** 		}
  92:Source\bsw\FreeRTOS\src/heap_1.c **** 
  93:Source\bsw\FreeRTOS\src/heap_1.c **** 		/* Check there is enough room left for the allocation. */
  94:Source\bsw\FreeRTOS\src/heap_1.c **** 		if( ( ( xNextFreeByte + xWantedSize ) < configADJUSTED_HEAP_SIZE ) &&
  62              		.loc 1 94 0
  63 0026 0E4B     		ldr	r3, .L9+4
  64 0028 D3F83C39 		ldr	r3, [r3, #2364]
  65 002c 1C44     		add	r4, r4, r3
  66              	.LVL4:
  67 002e 47F6F772 		movw	r2, #32759
  68 0032 9442     		cmp	r4, r2
  69 0034 08D8     		bhi	.L6
  70              		.loc 1 94 0 is_stmt 0 discriminator 1
  71 0036 A342     		cmp	r3, r4
  72 0038 08D2     		bcs	.L7
  95:Source\bsw\FreeRTOS\src/heap_1.c **** 			( ( xNextFreeByte + xWantedSize ) > xNextFreeByte )	)/* Check for overflow. */
  96:Source\bsw\FreeRTOS\src/heap_1.c **** 		{
  97:Source\bsw\FreeRTOS\src/heap_1.c **** 			/* Return the next free byte then increment the index past this
  98:Source\bsw\FreeRTOS\src/heap_1.c **** 			block. */
  99:Source\bsw\FreeRTOS\src/heap_1.c **** 			pvReturn = pucAlignedHeap + xNextFreeByte;
ARM GAS  C:\Users\Reza\AppData\Local\Temp\ccllsGQ4.s 			page 4


  73              		.loc 1 99 0 is_stmt 1
  74 003a 084A     		ldr	r2, .L9
  75 003c 1568     		ldr	r5, [r2]
  76 003e 1D44     		add	r5, r5, r3
  77              	.LVL5:
 100:Source\bsw\FreeRTOS\src/heap_1.c **** 			xNextFreeByte += xWantedSize;
  78              		.loc 1 100 0
  79 0040 074B     		ldr	r3, .L9+4
  80 0042 C3F83C49 		str	r4, [r3, #2364]
  81 0046 02E0     		b	.L4
  82              	.LVL6:
  83              	.L6:
  71:Source\bsw\FreeRTOS\src/heap_1.c **** static uint8_t *pucAlignedHeap = NULL;
  84              		.loc 1 71 0
  85 0048 0025     		movs	r5, #0
  86 004a 00E0     		b	.L4
  87              	.L7:
  88 004c 0025     		movs	r5, #0
  89              	.LVL7:
  90              	.L4:
 101:Source\bsw\FreeRTOS\src/heap_1.c **** 		}
 102:Source\bsw\FreeRTOS\src/heap_1.c **** 
 103:Source\bsw\FreeRTOS\src/heap_1.c **** 		traceMALLOC( pvReturn, xWantedSize );
 104:Source\bsw\FreeRTOS\src/heap_1.c **** 	}
 105:Source\bsw\FreeRTOS\src/heap_1.c **** 	( void ) xTaskResumeAll();
  91              		.loc 1 105 0
  92 004e FFF7FEFF 		bl	xTaskResumeAll
  93              	.LVL8:
 106:Source\bsw\FreeRTOS\src/heap_1.c **** 
 107:Source\bsw\FreeRTOS\src/heap_1.c **** 	#if( configUSE_MALLOC_FAILED_HOOK == 1 )
 108:Source\bsw\FreeRTOS\src/heap_1.c **** 	{
 109:Source\bsw\FreeRTOS\src/heap_1.c **** 		if( pvReturn == NULL )
  94              		.loc 1 109 0
  95 0052 0DB9     		cbnz	r5, .L5
  96              	.LBB2:
 110:Source\bsw\FreeRTOS\src/heap_1.c **** 		{
 111:Source\bsw\FreeRTOS\src/heap_1.c **** 			extern void vApplicationMallocFailedHook( void );
 112:Source\bsw\FreeRTOS\src/heap_1.c **** 			vApplicationMallocFailedHook();
  97              		.loc 1 112 0
  98 0054 FFF7FEFF 		bl	vApplicationMallocFailedHook
  99              	.LVL9:
 100              	.L5:
 101              	.LBE2:
 113:Source\bsw\FreeRTOS\src/heap_1.c **** 		}
 114:Source\bsw\FreeRTOS\src/heap_1.c **** 	}
 115:Source\bsw\FreeRTOS\src/heap_1.c **** 	#endif
 116:Source\bsw\FreeRTOS\src/heap_1.c **** 
 117:Source\bsw\FreeRTOS\src/heap_1.c **** 	return pvReturn;
 118:Source\bsw\FreeRTOS\src/heap_1.c **** }
 102              		.loc 1 118 0
 103 0058 2846     		mov	r0, r5
 104 005a 38BD     		pop	{r3, r4, r5, pc}
 105              	.LVL10:
 106              	.L10:
 107              		.align	2
 108              	.L9:
 109 005c 00000000 		.word	.LANCHOR0
ARM GAS  C:\Users\Reza\AppData\Local\Temp\ccllsGQ4.s 			page 5


 110 0060 C8760000 		.word	.LANCHOR1
 111              		.cfi_endproc
 112              	.LFE68:
 113              		.size	pvPortMalloc, .-pvPortMalloc
 114              		.section	.text.vPortFree,"ax",%progbits
 115              		.align	2
 116              		.global	vPortFree
 117              		.thumb
 118              		.thumb_func
 119              		.type	vPortFree, %function
 120              	vPortFree:
 121              	.LFB69:
 119:Source\bsw\FreeRTOS\src/heap_1.c **** /*-----------------------------------------------------------*/
 120:Source\bsw\FreeRTOS\src/heap_1.c **** 
 121:Source\bsw\FreeRTOS\src/heap_1.c **** void vPortFree( void *pv )
 122:Source\bsw\FreeRTOS\src/heap_1.c **** {
 122              		.loc 1 122 0
 123              		.cfi_startproc
 124              		@ args = 0, pretend = 0, frame = 0
 125              		@ frame_needed = 0, uses_anonymous_args = 0
 126              		@ link register save eliminated.
 127              	.LVL11:
 128 0000 7047     		bx	lr
 129              		.cfi_endproc
 130              	.LFE69:
 131              		.size	vPortFree, .-vPortFree
 132 0002 00BF     		.section	.text.vPortInitialiseBlocks,"ax",%progbits
 133              		.align	2
 134              		.global	vPortInitialiseBlocks
 135              		.thumb
 136              		.thumb_func
 137              		.type	vPortInitialiseBlocks, %function
 138              	vPortInitialiseBlocks:
 139              	.LFB70:
 123:Source\bsw\FreeRTOS\src/heap_1.c **** 	/* Memory cannot be freed using this scheme.  See heap_2.c, heap_3.c and
 124:Source\bsw\FreeRTOS\src/heap_1.c **** 	heap_4.c for alternative implementations, and the memory management pages of
 125:Source\bsw\FreeRTOS\src/heap_1.c **** 	http://www.FreeRTOS.org for more information. */
 126:Source\bsw\FreeRTOS\src/heap_1.c **** 	( void ) pv;
 127:Source\bsw\FreeRTOS\src/heap_1.c **** 
 128:Source\bsw\FreeRTOS\src/heap_1.c **** 	/* Force an assert as it is invalid to call this function. */
 129:Source\bsw\FreeRTOS\src/heap_1.c **** 	configASSERT( pv == NULL );
 130:Source\bsw\FreeRTOS\src/heap_1.c **** }
 131:Source\bsw\FreeRTOS\src/heap_1.c **** /*-----------------------------------------------------------*/
 132:Source\bsw\FreeRTOS\src/heap_1.c **** 
 133:Source\bsw\FreeRTOS\src/heap_1.c **** void vPortInitialiseBlocks( void )
 134:Source\bsw\FreeRTOS\src/heap_1.c **** {
 140              		.loc 1 134 0
 141              		.cfi_startproc
 142              		@ args = 0, pretend = 0, frame = 0
 143              		@ frame_needed = 0, uses_anonymous_args = 0
 144              		@ link register save eliminated.
 135:Source\bsw\FreeRTOS\src/heap_1.c **** 	/* Only required when static memory is not cleared. */
 136:Source\bsw\FreeRTOS\src/heap_1.c **** 	xNextFreeByte = ( size_t ) 0;
 145              		.loc 1 136 0
 146 0000 0022     		movs	r2, #0
 147 0002 024B     		ldr	r3, .L13
 148 0004 C3F83C29 		str	r2, [r3, #2364]
ARM GAS  C:\Users\Reza\AppData\Local\Temp\ccllsGQ4.s 			page 6


 149 0008 7047     		bx	lr
 150              	.L14:
 151 000a 00BF     		.align	2
 152              	.L13:
 153 000c C8760000 		.word	.LANCHOR1
 154              		.cfi_endproc
 155              	.LFE70:
 156              		.size	vPortInitialiseBlocks, .-vPortInitialiseBlocks
 157              		.section	.text.xPortGetFreeHeapSize,"ax",%progbits
 158              		.align	2
 159              		.global	xPortGetFreeHeapSize
 160              		.thumb
 161              		.thumb_func
 162              		.type	xPortGetFreeHeapSize, %function
 163              	xPortGetFreeHeapSize:
 164              	.LFB71:
 137:Source\bsw\FreeRTOS\src/heap_1.c **** }
 138:Source\bsw\FreeRTOS\src/heap_1.c **** /*-----------------------------------------------------------*/
 139:Source\bsw\FreeRTOS\src/heap_1.c **** 
 140:Source\bsw\FreeRTOS\src/heap_1.c **** size_t xPortGetFreeHeapSize( void )
 141:Source\bsw\FreeRTOS\src/heap_1.c **** {
 165              		.loc 1 141 0
 166              		.cfi_startproc
 167              		@ args = 0, pretend = 0, frame = 0
 168              		@ frame_needed = 0, uses_anonymous_args = 0
 169              		@ link register save eliminated.
 142:Source\bsw\FreeRTOS\src/heap_1.c **** 	return ( configADJUSTED_HEAP_SIZE - xNextFreeByte );
 170              		.loc 1 142 0
 171 0000 034B     		ldr	r3, .L16
 172 0002 D3F83C09 		ldr	r0, [r3, #2364]
 143:Source\bsw\FreeRTOS\src/heap_1.c **** }
 173              		.loc 1 143 0
 174 0006 C0F5FF40 		rsb	r0, r0, #32640
 175 000a 7830     		adds	r0, r0, #120
 176 000c 7047     		bx	lr
 177              	.L17:
 178 000e 00BF     		.align	2
 179              	.L16:
 180 0010 C8760000 		.word	.LANCHOR1
 181              		.cfi_endproc
 182              	.LFE71:
 183              		.size	xPortGetFreeHeapSize, .-xPortGetFreeHeapSize
 184              		.bss
 185              		.align	2
 186              		.set	.LANCHOR0,. + 0
 187              		.set	.LANCHOR1,. + 30408
 188              		.type	pucAlignedHeap.6853, %object
 189              		.size	pucAlignedHeap.6853, 4
 190              	pucAlignedHeap.6853:
 191 0000 00000000 		.space	4
 192              		.type	ucHeap, %object
 193              		.size	ucHeap, 32768
 194              	ucHeap:
 195 0004 00000000 		.space	32768
 195      00000000 
 195      00000000 
 195      00000000 
ARM GAS  C:\Users\Reza\AppData\Local\Temp\ccllsGQ4.s 			page 7


 195      00000000 
 196              		.type	xNextFreeByte, %object
 197              		.size	xNextFreeByte, 4
 198              	xNextFreeByte:
 199 8004 00000000 		.space	4
 200              		.text
 201              	.Letext0:
 202              		.file 2 "c:\\program files (x86)\\cypress\\psoc creator\\4.2\\psoc creator\\import\\gnu\\arm\\5.4.
 203              		.file 3 "c:\\program files (x86)\\cypress\\psoc creator\\4.2\\psoc creator\\import\\gnu\\arm\\5.4.
 204              		.file 4 "c:\\program files (x86)\\cypress\\psoc creator\\4.2\\psoc creator\\import\\gnu\\arm\\5.4.
 205              		.file 5 ".\\Source\\bsw\\FreeRTOS\\include/task.h"
 206              		.file 6 "Generated_Source\\PSoC5/core_cm3.h"