ARM GAS  C:\Users\Reza\AppData\Local\Temp\ccN59Dve.s 			page 1


   1              		.syntax unified
   2              		.cpu cortex-m3
   3              		.fpu softvfp
   4              		.eabi_attribute 20, 1
   5              		.eabi_attribute 21, 1
   6              		.eabi_attribute 23, 3
   7              		.eabi_attribute 24, 1
   8              		.eabi_attribute 25, 1
   9              		.eabi_attribute 26, 1
  10              		.eabi_attribute 30, 1
  11              		.eabi_attribute 34, 1
  12              		.eabi_attribute 18, 4
  13              		.thumb
  14              		.syntax unified
  15              		.file	"main.c"
  16              		.text
  17              	.Ltext0:
  18              		.cfi_sections	.debug_frame
  19              		.section	.text.CAN_Rx_tsk,"ax",%progbits
  20              		.align	2
  21              		.global	CAN_Rx_tsk
  22              		.thumb
  23              		.thumb_func
  24              		.type	CAN_Rx_tsk, %function
  25              	CAN_Rx_tsk:
  26              	.LFB69:
  27              		.file 1 "Source\\asw\\main.c"
   1:Source\asw/main.c **** /* ========================================
   2:Source\asw/main.c ****  *
   3:Source\asw/main.c ****  * Copyright YOUR COMPANY, THE YEAR
   4:Source\asw/main.c ****  * All Rights Reserved
   5:Source\asw/main.c ****  * UNPUBLISHED, LICENSED SOFTWARE.
   6:Source\asw/main.c ****  *
   7:Source\asw/main.c ****  * CONFIDENTIAL AND PROPRIETARY INFORMATION
   8:Source\asw/main.c ****  * WHICH IS THE PROPERTY OF your company.
   9:Source\asw/main.c ****  *
  10:Source\asw/main.c ****  * ========================================
  11:Source\asw/main.c **** */
  12:Source\asw/main.c **** #include "project.h"
  13:Source\asw/main.c **** #include "FreeRTOS.h"
  14:Source\asw/main.c **** #include "task.h"
  15:Source\asw/main.c **** #include "timers.h"
  16:Source\asw/main.c **** #include "queue.h"
  17:Source\asw/main.c **** #include "semphr.h"
  18:Source\asw/main.c **** #include "portmacro.h"
  19:Source\asw/main.c **** #include "seven.h"
  20:Source\asw/main.c **** #include <stdio.h>
  21:Source\asw/main.c **** #include "ugui.h"
  22:Source\asw/main.c **** #include "ugui_st7735.h"
  23:Source\asw/main.c **** #include "queue.h"
  24:Source\asw/main.c **** #include "CAN_Rx.h"
  25:Source\asw/main.c **** 
  26:Source\asw/main.c **** uint8 CAN_Data = 0;
  27:Source\asw/main.c **** TaskHandle_t CANRxTASKHandler=NULL;
  28:Source\asw/main.c **** TaskHandle_t DataPrintTASKHandler=NULL;
  29:Source\asw/main.c **** TaskHandle_t DISPTASKHandler=NULL;
  30:Source\asw/main.c **** TaskHandle_t CANRemoteTxTASKHanler=NULL;
ARM GAS  C:\Users\Reza\AppData\Local\Temp\ccN59Dve.s 			page 2


  31:Source\asw/main.c **** xSemaphoreHandle RxGiver=NULL; 
  32:Source\asw/main.c **** SemaphoreHandle_t xMutex;
  33:Source\asw/main.c **** uint16_t Lidar_data1[256];
  34:Source\asw/main.c **** uint16_t Lidar_data2[256];
  35:Source\asw/main.c **** boolean_t startpacket=FALSE;
  36:Source\asw/main.c **** boolean_t endpacket=FALSE;
  37:Source\asw/main.c **** uint16_t indx=0;
  38:Source\asw/main.c **** QueueHandle_t xQueue = NULL;
  39:Source\asw/main.c **** uint8_t buffernumber=0;
  40:Source\asw/main.c **** uint16_t Receivedata1[1];
  41:Source\asw/main.c **** uint16_t Receivedata2[1];
  42:Source\asw/main.c **** uint8_t LEDNumber;
  43:Source\asw/main.c **** 
  44:Source\asw/main.c **** CAN_Rx_TX_MSG Msg_Ptr;
  45:Source\asw/main.c **** CAN_Rx_DATA_BYTES_MSG Data;
  46:Source\asw/main.c **** 
  47:Source\asw/main.c **** #define DATALENGTH 0x08
  48:Source\asw/main.c **** 
  49:Source\asw/main.c **** void can_packet(uint32 id, uint8 dlc, uint8 ide, uint8 rtr, uint8 irq, 
  50:Source\asw/main.c ****     CAN_Rx_TX_MSG *Msg_Ptr, CAN_Rx_DATA_BYTES_MSG *Data);
  51:Source\asw/main.c **** 
  52:Source\asw/main.c **** void packet_fill(CAN_Rx_DATA_BYTES_MSG *Data, uint8 *Message,uint8 datalength);
  53:Source\asw/main.c **** 
  54:Source\asw/main.c **** 
  55:Source\asw/main.c **** void CAN_Rx_tsk(void* p)
  56:Source\asw/main.c **** {
  28              		.loc 1 56 0
  29              		.cfi_startproc
  30              		@ args = 0, pretend = 0, frame = 0
  31              		@ frame_needed = 0, uses_anonymous_args = 0
  32              	.LVL0:
  33 0000 08B5     		push	{r3, lr}
  34              		.cfi_def_cfa_offset 8
  35              		.cfi_offset 3, -8
  36              		.cfi_offset 14, -4
  37              	.LVL1:
  38              	.L2:
  57:Source\asw/main.c ****     char data[30];
  58:Source\asw/main.c ****     uint16_t *pc1 = Lidar_data1;
  59:Source\asw/main.c ****     uint16_t *pc2 = Lidar_data2;
  60:Source\asw/main.c **** 
  61:Source\asw/main.c ****     while(1)
  62:Source\asw/main.c ****     {
  63:Source\asw/main.c ****         if(xSemaphoreTake(RxGiver,portMAX_DELAY))
  39              		.loc 1 63 0
  40 0002 4FF0FF31 		mov	r1, #-1
  41 0006 164B     		ldr	r3, .L8
  42 0008 1868     		ldr	r0, [r3]
  43 000a FFF7FEFF 		bl	xQueueSemaphoreTake
  44              	.LVL2:
  45 000e 0028     		cmp	r0, #0
  46 0010 F7D0     		beq	.L2
  64:Source\asw/main.c ****         {
  65:Source\asw/main.c ****             switch(LEDNumber){
  47              		.loc 1 65 0
  48 0012 144B     		ldr	r3, .L8+4
  49 0014 1B78     		ldrb	r3, [r3]	@ zero_extendqisi2
ARM GAS  C:\Users\Reza\AppData\Local\Temp\ccN59Dve.s 			page 3


  50 0016 022B     		cmp	r3, #2
  51 0018 0DD0     		beq	.L4
  52 001a 032B     		cmp	r3, #3
  53 001c 15D0     		beq	.L5
  54 001e 012B     		cmp	r3, #1
  55 0020 EFD1     		bne	.L2
  66:Source\asw/main.c ****               case 1: RED_LED_Write(1);GREEN_LED_Write(0);YELLOW_LED_Write(0); break; 
  56              		.loc 1 66 0
  57 0022 0120     		movs	r0, #1
  58 0024 FFF7FEFF 		bl	RED_LED_Write
  59              	.LVL3:
  60 0028 0020     		movs	r0, #0
  61 002a FFF7FEFF 		bl	GREEN_LED_Write
  62              	.LVL4:
  63 002e 0020     		movs	r0, #0
  64 0030 FFF7FEFF 		bl	YELLOW_LED_Write
  65              	.LVL5:
  66 0034 E5E7     		b	.L2
  67              	.L4:
  67:Source\asw/main.c ****               case 2: RED_LED_Write(0);GREEN_LED_Write(1);YELLOW_LED_Write(0); break;  
  68              		.loc 1 67 0
  69 0036 0020     		movs	r0, #0
  70 0038 FFF7FEFF 		bl	RED_LED_Write
  71              	.LVL6:
  72 003c 0120     		movs	r0, #1
  73 003e FFF7FEFF 		bl	GREEN_LED_Write
  74              	.LVL7:
  75 0042 0020     		movs	r0, #0
  76 0044 FFF7FEFF 		bl	YELLOW_LED_Write
  77              	.LVL8:
  78 0048 DBE7     		b	.L2
  79              	.L5:
  68:Source\asw/main.c ****               case 3: RED_LED_Write(0);GREEN_LED_Write(0);YELLOW_LED_Write(1);  break; 
  80              		.loc 1 68 0
  81 004a 0020     		movs	r0, #0
  82 004c FFF7FEFF 		bl	RED_LED_Write
  83              	.LVL9:
  84 0050 0020     		movs	r0, #0
  85 0052 FFF7FEFF 		bl	GREEN_LED_Write
  86              	.LVL10:
  87 0056 0120     		movs	r0, #1
  88 0058 FFF7FEFF 		bl	YELLOW_LED_Write
  89              	.LVL11:
  90 005c D1E7     		b	.L2
  91              	.L9:
  92 005e 00BF     		.align	2
  93              	.L8:
  94 0060 00000000 		.word	.LANCHOR0
  95 0064 00000000 		.word	LEDNumber
  96              		.cfi_endproc
  97              	.LFE69:
  98              		.size	CAN_Rx_tsk, .-CAN_Rx_tsk
  99              		.section	.text.CAN_Remote_Tx_tsk,"ax",%progbits
 100              		.align	2
 101              		.global	CAN_Remote_Tx_tsk
 102              		.thumb
 103              		.thumb_func
ARM GAS  C:\Users\Reza\AppData\Local\Temp\ccN59Dve.s 			page 4


 104              		.type	CAN_Remote_Tx_tsk, %function
 105              	CAN_Remote_Tx_tsk:
 106              	.LFB72:
  69:Source\asw/main.c ****             }
  70:Source\asw/main.c ****         }
  71:Source\asw/main.c ****     }
  72:Source\asw/main.c **** }
  73:Source\asw/main.c **** 
  74:Source\asw/main.c **** void data_print(void* p)
  75:Source\asw/main.c **** {
  76:Source\asw/main.c ****     char data[20];
  77:Source\asw/main.c ****     uint16_t* dataset;
  78:Source\asw/main.c ****     uint8_t data_ll=0;
  79:Source\asw/main.c ****         uint8_t data_hh=0;
  80:Source\asw/main.c ****     
  81:Source\asw/main.c ****     while(1)
  82:Source\asw/main.c ****     {
  83:Source\asw/main.c ****         if(xSemaphoreTake(xMutex, portMAX_DELAY)){
  84:Source\asw/main.c ****                 if(xQueueReceive(xQueue,&dataset,100) == pdTRUE){
  85:Source\asw/main.c ****                     UG_FillScreen(C_KHAKI);
  86:Source\asw/main.c ****                     UG_FontSelect(&FONT_10X16);
  87:Source\asw/main.c ****                     UG_SetBackcolor(C_KHAKI);
  88:Source\asw/main.c ****                     UG_SetForecolor(C_RED);
  89:Source\asw/main.c ****                     UG_PutString(1, 5 , "Recvd Data: ");
  90:Source\asw/main.c ****                     for(uint16_t i=0; i < 256; i++){
  91:Source\asw/main.c ****                         itoa(*dataset , data, 10);
  92:Source\asw/main.c ****                         UG_FontSelect(&FONT_24X40);
  93:Source\asw/main.c ****                         UG_SetBackcolor(C_KHAKI);
  94:Source\asw/main.c ****                         UG_SetForecolor(C_MEDIUM_SLATE_BLUE);
  95:Source\asw/main.c ****                         UG_PutString(15, 40,data);  
  96:Source\asw/main.c ****                         dataset++;
  97:Source\asw/main.c ****                         //vTaskDelay(50);
  98:Source\asw/main.c ****                         }
  99:Source\asw/main.c ****                 }
 100:Source\asw/main.c ****         xSemaphoreGive(xMutex);
 101:Source\asw/main.c ****         taskYIELD();
 102:Source\asw/main.c ****         }
 103:Source\asw/main.c ****     }
 104:Source\asw/main.c **** }
 105:Source\asw/main.c **** 
 106:Source\asw/main.c **** void DISP_tsk(void * p)
 107:Source\asw/main.c **** {
 108:Source\asw/main.c ****     while(1)
 109:Source\asw/main.c ****     {
 110:Source\asw/main.c ****     if(xSemaphoreTake(xMutex, portMAX_DELAY)){
 111:Source\asw/main.c ****         UG_FontSelect(&FONT_10X16);
 112:Source\asw/main.c ****         UG_SetBackcolor(C_KHAKI);
 113:Source\asw/main.c ****         UG_SetForecolor(C_RED);
 114:Source\asw/main.c ****         UG_PutString(1, 5 , "Recvd Data: ");
 115:Source\asw/main.c ****         //UG_PutString(1, 80 , "Sent Data: ");
 116:Source\asw/main.c ****         xSemaphoreGive(xMutex);
 117:Source\asw/main.c ****         taskYIELD();
 118:Source\asw/main.c ****         }
 119:Source\asw/main.c ****     }
 120:Source\asw/main.c **** }
 121:Source\asw/main.c **** 
 122:Source\asw/main.c **** void CAN_Remote_Tx_tsk(void* p)
ARM GAS  C:\Users\Reza\AppData\Local\Temp\ccN59Dve.s 			page 5


 123:Source\asw/main.c **** {    
 107              		.loc 1 123 0
 108              		.cfi_startproc
 109              		@ Volatile: function does not return.
 110              		@ args = 0, pretend = 0, frame = 0
 111              		@ frame_needed = 0, uses_anonymous_args = 0
 112              	.LVL12:
 113 0000 08B5     		push	{r3, lr}
 114              		.cfi_def_cfa_offset 8
 115              		.cfi_offset 3, -8
 116              		.cfi_offset 14, -4
 117              	.LVL13:
 118              	.L11:
 124:Source\asw/main.c ****     while(1)
 125:Source\asw/main.c ****     {                        
 126:Source\asw/main.c ****         CAN_Rx_SendMsg0(); /*send RTR message*/ 
 119              		.loc 1 126 0 discriminator 1
 120 0002 FFF7FEFF 		bl	CAN_Rx_SendMsg0
 121              	.LVL14:
 122 0006 FCE7     		b	.L11
 123              		.cfi_endproc
 124              	.LFE72:
 125              		.size	CAN_Remote_Tx_tsk, .-CAN_Remote_Tx_tsk
 126              		.section	.text.data_print,"ax",%progbits
 127              		.align	2
 128              		.global	data_print
 129              		.thumb
 130              		.thumb_func
 131              		.type	data_print, %function
 132              	data_print:
 133              	.LFB70:
  75:Source\asw/main.c ****     char data[20];
 134              		.loc 1 75 0
 135              		.cfi_startproc
 136              		@ args = 0, pretend = 0, frame = 24
 137              		@ frame_needed = 0, uses_anonymous_args = 0
 138              	.LVL15:
 139 0000 10B5     		push	{r4, lr}
 140              		.cfi_def_cfa_offset 8
 141              		.cfi_offset 4, -8
 142              		.cfi_offset 14, -4
 143 0002 86B0     		sub	sp, sp, #24
 144              		.cfi_def_cfa_offset 32
 145              	.LVL16:
 146              	.L14:
  83:Source\asw/main.c ****                 if(xQueueReceive(xQueue,&dataset,100) == pdTRUE){
 147              		.loc 1 83 0
 148 0004 4FF0FF31 		mov	r1, #-1
 149 0008 284B     		ldr	r3, .L20
 150 000a 1868     		ldr	r0, [r3]
 151 000c FFF7FEFF 		bl	xQueueSemaphoreTake
 152              	.LVL17:
 153 0010 0028     		cmp	r0, #0
 154 0012 F7D0     		beq	.L14
  84:Source\asw/main.c ****                     UG_FillScreen(C_KHAKI);
 155              		.loc 1 84 0
 156 0014 6422     		movs	r2, #100
ARM GAS  C:\Users\Reza\AppData\Local\Temp\ccN59Dve.s 			page 6


 157 0016 6946     		mov	r1, sp
 158 0018 254B     		ldr	r3, .L20+4
 159 001a 5868     		ldr	r0, [r3, #4]
 160 001c FFF7FEFF 		bl	xQueueReceive
 161              	.LVL18:
 162 0020 0128     		cmp	r0, #1
 163 0022 32D1     		bne	.L15
  85:Source\asw/main.c ****                     UG_FontSelect(&FONT_10X16);
 164              		.loc 1 85 0
 165 0024 4EF63170 		movw	r0, #61233
 166 0028 FFF7FEFF 		bl	UG_FillScreen
 167              	.LVL19:
  86:Source\asw/main.c ****                     UG_SetBackcolor(C_KHAKI);
 168              		.loc 1 86 0
 169 002c 2148     		ldr	r0, .L20+8
 170 002e FFF7FEFF 		bl	UG_FontSelect
 171              	.LVL20:
  87:Source\asw/main.c ****                     UG_SetForecolor(C_RED);
 172              		.loc 1 87 0
 173 0032 4EF63170 		movw	r0, #61233
 174 0036 FFF7FEFF 		bl	UG_SetBackcolor
 175              	.LVL21:
  88:Source\asw/main.c ****                     UG_PutString(1, 5 , "Recvd Data: ");
 176              		.loc 1 88 0
 177 003a 4FF47840 		mov	r0, #63488
 178 003e FFF7FEFF 		bl	UG_SetForecolor
 179              	.LVL22:
  89:Source\asw/main.c ****                     for(uint16_t i=0; i < 256; i++){
 180              		.loc 1 89 0
 181 0042 1D4A     		ldr	r2, .L20+12
 182 0044 0521     		movs	r1, #5
 183 0046 0120     		movs	r0, #1
 184 0048 FFF7FEFF 		bl	UG_PutString
 185              	.LVL23:
 186              	.LBB6:
  90:Source\asw/main.c ****                         itoa(*dataset , data, 10);
 187              		.loc 1 90 0
 188 004c 0024     		movs	r4, #0
 189 004e 1AE0     		b	.L16
 190              	.LVL24:
 191              	.L17:
 192              	.LBB7:
  91:Source\asw/main.c ****                         UG_FontSelect(&FONT_24X40);
 193              		.loc 1 91 0 discriminator 3
 194 0050 0A22     		movs	r2, #10
 195 0052 01A9     		add	r1, sp, #4
 196 0054 009B     		ldr	r3, [sp]
 197 0056 1888     		ldrh	r0, [r3]
 198 0058 FFF7FEFF 		bl	itoa
 199              	.LVL25:
  92:Source\asw/main.c ****                         UG_SetBackcolor(C_KHAKI);
 200              		.loc 1 92 0 discriminator 3
 201 005c 1748     		ldr	r0, .L20+16
 202 005e FFF7FEFF 		bl	UG_FontSelect
 203              	.LVL26:
  93:Source\asw/main.c ****                         UG_SetForecolor(C_MEDIUM_SLATE_BLUE);
 204              		.loc 1 93 0 discriminator 3
ARM GAS  C:\Users\Reza\AppData\Local\Temp\ccN59Dve.s 			page 7


 205 0062 4EF63170 		movw	r0, #61233
 206 0066 FFF7FEFF 		bl	UG_SetBackcolor
 207              	.LVL27:
  94:Source\asw/main.c ****                         UG_PutString(15, 40,data);  
 208              		.loc 1 94 0 discriminator 3
 209 006a 47F65D30 		movw	r0, #31581
 210 006e FFF7FEFF 		bl	UG_SetForecolor
 211              	.LVL28:
  95:Source\asw/main.c ****                         dataset++;
 212              		.loc 1 95 0 discriminator 3
 213 0072 01AA     		add	r2, sp, #4
 214 0074 2821     		movs	r1, #40
 215 0076 0F20     		movs	r0, #15
 216 0078 FFF7FEFF 		bl	UG_PutString
 217              	.LVL29:
  96:Source\asw/main.c ****                         //vTaskDelay(50);
 218              		.loc 1 96 0 discriminator 3
 219 007c 009B     		ldr	r3, [sp]
 220 007e 0233     		adds	r3, r3, #2
 221 0080 0093     		str	r3, [sp]
 222              	.LBE7:
  90:Source\asw/main.c ****                         itoa(*dataset , data, 10);
 223              		.loc 1 90 0 discriminator 3
 224 0082 0134     		adds	r4, r4, #1
 225              	.LVL30:
 226 0084 A4B2     		uxth	r4, r4
 227              	.LVL31:
 228              	.L16:
  90:Source\asw/main.c ****                         itoa(*dataset , data, 10);
 229              		.loc 1 90 0 is_stmt 0 discriminator 1
 230 0086 FF2C     		cmp	r4, #255
 231 0088 E2D9     		bls	.L17
 232              	.LVL32:
 233              	.L15:
 234              	.LBE6:
 100:Source\asw/main.c ****         taskYIELD();
 235              		.loc 1 100 0 is_stmt 1
 236 008a 0023     		movs	r3, #0
 237 008c 1A46     		mov	r2, r3
 238 008e 1946     		mov	r1, r3
 239 0090 0648     		ldr	r0, .L20
 240 0092 0068     		ldr	r0, [r0]
 241 0094 FFF7FEFF 		bl	xQueueGenericSend
 242              	.LVL33:
 101:Source\asw/main.c ****         }
 243              		.loc 1 101 0
 244 0098 4FF08052 		mov	r2, #268435456
 245 009c 084B     		ldr	r3, .L20+20
 246 009e 1A60     		str	r2, [r3]
 247              		.syntax unified
 248              	@ 101 "Source\asw\main.c" 1
 249 00a0 BFF34F8F 		dsb
 250              	@ 0 "" 2
 251              	@ 101 "Source\asw\main.c" 1
 252 00a4 BFF36F8F 		isb
 253              	@ 0 "" 2
 254              		.thumb
ARM GAS  C:\Users\Reza\AppData\Local\Temp\ccN59Dve.s 			page 8


 255              		.syntax unified
 256 00a8 ACE7     		b	.L14
 257              	.L21:
 258 00aa 00BF     		.align	2
 259              	.L20:
 260 00ac 00000000 		.word	xMutex
 261 00b0 00000000 		.word	.LANCHOR0
 262 00b4 00000000 		.word	FONT_10X16
 263 00b8 00000000 		.word	.LC0
 264 00bc 00000000 		.word	FONT_24X40
 265 00c0 04ED00E0 		.word	-536810236
 266              		.cfi_endproc
 267              	.LFE70:
 268              		.size	data_print, .-data_print
 269              		.section	.text.DISP_tsk,"ax",%progbits
 270              		.align	2
 271              		.global	DISP_tsk
 272              		.thumb
 273              		.thumb_func
 274              		.type	DISP_tsk, %function
 275              	DISP_tsk:
 276              	.LFB71:
 107:Source\asw/main.c ****     while(1)
 277              		.loc 1 107 0
 278              		.cfi_startproc
 279              		@ Volatile: function does not return.
 280              		@ args = 0, pretend = 0, frame = 0
 281              		@ frame_needed = 0, uses_anonymous_args = 0
 282              	.LVL34:
 283 0000 08B5     		push	{r3, lr}
 284              		.cfi_def_cfa_offset 8
 285              		.cfi_offset 3, -8
 286              		.cfi_offset 14, -4
 287              	.LVL35:
 288              	.L23:
 110:Source\asw/main.c ****         UG_FontSelect(&FONT_10X16);
 289              		.loc 1 110 0
 290 0002 4FF0FF31 		mov	r1, #-1
 291 0006 134B     		ldr	r3, .L26
 292 0008 1868     		ldr	r0, [r3]
 293 000a FFF7FEFF 		bl	xQueueSemaphoreTake
 294              	.LVL36:
 295 000e 0028     		cmp	r0, #0
 296 0010 F7D0     		beq	.L23
 111:Source\asw/main.c ****         UG_SetBackcolor(C_KHAKI);
 297              		.loc 1 111 0
 298 0012 1148     		ldr	r0, .L26+4
 299 0014 FFF7FEFF 		bl	UG_FontSelect
 300              	.LVL37:
 112:Source\asw/main.c ****         UG_SetForecolor(C_RED);
 301              		.loc 1 112 0
 302 0018 4EF63170 		movw	r0, #61233
 303 001c FFF7FEFF 		bl	UG_SetBackcolor
 304              	.LVL38:
 113:Source\asw/main.c ****         UG_PutString(1, 5 , "Recvd Data: ");
 305              		.loc 1 113 0
 306 0020 4FF47840 		mov	r0, #63488
ARM GAS  C:\Users\Reza\AppData\Local\Temp\ccN59Dve.s 			page 9


 307 0024 FFF7FEFF 		bl	UG_SetForecolor
 308              	.LVL39:
 114:Source\asw/main.c ****         //UG_PutString(1, 80 , "Sent Data: ");
 309              		.loc 1 114 0
 310 0028 0C4A     		ldr	r2, .L26+8
 311 002a 0521     		movs	r1, #5
 312 002c 0120     		movs	r0, #1
 313 002e FFF7FEFF 		bl	UG_PutString
 314              	.LVL40:
 116:Source\asw/main.c ****         taskYIELD();
 315              		.loc 1 116 0
 316 0032 0023     		movs	r3, #0
 317 0034 1A46     		mov	r2, r3
 318 0036 1946     		mov	r1, r3
 319 0038 0648     		ldr	r0, .L26
 320 003a 0068     		ldr	r0, [r0]
 321 003c FFF7FEFF 		bl	xQueueGenericSend
 322              	.LVL41:
 117:Source\asw/main.c ****         }
 323              		.loc 1 117 0
 324 0040 4FF08052 		mov	r2, #268435456
 325 0044 064B     		ldr	r3, .L26+12
 326 0046 1A60     		str	r2, [r3]
 327              		.syntax unified
 328              	@ 117 "Source\asw\main.c" 1
 329 0048 BFF34F8F 		dsb
 330              	@ 0 "" 2
 331              	@ 117 "Source\asw\main.c" 1
 332 004c BFF36F8F 		isb
 333              	@ 0 "" 2
 334              		.thumb
 335              		.syntax unified
 336 0050 D7E7     		b	.L23
 337              	.L27:
 338 0052 00BF     		.align	2
 339              	.L26:
 340 0054 00000000 		.word	xMutex
 341 0058 00000000 		.word	FONT_10X16
 342 005c 00000000 		.word	.LC0
 343 0060 04ED00E0 		.word	-536810236
 344              		.cfi_endproc
 345              	.LFE71:
 346              		.size	DISP_tsk, .-DISP_tsk
 347              		.section	.text.prvHardwareSetup,"ax",%progbits
 348              		.align	2
 349              		.global	prvHardwareSetup
 350              		.thumb
 351              		.thumb_func
 352              		.type	prvHardwareSetup, %function
 353              	prvHardwareSetup:
 354              	.LFB74:
 127:Source\asw/main.c ****     }
 128:Source\asw/main.c **** }
 129:Source\asw/main.c **** 
 130:Source\asw/main.c **** 
 131:Source\asw/main.c **** 
 132:Source\asw/main.c **** int main(void)
ARM GAS  C:\Users\Reza\AppData\Local\Temp\ccN59Dve.s 			page 10


 133:Source\asw/main.c **** {
 134:Source\asw/main.c ****     prvHardwareSetup();
 135:Source\asw/main.c ****     CyGlobalIntEnable; /* Enable global interrupts. */
 136:Source\asw/main.c ****     /* Place your initialization/startup code here (e.g. MyInst_Start()) */
 137:Source\asw/main.c ****     CAN_Rx_Start();
 138:Source\asw/main.c ****     UART_LOG_Start();
 139:Source\asw/main.c ****     xMutex = xSemaphoreCreateMutex();
 140:Source\asw/main.c ****     RxGiver = xSemaphoreCreateBinary();
 141:Source\asw/main.c ****     xQueue = xQueueCreate( 1, sizeof(uint16_t* ) );    
 142:Source\asw/main.c ****     
 143:Source\asw/main.c ****     Display_Init();
 144:Source\asw/main.c ****     
 145:Source\asw/main.c ****     /* Clear screen. */
 146:Source\asw/main.c ****     UG_FillScreen(C_KHAKI);
 147:Source\asw/main.c **** 
 148:Source\asw/main.c ****     xTaskCreate(CAN_Rx_tsk,(signed portCHAR *) "CAN_Rx_tsk",configMINIMAL_STACK_SIZE,NULL,tskIDLE_P
 149:Source\asw/main.c ****     //xTaskCreate(data_print,(signed portCHAR *) "data_print",configMINIMAL_STACK_SIZE,NULL,tskIDLE
 150:Source\asw/main.c ****     //xTaskCreate(DISP_tsk,(signed portCHAR *) "DISP_tsk",configMINIMAL_STACK_SIZE,NULL,tskIDLE_PRI
 151:Source\asw/main.c ****     xTaskCreate(CAN_Remote_Tx_tsk,(signed portCHAR *) "CAN_Remote_Tx_tsk",configMINIMAL_STACK_SIZE,
 152:Source\asw/main.c ****     vTaskStartScheduler();
 153:Source\asw/main.c **** }
 154:Source\asw/main.c **** 
 155:Source\asw/main.c **** /* ---------------------------------------------------------------------------
 156:Source\asw/main.c ****  * FreeRTOS support and configuration functions
 157:Source\asw/main.c ****  * --------------------------------------------------------------------------- */
 158:Source\asw/main.c **** 
 159:Source\asw/main.c **** void prvHardwareSetup( void )
 160:Source\asw/main.c **** {
 355              		.loc 1 160 0
 356              		.cfi_startproc
 357              		@ args = 0, pretend = 0, frame = 0
 358              		@ frame_needed = 0, uses_anonymous_args = 0
 359              		@ link register save eliminated.
 161:Source\asw/main.c **** 	/* Port layer functions that need to be copied into the vector table. */
 162:Source\asw/main.c **** 	extern void xPortPendSVHandler( void );
 163:Source\asw/main.c **** 	extern void xPortSysTickHandler( void );
 164:Source\asw/main.c **** 	extern void vPortSVCHandler( void );
 165:Source\asw/main.c **** 	extern cyisraddress CyRamVectors[];
 166:Source\asw/main.c **** 
 167:Source\asw/main.c **** 	/* Install the OS Interrupt Handlers. */
 168:Source\asw/main.c **** 	CyRamVectors[ 11 ] = ( cyisraddress ) vPortSVCHandler;
 360              		.loc 1 168 0
 361 0000 034B     		ldr	r3, .L29
 362 0002 044A     		ldr	r2, .L29+4
 363 0004 DA62     		str	r2, [r3, #44]
 169:Source\asw/main.c **** 	CyRamVectors[ 14 ] = ( cyisraddress ) xPortPendSVHandler;
 364              		.loc 1 169 0
 365 0006 044A     		ldr	r2, .L29+8
 366 0008 9A63     		str	r2, [r3, #56]
 170:Source\asw/main.c **** 	CyRamVectors[ 15 ] = ( cyisraddress ) xPortSysTickHandler;
 367              		.loc 1 170 0
 368 000a 044A     		ldr	r2, .L29+12
 369 000c DA63     		str	r2, [r3, #60]
 370 000e 7047     		bx	lr
 371              	.L30:
 372              		.align	2
 373              	.L29:
ARM GAS  C:\Users\Reza\AppData\Local\Temp\ccN59Dve.s 			page 11


 374 0010 00000000 		.word	CyRamVectors
 375 0014 00000000 		.word	vPortSVCHandler
 376 0018 00000000 		.word	xPortPendSVHandler
 377 001c 00000000 		.word	xPortSysTickHandler
 378              		.cfi_endproc
 379              	.LFE74:
 380              		.size	prvHardwareSetup, .-prvHardwareSetup
 381              		.section	.text.main,"ax",%progbits
 382              		.align	2
 383              		.global	main
 384              		.thumb
 385              		.thumb_func
 386              		.type	main, %function
 387              	main:
 388              	.LFB73:
 133:Source\asw/main.c ****     prvHardwareSetup();
 389              		.loc 1 133 0
 390              		.cfi_startproc
 391              		@ args = 0, pretend = 0, frame = 0
 392              		@ frame_needed = 0, uses_anonymous_args = 0
 393 0000 10B5     		push	{r4, lr}
 394              		.cfi_def_cfa_offset 8
 395              		.cfi_offset 4, -8
 396              		.cfi_offset 14, -4
 397 0002 82B0     		sub	sp, sp, #8
 398              		.cfi_def_cfa_offset 16
 134:Source\asw/main.c ****     CyGlobalIntEnable; /* Enable global interrupts. */
 399              		.loc 1 134 0
 400 0004 FFF7FEFF 		bl	prvHardwareSetup
 401              	.LVL42:
 135:Source\asw/main.c ****     /* Place your initialization/startup code here (e.g. MyInst_Start()) */
 402              		.loc 1 135 0
 403              		.syntax unified
 404              	@ 135 "Source\asw\main.c" 1
 405 0008 62B6     		CPSIE   i
 406              	@ 0 "" 2
 137:Source\asw/main.c ****     UART_LOG_Start();
 407              		.loc 1 137 0
 408              		.thumb
 409              		.syntax unified
 410 000a FFF7FEFF 		bl	CAN_Rx_Start
 411              	.LVL43:
 138:Source\asw/main.c ****     xMutex = xSemaphoreCreateMutex();
 412              		.loc 1 138 0
 413 000e FFF7FEFF 		bl	UART_LOG_Start
 414              	.LVL44:
 139:Source\asw/main.c ****     RxGiver = xSemaphoreCreateBinary();
 415              		.loc 1 139 0
 416 0012 0120     		movs	r0, #1
 417 0014 FFF7FEFF 		bl	xQueueCreateMutex
 418              	.LVL45:
 419 0018 174B     		ldr	r3, .L33
 420 001a 1860     		str	r0, [r3]
 140:Source\asw/main.c ****     xQueue = xQueueCreate( 1, sizeof(uint16_t* ) );    
 421              		.loc 1 140 0
 422 001c 0322     		movs	r2, #3
 423 001e 0021     		movs	r1, #0
ARM GAS  C:\Users\Reza\AppData\Local\Temp\ccN59Dve.s 			page 12


 424 0020 0120     		movs	r0, #1
 425 0022 FFF7FEFF 		bl	xQueueGenericCreate
 426              	.LVL46:
 427 0026 154C     		ldr	r4, .L33+4
 428 0028 2060     		str	r0, [r4]
 141:Source\asw/main.c ****     
 429              		.loc 1 141 0
 430 002a 0022     		movs	r2, #0
 431 002c 0421     		movs	r1, #4
 432 002e 0120     		movs	r0, #1
 433 0030 FFF7FEFF 		bl	xQueueGenericCreate
 434              	.LVL47:
 435 0034 6060     		str	r0, [r4, #4]
 143:Source\asw/main.c ****     
 436              		.loc 1 143 0
 437 0036 FFF7FEFF 		bl	Display_Init
 438              	.LVL48:
 146:Source\asw/main.c **** 
 439              		.loc 1 146 0
 440 003a 4EF63170 		movw	r0, #61233
 441 003e FFF7FEFF 		bl	UG_FillScreen
 442              	.LVL49:
 148:Source\asw/main.c ****     //xTaskCreate(data_print,(signed portCHAR *) "data_print",configMINIMAL_STACK_SIZE,NULL,tskIDLE
 443              		.loc 1 148 0
 444 0042 04F10803 		add	r3, r4, #8
 445 0046 0193     		str	r3, [sp, #4]
 446 0048 0123     		movs	r3, #1
 447 004a 0093     		str	r3, [sp]
 448 004c 0023     		movs	r3, #0
 449 004e 6422     		movs	r2, #100
 450 0050 0B49     		ldr	r1, .L33+8
 451 0052 0C48     		ldr	r0, .L33+12
 452 0054 FFF7FEFF 		bl	xTaskCreate
 453              	.LVL50:
 151:Source\asw/main.c ****     vTaskStartScheduler();
 454              		.loc 1 151 0
 455 0058 0C34     		adds	r4, r4, #12
 456 005a 0194     		str	r4, [sp, #4]
 457 005c 0223     		movs	r3, #2
 458 005e 0093     		str	r3, [sp]
 459 0060 0023     		movs	r3, #0
 460 0062 6422     		movs	r2, #100
 461 0064 0849     		ldr	r1, .L33+16
 462 0066 0948     		ldr	r0, .L33+20
 463 0068 FFF7FEFF 		bl	xTaskCreate
 464              	.LVL51:
 152:Source\asw/main.c **** }
 465              		.loc 1 152 0
 466 006c FFF7FEFF 		bl	vTaskStartScheduler
 467              	.LVL52:
 153:Source\asw/main.c **** 
 468              		.loc 1 153 0
 469 0070 0020     		movs	r0, #0
 470 0072 02B0     		add	sp, sp, #8
 471              		.cfi_def_cfa_offset 8
 472              		@ sp needed
 473 0074 10BD     		pop	{r4, pc}
ARM GAS  C:\Users\Reza\AppData\Local\Temp\ccN59Dve.s 			page 13


 474              	.L34:
 475 0076 00BF     		.align	2
 476              	.L33:
 477 0078 00000000 		.word	xMutex
 478 007c 00000000 		.word	.LANCHOR0
 479 0080 10000000 		.word	.LC1
 480 0084 00000000 		.word	CAN_Rx_tsk
 481 0088 1C000000 		.word	.LC2
 482 008c 00000000 		.word	CAN_Remote_Tx_tsk
 483              		.cfi_endproc
 484              	.LFE73:
 485              		.size	main, .-main
 486              		.section	.text.vApplicationStackOverflowHook,"ax",%progbits
 487              		.align	2
 488              		.global	vApplicationStackOverflowHook
 489              		.thumb
 490              		.thumb_func
 491              		.type	vApplicationStackOverflowHook, %function
 492              	vApplicationStackOverflowHook:
 493              	.LFB75:
 171:Source\asw/main.c **** }
 172:Source\asw/main.c **** 
 173:Source\asw/main.c **** void vApplicationStackOverflowHook( TaskHandle_t pxTask, char *pcTaskName )
 174:Source\asw/main.c **** {
 494              		.loc 1 174 0
 495              		.cfi_startproc
 496              		@ Volatile: function does not return.
 497              		@ args = 0, pretend = 0, frame = 0
 498              		@ frame_needed = 0, uses_anonymous_args = 0
 499              		@ link register save eliminated.
 500              	.LVL53:
 501              	.LBB8:
 502              	.LBB9:
 503              		.file 2 ".\\Source\\bsw\\FreeRTOS\\include/portmacro.h"
   1:.\Source\bsw\FreeRTOS\include/portmacro.h **** /*
   2:.\Source\bsw\FreeRTOS\include/portmacro.h ****  * FreeRTOS Kernel V10.3.1
   3:.\Source\bsw\FreeRTOS\include/portmacro.h ****  * Copyright (C) 2020 Amazon.com, Inc. or its affiliates.  All Rights Reserved.
   4:.\Source\bsw\FreeRTOS\include/portmacro.h ****  *
   5:.\Source\bsw\FreeRTOS\include/portmacro.h ****  * Permission is hereby granted, free of charge, to any person obtaining a copy of
   6:.\Source\bsw\FreeRTOS\include/portmacro.h ****  * this software and associated documentation files (the "Software"), to deal in
   7:.\Source\bsw\FreeRTOS\include/portmacro.h ****  * the Software without restriction, including without limitation the rights to
   8:.\Source\bsw\FreeRTOS\include/portmacro.h ****  * use, copy, modify, merge, publish, distribute, sublicense, and/or sell copies of
   9:.\Source\bsw\FreeRTOS\include/portmacro.h ****  * the Software, and to permit persons to whom the Software is furnished to do so,
  10:.\Source\bsw\FreeRTOS\include/portmacro.h ****  * subject to the following conditions:
  11:.\Source\bsw\FreeRTOS\include/portmacro.h ****  *
  12:.\Source\bsw\FreeRTOS\include/portmacro.h ****  * The above copyright notice and this permission notice shall be included in all
  13:.\Source\bsw\FreeRTOS\include/portmacro.h ****  * copies or substantial portions of the Software.
  14:.\Source\bsw\FreeRTOS\include/portmacro.h ****  *
  15:.\Source\bsw\FreeRTOS\include/portmacro.h ****  * THE SOFTWARE IS PROVIDED "AS IS", WITHOUT WARRANTY OF ANY KIND, EXPRESS OR
  16:.\Source\bsw\FreeRTOS\include/portmacro.h ****  * IMPLIED, INCLUDING BUT NOT LIMITED TO THE WARRANTIES OF MERCHANTABILITY, FITNESS
  17:.\Source\bsw\FreeRTOS\include/portmacro.h ****  * FOR A PARTICULAR PURPOSE AND NONINFRINGEMENT. IN NO EVENT SHALL THE AUTHORS OR
  18:.\Source\bsw\FreeRTOS\include/portmacro.h ****  * COPYRIGHT HOLDERS BE LIABLE FOR ANY CLAIM, DAMAGES OR OTHER LIABILITY, WHETHER
  19:.\Source\bsw\FreeRTOS\include/portmacro.h ****  * IN AN ACTION OF CONTRACT, TORT OR OTHERWISE, ARISING FROM, OUT OF OR IN
  20:.\Source\bsw\FreeRTOS\include/portmacro.h ****  * CONNECTION WITH THE SOFTWARE OR THE USE OR OTHER DEALINGS IN THE SOFTWARE.
  21:.\Source\bsw\FreeRTOS\include/portmacro.h ****  *
  22:.\Source\bsw\FreeRTOS\include/portmacro.h ****  * http://www.FreeRTOS.org
  23:.\Source\bsw\FreeRTOS\include/portmacro.h ****  * http://aws.amazon.com/freertos
ARM GAS  C:\Users\Reza\AppData\Local\Temp\ccN59Dve.s 			page 14


  24:.\Source\bsw\FreeRTOS\include/portmacro.h ****  *
  25:.\Source\bsw\FreeRTOS\include/portmacro.h ****  * 1 tab == 4 spaces!
  26:.\Source\bsw\FreeRTOS\include/portmacro.h ****  */
  27:.\Source\bsw\FreeRTOS\include/portmacro.h **** 
  28:.\Source\bsw\FreeRTOS\include/portmacro.h **** 
  29:.\Source\bsw\FreeRTOS\include/portmacro.h **** #ifndef PORTMACRO_H
  30:.\Source\bsw\FreeRTOS\include/portmacro.h **** #define PORTMACRO_H
  31:.\Source\bsw\FreeRTOS\include/portmacro.h **** 
  32:.\Source\bsw\FreeRTOS\include/portmacro.h **** #ifdef __cplusplus
  33:.\Source\bsw\FreeRTOS\include/portmacro.h **** extern "C" {
  34:.\Source\bsw\FreeRTOS\include/portmacro.h **** #endif
  35:.\Source\bsw\FreeRTOS\include/portmacro.h **** 
  36:.\Source\bsw\FreeRTOS\include/portmacro.h **** /*-----------------------------------------------------------
  37:.\Source\bsw\FreeRTOS\include/portmacro.h ****  * Port specific definitions.
  38:.\Source\bsw\FreeRTOS\include/portmacro.h ****  *
  39:.\Source\bsw\FreeRTOS\include/portmacro.h ****  * The settings in this file configure FreeRTOS correctly for the
  40:.\Source\bsw\FreeRTOS\include/portmacro.h ****  * given hardware and compiler.
  41:.\Source\bsw\FreeRTOS\include/portmacro.h ****  *
  42:.\Source\bsw\FreeRTOS\include/portmacro.h ****  * These settings should not be altered.
  43:.\Source\bsw\FreeRTOS\include/portmacro.h ****  *-----------------------------------------------------------
  44:.\Source\bsw\FreeRTOS\include/portmacro.h ****  */
  45:.\Source\bsw\FreeRTOS\include/portmacro.h **** 
  46:.\Source\bsw\FreeRTOS\include/portmacro.h **** /* Type definitions. */
  47:.\Source\bsw\FreeRTOS\include/portmacro.h **** #define portCHAR		char
  48:.\Source\bsw\FreeRTOS\include/portmacro.h **** #define portFLOAT		float
  49:.\Source\bsw\FreeRTOS\include/portmacro.h **** #define portDOUBLE		double
  50:.\Source\bsw\FreeRTOS\include/portmacro.h **** #define portLONG		long
  51:.\Source\bsw\FreeRTOS\include/portmacro.h **** #define portSHORT		short
  52:.\Source\bsw\FreeRTOS\include/portmacro.h **** #define portSTACK_TYPE	uint32_t
  53:.\Source\bsw\FreeRTOS\include/portmacro.h **** #define portBASE_TYPE	long
  54:.\Source\bsw\FreeRTOS\include/portmacro.h **** 
  55:.\Source\bsw\FreeRTOS\include/portmacro.h **** typedef portSTACK_TYPE StackType_t;
  56:.\Source\bsw\FreeRTOS\include/portmacro.h **** typedef long BaseType_t;
  57:.\Source\bsw\FreeRTOS\include/portmacro.h **** typedef unsigned long UBaseType_t;
  58:.\Source\bsw\FreeRTOS\include/portmacro.h **** 
  59:.\Source\bsw\FreeRTOS\include/portmacro.h **** #if( configUSE_16_BIT_TICKS == 1 )
  60:.\Source\bsw\FreeRTOS\include/portmacro.h **** 	typedef uint16_t TickType_t;
  61:.\Source\bsw\FreeRTOS\include/portmacro.h **** 	#define portMAX_DELAY ( TickType_t ) 0xffff
  62:.\Source\bsw\FreeRTOS\include/portmacro.h **** #else
  63:.\Source\bsw\FreeRTOS\include/portmacro.h **** 	typedef uint32_t TickType_t;
  64:.\Source\bsw\FreeRTOS\include/portmacro.h **** 	#define portMAX_DELAY ( TickType_t ) 0xffffffffUL
  65:.\Source\bsw\FreeRTOS\include/portmacro.h **** 
  66:.\Source\bsw\FreeRTOS\include/portmacro.h **** 	/* 32-bit tick type on a 32-bit architecture, so reads of the tick count do
  67:.\Source\bsw\FreeRTOS\include/portmacro.h **** 	not need to be guarded with a critical section. */
  68:.\Source\bsw\FreeRTOS\include/portmacro.h **** 	#define portTICK_TYPE_IS_ATOMIC 1
  69:.\Source\bsw\FreeRTOS\include/portmacro.h **** #endif
  70:.\Source\bsw\FreeRTOS\include/portmacro.h **** /*-----------------------------------------------------------*/
  71:.\Source\bsw\FreeRTOS\include/portmacro.h **** 
  72:.\Source\bsw\FreeRTOS\include/portmacro.h **** /* Architecture specifics. */
  73:.\Source\bsw\FreeRTOS\include/portmacro.h **** #define portSTACK_GROWTH			( -1 )
  74:.\Source\bsw\FreeRTOS\include/portmacro.h **** #define portTICK_PERIOD_MS			( ( TickType_t ) 1000 / configTICK_RATE_HZ )
  75:.\Source\bsw\FreeRTOS\include/portmacro.h **** #define portBYTE_ALIGNMENT			8
  76:.\Source\bsw\FreeRTOS\include/portmacro.h **** /*-----------------------------------------------------------*/
  77:.\Source\bsw\FreeRTOS\include/portmacro.h **** 
  78:.\Source\bsw\FreeRTOS\include/portmacro.h **** /* Scheduler utilities. */
  79:.\Source\bsw\FreeRTOS\include/portmacro.h **** #define portYIELD() 															\
  80:.\Source\bsw\FreeRTOS\include/portmacro.h **** {																				\
ARM GAS  C:\Users\Reza\AppData\Local\Temp\ccN59Dve.s 			page 15


  81:.\Source\bsw\FreeRTOS\include/portmacro.h **** 	/* Set a PendSV to request a context switch. */								\
  82:.\Source\bsw\FreeRTOS\include/portmacro.h **** 	portNVIC_INT_CTRL_REG = portNVIC_PENDSVSET_BIT;								\
  83:.\Source\bsw\FreeRTOS\include/portmacro.h **** 																				\
  84:.\Source\bsw\FreeRTOS\include/portmacro.h **** 	/* Barriers are normally not required but do ensure the code is completely	\
  85:.\Source\bsw\FreeRTOS\include/portmacro.h **** 	within the specified behaviour for the architecture. */						\
  86:.\Source\bsw\FreeRTOS\include/portmacro.h **** 	__asm volatile( "dsb" ::: "memory" );										\
  87:.\Source\bsw\FreeRTOS\include/portmacro.h **** 	__asm volatile( "isb" );													\
  88:.\Source\bsw\FreeRTOS\include/portmacro.h **** }
  89:.\Source\bsw\FreeRTOS\include/portmacro.h **** 
  90:.\Source\bsw\FreeRTOS\include/portmacro.h **** #define portNVIC_INT_CTRL_REG		( * ( ( volatile uint32_t * ) 0xe000ed04 ) )
  91:.\Source\bsw\FreeRTOS\include/portmacro.h **** #define portNVIC_PENDSVSET_BIT		( 1UL << 28UL )
  92:.\Source\bsw\FreeRTOS\include/portmacro.h **** #define portEND_SWITCHING_ISR( xSwitchRequired ) if( xSwitchRequired != pdFALSE ) portYIELD()
  93:.\Source\bsw\FreeRTOS\include/portmacro.h **** #define portYIELD_FROM_ISR( x ) portEND_SWITCHING_ISR( x )
  94:.\Source\bsw\FreeRTOS\include/portmacro.h **** /*-----------------------------------------------------------*/
  95:.\Source\bsw\FreeRTOS\include/portmacro.h **** 
  96:.\Source\bsw\FreeRTOS\include/portmacro.h **** /* Critical section management. */
  97:.\Source\bsw\FreeRTOS\include/portmacro.h **** extern void vPortEnterCritical( void );
  98:.\Source\bsw\FreeRTOS\include/portmacro.h **** extern void vPortExitCritical( void );
  99:.\Source\bsw\FreeRTOS\include/portmacro.h **** #define portSET_INTERRUPT_MASK_FROM_ISR()		ulPortRaiseBASEPRI()
 100:.\Source\bsw\FreeRTOS\include/portmacro.h **** #define portCLEAR_INTERRUPT_MASK_FROM_ISR(x)	vPortSetBASEPRI(x)
 101:.\Source\bsw\FreeRTOS\include/portmacro.h **** #define portDISABLE_INTERRUPTS()				vPortRaiseBASEPRI()
 102:.\Source\bsw\FreeRTOS\include/portmacro.h **** #define portENABLE_INTERRUPTS()					vPortSetBASEPRI(0)
 103:.\Source\bsw\FreeRTOS\include/portmacro.h **** #define portENTER_CRITICAL()					vPortEnterCritical()
 104:.\Source\bsw\FreeRTOS\include/portmacro.h **** #define portEXIT_CRITICAL()						vPortExitCritical()
 105:.\Source\bsw\FreeRTOS\include/portmacro.h **** 
 106:.\Source\bsw\FreeRTOS\include/portmacro.h **** /*-----------------------------------------------------------*/
 107:.\Source\bsw\FreeRTOS\include/portmacro.h **** 
 108:.\Source\bsw\FreeRTOS\include/portmacro.h **** /* Task function macros as described on the FreeRTOS.org WEB site.  These are
 109:.\Source\bsw\FreeRTOS\include/portmacro.h **** not necessary for to use this port.  They are defined so the common demo files
 110:.\Source\bsw\FreeRTOS\include/portmacro.h **** (which build with all the ports) will build. */
 111:.\Source\bsw\FreeRTOS\include/portmacro.h **** #define portTASK_FUNCTION_PROTO( vFunction, pvParameters ) void vFunction( void *pvParameters )
 112:.\Source\bsw\FreeRTOS\include/portmacro.h **** #define portTASK_FUNCTION( vFunction, pvParameters ) void vFunction( void *pvParameters )
 113:.\Source\bsw\FreeRTOS\include/portmacro.h **** /*-----------------------------------------------------------*/
 114:.\Source\bsw\FreeRTOS\include/portmacro.h **** 
 115:.\Source\bsw\FreeRTOS\include/portmacro.h **** /* Tickless idle/low power functionality. */
 116:.\Source\bsw\FreeRTOS\include/portmacro.h **** #ifndef portSUPPRESS_TICKS_AND_SLEEP
 117:.\Source\bsw\FreeRTOS\include/portmacro.h **** 	extern void vPortSuppressTicksAndSleep( TickType_t xExpectedIdleTime );
 118:.\Source\bsw\FreeRTOS\include/portmacro.h **** 	#define portSUPPRESS_TICKS_AND_SLEEP( xExpectedIdleTime ) vPortSuppressTicksAndSleep( xExpectedIdl
 119:.\Source\bsw\FreeRTOS\include/portmacro.h **** #endif
 120:.\Source\bsw\FreeRTOS\include/portmacro.h **** /*-----------------------------------------------------------*/
 121:.\Source\bsw\FreeRTOS\include/portmacro.h **** 
 122:.\Source\bsw\FreeRTOS\include/portmacro.h **** /* Architecture specific optimisations. */
 123:.\Source\bsw\FreeRTOS\include/portmacro.h **** #ifndef configUSE_PORT_OPTIMISED_TASK_SELECTION
 124:.\Source\bsw\FreeRTOS\include/portmacro.h **** 	#define configUSE_PORT_OPTIMISED_TASK_SELECTION 1
 125:.\Source\bsw\FreeRTOS\include/portmacro.h **** #endif
 126:.\Source\bsw\FreeRTOS\include/portmacro.h **** 
 127:.\Source\bsw\FreeRTOS\include/portmacro.h **** #if configUSE_PORT_OPTIMISED_TASK_SELECTION == 1
 128:.\Source\bsw\FreeRTOS\include/portmacro.h **** 
 129:.\Source\bsw\FreeRTOS\include/portmacro.h **** 	/* Generic helper function. */
 130:.\Source\bsw\FreeRTOS\include/portmacro.h **** 	__attribute__( ( always_inline ) ) static inline uint8_t ucPortCountLeadingZeros( uint32_t ulBitma
 131:.\Source\bsw\FreeRTOS\include/portmacro.h **** 	{
 132:.\Source\bsw\FreeRTOS\include/portmacro.h **** 	uint8_t ucReturn;
 133:.\Source\bsw\FreeRTOS\include/portmacro.h **** 
 134:.\Source\bsw\FreeRTOS\include/portmacro.h **** 		__asm volatile ( "clz %0, %1" : "=r" ( ucReturn ) : "r" ( ulBitmap ) : "memory" );
 135:.\Source\bsw\FreeRTOS\include/portmacro.h **** 		return ucReturn;
 136:.\Source\bsw\FreeRTOS\include/portmacro.h **** 	}
 137:.\Source\bsw\FreeRTOS\include/portmacro.h **** 
ARM GAS  C:\Users\Reza\AppData\Local\Temp\ccN59Dve.s 			page 16


 138:.\Source\bsw\FreeRTOS\include/portmacro.h **** 	/* Check the configuration. */
 139:.\Source\bsw\FreeRTOS\include/portmacro.h **** 	#if( configMAX_PRIORITIES > 32 )
 140:.\Source\bsw\FreeRTOS\include/portmacro.h **** 		#error configUSE_PORT_OPTIMISED_TASK_SELECTION can only be set to 1 when configMAX_PRIORITIES is 
 141:.\Source\bsw\FreeRTOS\include/portmacro.h **** 	#endif
 142:.\Source\bsw\FreeRTOS\include/portmacro.h **** 
 143:.\Source\bsw\FreeRTOS\include/portmacro.h **** 	/* Store/clear the ready priorities in a bit map. */
 144:.\Source\bsw\FreeRTOS\include/portmacro.h **** 	#define portRECORD_READY_PRIORITY( uxPriority, uxReadyPriorities ) ( uxReadyPriorities ) |= ( 1UL 
 145:.\Source\bsw\FreeRTOS\include/portmacro.h **** 	#define portRESET_READY_PRIORITY( uxPriority, uxReadyPriorities ) ( uxReadyPriorities ) &= ~( 1UL 
 146:.\Source\bsw\FreeRTOS\include/portmacro.h **** 
 147:.\Source\bsw\FreeRTOS\include/portmacro.h **** 	/*-----------------------------------------------------------*/
 148:.\Source\bsw\FreeRTOS\include/portmacro.h **** 
 149:.\Source\bsw\FreeRTOS\include/portmacro.h **** 	#define portGET_HIGHEST_PRIORITY( uxTopPriority, uxReadyPriorities ) uxTopPriority = ( 31UL - ( ui
 150:.\Source\bsw\FreeRTOS\include/portmacro.h **** 
 151:.\Source\bsw\FreeRTOS\include/portmacro.h **** #endif /* configUSE_PORT_OPTIMISED_TASK_SELECTION */
 152:.\Source\bsw\FreeRTOS\include/portmacro.h **** 
 153:.\Source\bsw\FreeRTOS\include/portmacro.h **** /*-----------------------------------------------------------*/
 154:.\Source\bsw\FreeRTOS\include/portmacro.h **** 
 155:.\Source\bsw\FreeRTOS\include/portmacro.h **** #ifdef configASSERT
 156:.\Source\bsw\FreeRTOS\include/portmacro.h **** 	void vPortValidateInterruptPriority( void );
 157:.\Source\bsw\FreeRTOS\include/portmacro.h **** 	#define portASSERT_IF_INTERRUPT_PRIORITY_INVALID() 	vPortValidateInterruptPriority()
 158:.\Source\bsw\FreeRTOS\include/portmacro.h **** #endif
 159:.\Source\bsw\FreeRTOS\include/portmacro.h **** 
 160:.\Source\bsw\FreeRTOS\include/portmacro.h **** /* portNOP() is not required by this port. */
 161:.\Source\bsw\FreeRTOS\include/portmacro.h **** #define portNOP()
 162:.\Source\bsw\FreeRTOS\include/portmacro.h **** 
 163:.\Source\bsw\FreeRTOS\include/portmacro.h **** #define portINLINE	__inline
 164:.\Source\bsw\FreeRTOS\include/portmacro.h **** 
 165:.\Source\bsw\FreeRTOS\include/portmacro.h **** #ifndef portFORCE_INLINE
 166:.\Source\bsw\FreeRTOS\include/portmacro.h **** 	#define portFORCE_INLINE inline __attribute__(( always_inline))
 167:.\Source\bsw\FreeRTOS\include/portmacro.h **** #endif
 168:.\Source\bsw\FreeRTOS\include/portmacro.h **** 
 169:.\Source\bsw\FreeRTOS\include/portmacro.h **** /*-----------------------------------------------------------*/
 170:.\Source\bsw\FreeRTOS\include/portmacro.h **** 
 171:.\Source\bsw\FreeRTOS\include/portmacro.h **** portFORCE_INLINE static BaseType_t xPortIsInsideInterrupt( void )
 172:.\Source\bsw\FreeRTOS\include/portmacro.h **** {
 173:.\Source\bsw\FreeRTOS\include/portmacro.h **** uint32_t ulCurrentInterrupt;
 174:.\Source\bsw\FreeRTOS\include/portmacro.h **** BaseType_t xReturn;
 175:.\Source\bsw\FreeRTOS\include/portmacro.h **** 
 176:.\Source\bsw\FreeRTOS\include/portmacro.h **** 	/* Obtain the number of the currently executing interrupt. */
 177:.\Source\bsw\FreeRTOS\include/portmacro.h **** 	__asm volatile( "mrs %0, ipsr" : "=r"( ulCurrentInterrupt ) :: "memory" );
 178:.\Source\bsw\FreeRTOS\include/portmacro.h **** 
 179:.\Source\bsw\FreeRTOS\include/portmacro.h **** 	if( ulCurrentInterrupt == 0 )
 180:.\Source\bsw\FreeRTOS\include/portmacro.h **** 	{
 181:.\Source\bsw\FreeRTOS\include/portmacro.h **** 		xReturn = pdFALSE;
 182:.\Source\bsw\FreeRTOS\include/portmacro.h **** 	}
 183:.\Source\bsw\FreeRTOS\include/portmacro.h **** 	else
 184:.\Source\bsw\FreeRTOS\include/portmacro.h **** 	{
 185:.\Source\bsw\FreeRTOS\include/portmacro.h **** 		xReturn = pdTRUE;
 186:.\Source\bsw\FreeRTOS\include/portmacro.h **** 	}
 187:.\Source\bsw\FreeRTOS\include/portmacro.h **** 
 188:.\Source\bsw\FreeRTOS\include/portmacro.h **** 	return xReturn;
 189:.\Source\bsw\FreeRTOS\include/portmacro.h **** }
 190:.\Source\bsw\FreeRTOS\include/portmacro.h **** 
 191:.\Source\bsw\FreeRTOS\include/portmacro.h **** /*-----------------------------------------------------------*/
 192:.\Source\bsw\FreeRTOS\include/portmacro.h **** 
 193:.\Source\bsw\FreeRTOS\include/portmacro.h **** portFORCE_INLINE static void vPortRaiseBASEPRI( void )
 194:.\Source\bsw\FreeRTOS\include/portmacro.h **** {
ARM GAS  C:\Users\Reza\AppData\Local\Temp\ccN59Dve.s 			page 17


 195:.\Source\bsw\FreeRTOS\include/portmacro.h **** uint32_t ulNewBASEPRI;
 196:.\Source\bsw\FreeRTOS\include/portmacro.h **** 
 197:.\Source\bsw\FreeRTOS\include/portmacro.h **** 	__asm volatile
 504              		.loc 2 197 0
 505              		.syntax unified
 506              	@ 197 ".\Source\bsw\FreeRTOS\include/portmacro.h" 1
 507 0000 4FF0A003 			mov r3, #160												
 508 0004 83F31188 		msr basepri, r3											
 509 0008 BFF36F8F 		isb														
 510 000c BFF34F8F 		dsb														
 511              	
 512              	@ 0 "" 2
 513              	.LVL54:
 514              		.thumb
 515              		.syntax unified
 516              	.L36:
 517 0010 FEE7     		b	.L36
 518              	.LBE9:
 519              	.LBE8:
 520              		.cfi_endproc
 521              	.LFE75:
 522              		.size	vApplicationStackOverflowHook, .-vApplicationStackOverflowHook
 523 0012 00BF     		.section	.text.vApplicationMallocFailedHook,"ax",%progbits
 524              		.align	2
 525              		.global	vApplicationMallocFailedHook
 526              		.thumb
 527              		.thumb_func
 528              		.type	vApplicationMallocFailedHook, %function
 529              	vApplicationMallocFailedHook:
 530              	.LFB76:
 175:Source\asw/main.c **** 	/* The stack space has been execeeded for a task, considering allocating more. */
 176:Source\asw/main.c **** 	taskDISABLE_INTERRUPTS();
 177:Source\asw/main.c **** 	for( ;; );
 178:Source\asw/main.c ****     
 179:Source\asw/main.c **** }
 180:Source\asw/main.c **** /*---------------------------------------------------------------------------*/
 181:Source\asw/main.c **** 
 182:Source\asw/main.c **** void vApplicationMallocFailedHook( void )
 183:Source\asw/main.c **** {
 531              		.loc 1 183 0
 532              		.cfi_startproc
 533              		@ Volatile: function does not return.
 534              		@ args = 0, pretend = 0, frame = 0
 535              		@ frame_needed = 0, uses_anonymous_args = 0
 536              		@ link register save eliminated.
 537              	.LBB10:
 538              	.LBB11:
 539              		.loc 2 197 0
 540              		.syntax unified
 541              	@ 197 ".\Source\bsw\FreeRTOS\include/portmacro.h" 1
 542 0000 4FF0A003 			mov r3, #160												
 543 0004 83F31188 		msr basepri, r3											
 544 0008 BFF36F8F 		isb														
 545 000c BFF34F8F 		dsb														
 546              	
 547              	@ 0 "" 2
 548              	.LVL55:
ARM GAS  C:\Users\Reza\AppData\Local\Temp\ccN59Dve.s 			page 18


 549              		.thumb
 550              		.syntax unified
 551              	.L38:
 552 0010 FEE7     		b	.L38
 553              	.LBE11:
 554              	.LBE10:
 555              		.cfi_endproc
 556              	.LFE76:
 557              		.size	vApplicationMallocFailedHook, .-vApplicationMallocFailedHook
 558 0012 00BF     		.section	.text.isr_Button_RisingEdge_Interrupt,"ax",%progbits
 559              		.align	2
 560              		.global	isr_Button_RisingEdge_Interrupt
 561              		.thumb
 562              		.thumb_func
 563              		.type	isr_Button_RisingEdge_Interrupt, %function
 564              	isr_Button_RisingEdge_Interrupt:
 565              	.LFB77:
 184:Source\asw/main.c **** 	/* The heap space has been execeeded. */
 185:Source\asw/main.c **** 	taskDISABLE_INTERRUPTS();
 186:Source\asw/main.c **** 	for( ;; );
 187:Source\asw/main.c **** }
 188:Source\asw/main.c **** /*---------------------------------------------------------------------------*/
 189:Source\asw/main.c **** CY_ISR(isr_Button_RisingEdge_Interrupt)
 190:Source\asw/main.c **** {
 566              		.loc 1 190 0
 567              		.cfi_startproc
 568              		@ args = 0, pretend = 0, frame = 0
 569              		@ frame_needed = 0, uses_anonymous_args = 0
 570              		@ link register save eliminated.
 571 0000 7047     		bx	lr
 572              		.cfi_endproc
 573              	.LFE77:
 574              		.size	isr_Button_RisingEdge_Interrupt, .-isr_Button_RisingEdge_Interrupt
 575 0002 00BF     		.section	.text.can_packet,"ax",%progbits
 576              		.align	2
 577              		.global	can_packet
 578              		.thumb
 579              		.thumb_func
 580              		.type	can_packet, %function
 581              	can_packet:
 582              	.LFB78:
 191:Source\asw/main.c **** //   long task_woken=0;
 192:Source\asw/main.c **** //   UART_LOG_PutChar(5);
 193:Source\asw/main.c **** //   UART_LOG_PutString("\n");
 194:Source\asw/main.c **** //   xSemaphoreGiveFromISR(binary_sem,&task_woken);
 195:Source\asw/main.c **** //   if(task_woken){
 196:Source\asw/main.c **** //    portEND_SWITCHING_ISR( sem_task );
 197:Source\asw/main.c ****     //BaseType_t checkIfYieldRequired=NULL;
 198:Source\asw/main.c ****     //checkIfYieldRequired=xTaskResumeFromISR(myIntTaskHandler);
 199:Source\asw/main.c ****     //portYIELD_FROM_ISR(checkIfYieldRequired);
 200:Source\asw/main.c **** }
 201:Source\asw/main.c **** 
 202:Source\asw/main.c **** /* [] END OF FILE */
 203:Source\asw/main.c **** void can_packet(uint32 id, uint8 dlc, uint8 ide, uint8 rtr, uint8 irq, 
 204:Source\asw/main.c ****     CAN_Rx_TX_MSG *Msg_Ptr, CAN_Rx_DATA_BYTES_MSG *Data)
 205:Source\asw/main.c **** {
 583              		.loc 1 205 0
ARM GAS  C:\Users\Reza\AppData\Local\Temp\ccN59Dve.s 			page 19


 584              		.cfi_startproc
 585              		@ args = 12, pretend = 0, frame = 0
 586              		@ frame_needed = 0, uses_anonymous_args = 0
 587              		@ link register save eliminated.
 588              	.LVL56:
 589              		.loc 1 205 0
 590 0000 019B     		ldr	r3, [sp, #4]
 591              	.LVL57:
 206:Source\asw/main.c ****     Msg_Ptr->id=id;
 592              		.loc 1 206 0
 593 0002 1860     		str	r0, [r3]
 207:Source\asw/main.c ****     Msg_Ptr->dlc=dlc;
 594              		.loc 1 207 0
 595 0004 9971     		strb	r1, [r3, #6]
 208:Source\asw/main.c ****     Msg_Ptr->ide=ide;
 596              		.loc 1 208 0
 597 0006 5A71     		strb	r2, [r3, #5]
 209:Source\asw/main.c ****     Msg_Ptr->rtr=irq;
 598              		.loc 1 209 0
 599 0008 9DF80020 		ldrb	r2, [sp]	@ zero_extendqisi2
 600              	.LVL58:
 601 000c 1A71     		strb	r2, [r3, #4]
 210:Source\asw/main.c ****     Msg_Ptr->msg=Data;
 602              		.loc 1 210 0
 603 000e 029A     		ldr	r2, [sp, #8]
 604 0010 9A60     		str	r2, [r3, #8]
 605 0012 7047     		bx	lr
 606              		.cfi_endproc
 607              	.LFE78:
 608              		.size	can_packet, .-can_packet
 609              		.section	.text.packet_fill,"ax",%progbits
 610              		.align	2
 611              		.global	packet_fill
 612              		.thumb
 613              		.thumb_func
 614              		.type	packet_fill, %function
 615              	packet_fill:
 616              	.LFB79:
 211:Source\asw/main.c **** }
 212:Source\asw/main.c **** 
 213:Source\asw/main.c **** void packet_fill(CAN_Rx_DATA_BYTES_MSG *Data, uint8 *Message, uint8 datalength)
 214:Source\asw/main.c **** {
 617              		.loc 1 214 0
 618              		.cfi_startproc
 619              		@ args = 0, pretend = 0, frame = 0
 620              		@ frame_needed = 0, uses_anonymous_args = 0
 621              		@ link register save eliminated.
 622              	.LVL59:
 623 0000 10B4     		push	{r4}
 624              		.cfi_def_cfa_offset 4
 625              		.cfi_offset 4, -4
 626              	.LVL60:
 627              	.LBB12:
 215:Source\asw/main.c ****     char data[30];
 216:Source\asw/main.c ****     for(uint8 bIndex=0;bIndex<datalength;bIndex++)
 628              		.loc 1 216 0
 629 0002 0023     		movs	r3, #0
ARM GAS  C:\Users\Reza\AppData\Local\Temp\ccN59Dve.s 			page 20


 630 0004 03E0     		b	.L42
 631              	.LVL61:
 632              	.L43:
 217:Source\asw/main.c ****     {
 218:Source\asw/main.c ****     Data->byte[bIndex] = Message[bIndex]; /* move data to the structure*/
 633              		.loc 1 218 0 discriminator 3
 634 0006 CC5C     		ldrb	r4, [r1, r3]	@ zero_extendqisi2
 635 0008 C454     		strb	r4, [r0, r3]
 216:Source\asw/main.c ****     {
 636              		.loc 1 216 0 discriminator 3
 637 000a 0133     		adds	r3, r3, #1
 638              	.LVL62:
 639 000c DBB2     		uxtb	r3, r3
 640              	.LVL63:
 641              	.L42:
 216:Source\asw/main.c ****     {
 642              		.loc 1 216 0 is_stmt 0 discriminator 1
 643 000e 9342     		cmp	r3, r2
 644 0010 F9D3     		bcc	.L43
 645              	.LBE12:
 219:Source\asw/main.c ****     }
 220:Source\asw/main.c **** }...
 646              		.loc 1 220 0 is_stmt 1
 647 0012 10BC     		pop	{r4}
 648              		.cfi_restore 4
 649              		.cfi_def_cfa_offset 0
 650 0014 7047     		bx	lr
 651              		.cfi_endproc
 652              	.LFE79:
 653              		.size	packet_fill, .-packet_fill
 654              		.comm	Data,8,4
 655              		.comm	Msg_Ptr,12,4
 656              		.comm	LEDNumber,1,1
 657              		.comm	Receivedata2,2,4
 658              		.comm	Receivedata1,2,4
 659              		.global	buffernumber
 660              		.global	xQueue
 661              		.global	indx
 662              		.global	endpacket
 663              		.global	startpacket
 664              		.comm	Lidar_data2,512,4
 665              		.comm	Lidar_data1,512,4
 666              		.comm	xMutex,4,4
 667              		.global	RxGiver
 668              		.global	CANRemoteTxTASKHanler
 669              		.global	DISPTASKHandler
 670              		.global	DataPrintTASKHandler
 671              		.global	CANRxTASKHandler
 672              		.global	CAN_Data
 673              		.comm	gui7735,100,4
 674 0016 00BF     		.section	.rodata.str1.4,"aMS",%progbits,1
 675              		.align	2
 676              	.LC0:
 677 0000 52656376 		.ascii	"Recvd Data: \000"
 677      64204461 
 677      74613A20 
 677      00
ARM GAS  C:\Users\Reza\AppData\Local\Temp\ccN59Dve.s 			page 21


 678 000d 000000   		.space	3
 679              	.LC1:
 680 0010 43414E5F 		.ascii	"CAN_Rx_tsk\000"
 680      52785F74 
 680      736B00
 681 001b 00       		.space	1
 682              	.LC2:
 683 001c 43414E5F 		.ascii	"CAN_Remote_Tx_tsk\000"
 683      52656D6F 
 683      74655F54 
 683      785F7473 
 683      6B00
 684              		.bss
 685              		.align	2
 686              		.set	.LANCHOR0,. + 0
 687              		.type	RxGiver, %object
 688              		.size	RxGiver, 4
 689              	RxGiver:
 690 0000 00000000 		.space	4
 691              		.type	xQueue, %object
 692              		.size	xQueue, 4
 693              	xQueue:
 694 0004 00000000 		.space	4
 695              		.type	CANRxTASKHandler, %object
 696              		.size	CANRxTASKHandler, 4
 697              	CANRxTASKHandler:
 698 0008 00000000 		.space	4
 699              		.type	CANRemoteTxTASKHanler, %object
 700              		.size	CANRemoteTxTASKHanler, 4
 701              	CANRemoteTxTASKHanler:
 702 000c 00000000 		.space	4
 703              		.type	buffernumber, %object
 704              		.size	buffernumber, 1
 705              	buffernumber:
 706 0010 00       		.space	1
 707 0011 00       		.space	1
 708              		.type	indx, %object
 709              		.size	indx, 2
 710              	indx:
 711 0012 0000     		.space	2
 712              		.type	endpacket, %object
 713              		.size	endpacket, 1
 714              	endpacket:
 715 0014 00       		.space	1
 716              		.type	startpacket, %object
 717              		.size	startpacket, 1
 718              	startpacket:
 719 0015 00       		.space	1
 720 0016 0000     		.space	2
 721              		.type	DISPTASKHandler, %object
 722              		.size	DISPTASKHandler, 4
 723              	DISPTASKHandler:
 724 0018 00000000 		.space	4
 725              		.type	DataPrintTASKHandler, %object
 726              		.size	DataPrintTASKHandler, 4
 727              	DataPrintTASKHandler:
 728 001c 00000000 		.space	4
ARM GAS  C:\Users\Reza\AppData\Local\Temp\ccN59Dve.s 			page 22


 729              		.type	CAN_Data, %object
 730              		.size	CAN_Data, 1
 731              	CAN_Data:
 732 0020 00       		.space	1
 733              		.text
 734              	.Letext0:
 735              		.file 3 "c:\\program files (x86)\\cypress\\psoc creator\\4.2\\psoc creator\\import\\gnu\\arm\\5.4.
 736              		.file 4 "c:\\program files (x86)\\cypress\\psoc creator\\4.2\\psoc creator\\import\\gnu\\arm\\5.4.
 737              		.file 5 "Generated_Source\\PSoC5/cytypes.h"
 738              		.file 6 "Generated_Source\\PSoC5/CAN_Rx.h"
 739              		.file 7 ".\\Source\\bsw\\FreeRTOS\\include/task.h"
 740              		.file 8 ".\\Source\\bsw\\FreeRTOS\\include/queue.h"
 741              		.file 9 ".\\Source\\bsw\\FreeRTOS\\include/semphr.h"
 742              		.file 10 ".\\Source\\bsw/global.h"
 743              		.file 11 ".\\Source\\bsw\\LCD_Library/ugui_config.h"
 744              		.file 12 ".\\Source\\bsw\\LCD_Library/ugui.h"
 745              		.file 13 "Generated_Source\\PSoC5/core_cm3.h"
 746              		.file 14 ".\\Source\\bsw\\LCD_Driver/ugui_st7735.h"
 747              		.file 15 "Generated_Source\\PSoC5/RED_LED.h"
 748              		.file 16 "Generated_Source\\PSoC5/GREEN_LED.h"
 749              		.file 17 "Generated_Source\\PSoC5/YELLOW_LED.h"
 750              		.file 18 "Generated_Source\\PSoC5/UART_LOG.h"