ARM GAS  C:\Users\Reza\AppData\Local\Temp\cckOPwM0.s 			page 1


   1              		.syntax unified
   2              		.cpu cortex-m3
   3              		.fpu softvfp
   4              		.eabi_attribute 20, 1
   5              		.eabi_attribute 21, 1
   6              		.eabi_attribute 23, 3
   7              		.eabi_attribute 24, 1
   8              		.eabi_attribute 25, 1
   9              		.eabi_attribute 26, 1
  10              		.eabi_attribute 30, 1
  11              		.eabi_attribute 34, 1
  12              		.eabi_attribute 18, 4
  13              		.thumb
  14              		.syntax unified
  15              		.file	"mpu_wrappers.c"
  16              		.text
  17              	.Ltext0:
  18              		.cfi_sections	.debug_frame
  19              		.section	.text.xPortRaisePrivilege,"ax",%progbits
  20              		.align	2
  21              		.global	xPortRaisePrivilege
  22              		.thumb
  23              		.thumb_func
  24              		.type	xPortRaisePrivilege, %function
  25              	xPortRaisePrivilege:
  26              	.LFB68:
  27              		.file 1 "Source\\bsw\\FreeRTOS\\src\\mpu_wrappers.c"
   1:Source\bsw\FreeRTOS\src/mpu_wrappers.c **** /*
   2:Source\bsw\FreeRTOS\src/mpu_wrappers.c ****  * FreeRTOS Kernel V10.3.1
   3:Source\bsw\FreeRTOS\src/mpu_wrappers.c ****  * Copyright (C) 2020 Amazon.com, Inc. or its affiliates.  All Rights Reserved.
   4:Source\bsw\FreeRTOS\src/mpu_wrappers.c ****  *
   5:Source\bsw\FreeRTOS\src/mpu_wrappers.c ****  * Permission is hereby granted, free of charge, to any person obtaining a copy of
   6:Source\bsw\FreeRTOS\src/mpu_wrappers.c ****  * this software and associated documentation files (the "Software"), to deal in
   7:Source\bsw\FreeRTOS\src/mpu_wrappers.c ****  * the Software without restriction, including without limitation the rights to
   8:Source\bsw\FreeRTOS\src/mpu_wrappers.c ****  * use, copy, modify, merge, publish, distribute, sublicense, and/or sell copies of
   9:Source\bsw\FreeRTOS\src/mpu_wrappers.c ****  * the Software, and to permit persons to whom the Software is furnished to do so,
  10:Source\bsw\FreeRTOS\src/mpu_wrappers.c ****  * subject to the following conditions:
  11:Source\bsw\FreeRTOS\src/mpu_wrappers.c ****  *
  12:Source\bsw\FreeRTOS\src/mpu_wrappers.c ****  * The above copyright notice and this permission notice shall be included in all
  13:Source\bsw\FreeRTOS\src/mpu_wrappers.c ****  * copies or substantial portions of the Software.
  14:Source\bsw\FreeRTOS\src/mpu_wrappers.c ****  *
  15:Source\bsw\FreeRTOS\src/mpu_wrappers.c ****  * THE SOFTWARE IS PROVIDED "AS IS", WITHOUT WARRANTY OF ANY KIND, EXPRESS OR
  16:Source\bsw\FreeRTOS\src/mpu_wrappers.c ****  * IMPLIED, INCLUDING BUT NOT LIMITED TO THE WARRANTIES OF MERCHANTABILITY, FITNESS
  17:Source\bsw\FreeRTOS\src/mpu_wrappers.c ****  * FOR A PARTICULAR PURPOSE AND NONINFRINGEMENT. IN NO EVENT SHALL THE AUTHORS OR
  18:Source\bsw\FreeRTOS\src/mpu_wrappers.c ****  * COPYRIGHT HOLDERS BE LIABLE FOR ANY CLAIM, DAMAGES OR OTHER LIABILITY, WHETHER
  19:Source\bsw\FreeRTOS\src/mpu_wrappers.c ****  * IN AN ACTION OF CONTRACT, TORT OR OTHERWISE, ARISING FROM, OUT OF OR IN
  20:Source\bsw\FreeRTOS\src/mpu_wrappers.c ****  * CONNECTION WITH THE SOFTWARE OR THE USE OR OTHER DEALINGS IN THE SOFTWARE.
  21:Source\bsw\FreeRTOS\src/mpu_wrappers.c ****  *
  22:Source\bsw\FreeRTOS\src/mpu_wrappers.c ****  * http://www.FreeRTOS.org
  23:Source\bsw\FreeRTOS\src/mpu_wrappers.c ****  * http://aws.amazon.com/freertos
  24:Source\bsw\FreeRTOS\src/mpu_wrappers.c ****  *
  25:Source\bsw\FreeRTOS\src/mpu_wrappers.c ****  * 1 tab == 4 spaces!
  26:Source\bsw\FreeRTOS\src/mpu_wrappers.c ****  */
  27:Source\bsw\FreeRTOS\src/mpu_wrappers.c **** 
  28:Source\bsw\FreeRTOS\src/mpu_wrappers.c **** /*
  29:Source\bsw\FreeRTOS\src/mpu_wrappers.c ****  * Implementation of the wrapper functions used to raise the processor privilege
  30:Source\bsw\FreeRTOS\src/mpu_wrappers.c ****  * before calling a standard FreeRTOS API function.
ARM GAS  C:\Users\Reza\AppData\Local\Temp\cckOPwM0.s 			page 2


  31:Source\bsw\FreeRTOS\src/mpu_wrappers.c ****  */
  32:Source\bsw\FreeRTOS\src/mpu_wrappers.c **** 
  33:Source\bsw\FreeRTOS\src/mpu_wrappers.c **** /* Defining MPU_WRAPPERS_INCLUDED_FROM_API_FILE prevents task.h from redefining
  34:Source\bsw\FreeRTOS\src/mpu_wrappers.c **** all the API functions to use the MPU wrappers.  That should only be done when
  35:Source\bsw\FreeRTOS\src/mpu_wrappers.c **** task.h is included from an application file. */
  36:Source\bsw\FreeRTOS\src/mpu_wrappers.c **** #define MPU_WRAPPERS_INCLUDED_FROM_API_FILE
  37:Source\bsw\FreeRTOS\src/mpu_wrappers.c **** 
  38:Source\bsw\FreeRTOS\src/mpu_wrappers.c **** /* Scheduler includes. */
  39:Source\bsw\FreeRTOS\src/mpu_wrappers.c **** #include "FreeRTOS.h"
  40:Source\bsw\FreeRTOS\src/mpu_wrappers.c **** #include "task.h"
  41:Source\bsw\FreeRTOS\src/mpu_wrappers.c **** #include "queue.h"
  42:Source\bsw\FreeRTOS\src/mpu_wrappers.c **** #include "timers.h"
  43:Source\bsw\FreeRTOS\src/mpu_wrappers.c **** #include "event_groups.h"
  44:Source\bsw\FreeRTOS\src/mpu_wrappers.c **** #include "stream_buffer.h"
  45:Source\bsw\FreeRTOS\src/mpu_wrappers.c **** #include "mpu_prototypes.h"
  46:Source\bsw\FreeRTOS\src/mpu_wrappers.c **** 
  47:Source\bsw\FreeRTOS\src/mpu_wrappers.c **** #undef MPU_WRAPPERS_INCLUDED_FROM_API_FILE
  48:Source\bsw\FreeRTOS\src/mpu_wrappers.c **** 
  49:Source\bsw\FreeRTOS\src/mpu_wrappers.c **** /**
  50:Source\bsw\FreeRTOS\src/mpu_wrappers.c ****  * @brief Calls the port specific code to raise the privilege.
  51:Source\bsw\FreeRTOS\src/mpu_wrappers.c ****  *
  52:Source\bsw\FreeRTOS\src/mpu_wrappers.c ****  * @return pdFALSE if privilege was raised, pdTRUE otherwise.
  53:Source\bsw\FreeRTOS\src/mpu_wrappers.c ****  */
  54:Source\bsw\FreeRTOS\src/mpu_wrappers.c **** BaseType_t xPortRaisePrivilege( void ) FREERTOS_SYSTEM_CALL;
  55:Source\bsw\FreeRTOS\src/mpu_wrappers.c **** 
  56:Source\bsw\FreeRTOS\src/mpu_wrappers.c **** /**
  57:Source\bsw\FreeRTOS\src/mpu_wrappers.c ****  * @brief If xRunningPrivileged is not pdTRUE, calls the port specific
  58:Source\bsw\FreeRTOS\src/mpu_wrappers.c ****  * code to reset the privilege, otherwise does nothing.
  59:Source\bsw\FreeRTOS\src/mpu_wrappers.c ****  */
  60:Source\bsw\FreeRTOS\src/mpu_wrappers.c **** void vPortResetPrivilege( BaseType_t xRunningPrivileged );
  61:Source\bsw\FreeRTOS\src/mpu_wrappers.c **** /*-----------------------------------------------------------*/
  62:Source\bsw\FreeRTOS\src/mpu_wrappers.c **** 
  63:Source\bsw\FreeRTOS\src/mpu_wrappers.c **** BaseType_t xPortRaisePrivilege( void ) /* FREERTOS_SYSTEM_CALL */
  64:Source\bsw\FreeRTOS\src/mpu_wrappers.c **** {
  28              		.loc 1 64 0
  29              		.cfi_startproc
  30              		@ args = 0, pretend = 0, frame = 0
  31              		@ frame_needed = 0, uses_anonymous_args = 0
  32 0000 10B5     		push	{r4, lr}
  33              		.cfi_def_cfa_offset 8
  34              		.cfi_offset 4, -8
  35              		.cfi_offset 14, -4
  65:Source\bsw\FreeRTOS\src/mpu_wrappers.c **** BaseType_t xRunningPrivileged;
  66:Source\bsw\FreeRTOS\src/mpu_wrappers.c **** 
  67:Source\bsw\FreeRTOS\src/mpu_wrappers.c **** 	/* Check whether the processor is already privileged. */
  68:Source\bsw\FreeRTOS\src/mpu_wrappers.c **** 	xRunningPrivileged = portIS_PRIVILEGED();
  36              		.loc 1 68 0
  37 0002 FFF7FEFF 		bl	portIS_PRIVILEGED
  38              	.LVL0:
  39 0006 0446     		mov	r4, r0
  40              	.LVL1:
  69:Source\bsw\FreeRTOS\src/mpu_wrappers.c **** 
  70:Source\bsw\FreeRTOS\src/mpu_wrappers.c **** 	/* If the processor is not already privileged, raise privilege. */
  71:Source\bsw\FreeRTOS\src/mpu_wrappers.c **** 	if( xRunningPrivileged != pdTRUE )
  41              		.loc 1 71 0
  42 0008 0128     		cmp	r0, #1
  43 000a 01D0     		beq	.L2
ARM GAS  C:\Users\Reza\AppData\Local\Temp\cckOPwM0.s 			page 3


  44              	.LBB2:
  72:Source\bsw\FreeRTOS\src/mpu_wrappers.c **** 	{
  73:Source\bsw\FreeRTOS\src/mpu_wrappers.c **** 		portRAISE_PRIVILEGE();
  45              		.loc 1 73 0
  46 000c FFF7FEFF 		bl	portRAISE_PRIVILEGE
  47              	.LVL2:
  48              	.L2:
  49              	.LBE2:
  74:Source\bsw\FreeRTOS\src/mpu_wrappers.c **** 	}
  75:Source\bsw\FreeRTOS\src/mpu_wrappers.c **** 
  76:Source\bsw\FreeRTOS\src/mpu_wrappers.c **** 	return xRunningPrivileged;
  77:Source\bsw\FreeRTOS\src/mpu_wrappers.c **** }
  50              		.loc 1 77 0
  51 0010 2046     		mov	r0, r4
  52 0012 10BD     		pop	{r4, pc}
  53              		.cfi_endproc
  54              	.LFE68:
  55              		.size	xPortRaisePrivilege, .-xPortRaisePrivilege
  56              		.section	.text.vPortResetPrivilege,"ax",%progbits
  57              		.align	2
  58              		.global	vPortResetPrivilege
  59              		.thumb
  60              		.thumb_func
  61              		.type	vPortResetPrivilege, %function
  62              	vPortResetPrivilege:
  63              	.LFB69:
  78:Source\bsw\FreeRTOS\src/mpu_wrappers.c **** /*-----------------------------------------------------------*/
  79:Source\bsw\FreeRTOS\src/mpu_wrappers.c **** 
  80:Source\bsw\FreeRTOS\src/mpu_wrappers.c **** void vPortResetPrivilege( BaseType_t xRunningPrivileged )
  81:Source\bsw\FreeRTOS\src/mpu_wrappers.c **** {
  64              		.loc 1 81 0
  65              		.cfi_startproc
  66              		@ args = 0, pretend = 0, frame = 0
  67              		@ frame_needed = 0, uses_anonymous_args = 0
  68              	.LVL3:
  82:Source\bsw\FreeRTOS\src/mpu_wrappers.c **** 	if( xRunningPrivileged != pdTRUE )
  69              		.loc 1 82 0
  70 0000 0128     		cmp	r0, #1
  71 0002 03D0     		beq	.L7
  81:Source\bsw\FreeRTOS\src/mpu_wrappers.c **** 	if( xRunningPrivileged != pdTRUE )
  72              		.loc 1 81 0
  73 0004 08B5     		push	{r3, lr}
  74              		.cfi_def_cfa_offset 8
  75              		.cfi_offset 3, -8
  76              		.cfi_offset 14, -4
  77              	.LBB3:
  83:Source\bsw\FreeRTOS\src/mpu_wrappers.c **** 	{
  84:Source\bsw\FreeRTOS\src/mpu_wrappers.c **** 		portRESET_PRIVILEGE();
  78              		.loc 1 84 0
  79 0006 FFF7FEFF 		bl	portRESET_PRIVILEGE
  80              	.LVL4:
  81 000a 08BD     		pop	{r3, pc}
  82              	.LVL5:
  83              	.L7:
  84              		.cfi_def_cfa_offset 0
  85              		.cfi_restore 3
  86              		.cfi_restore 14
ARM GAS  C:\Users\Reza\AppData\Local\Temp\cckOPwM0.s 			page 4


  87 000c 7047     		bx	lr
  88              	.LBE3:
  89              		.cfi_endproc
  90              	.LFE69:
  91              		.size	vPortResetPrivilege, .-vPortResetPrivilege
  92 000e 00BF     		.section	.text.MPU_xTaskCreateRestricted,"ax",%progbits
  93              		.align	2
  94              		.global	MPU_xTaskCreateRestricted
  95              		.thumb
  96              		.thumb_func
  97              		.type	MPU_xTaskCreateRestricted, %function
  98              	MPU_xTaskCreateRestricted:
  99              	.LFB70:
  85:Source\bsw\FreeRTOS\src/mpu_wrappers.c **** 	}
  86:Source\bsw\FreeRTOS\src/mpu_wrappers.c **** }
  87:Source\bsw\FreeRTOS\src/mpu_wrappers.c **** /*-----------------------------------------------------------*/
  88:Source\bsw\FreeRTOS\src/mpu_wrappers.c **** 
  89:Source\bsw\FreeRTOS\src/mpu_wrappers.c **** #if( configSUPPORT_DYNAMIC_ALLOCATION == 1 )
  90:Source\bsw\FreeRTOS\src/mpu_wrappers.c **** 	BaseType_t MPU_xTaskCreateRestricted( const TaskParameters_t * const pxTaskDefinition, TaskHandle_
  91:Source\bsw\FreeRTOS\src/mpu_wrappers.c **** 	{
 100              		.loc 1 91 0
 101              		.cfi_startproc
 102              		@ args = 0, pretend = 0, frame = 0
 103              		@ frame_needed = 0, uses_anonymous_args = 0
 104              	.LVL6:
 105 0000 70B5     		push	{r4, r5, r6, lr}
 106              		.cfi_def_cfa_offset 16
 107              		.cfi_offset 4, -16
 108              		.cfi_offset 5, -12
 109              		.cfi_offset 6, -8
 110              		.cfi_offset 14, -4
 111 0002 0446     		mov	r4, r0
 112 0004 0E46     		mov	r6, r1
  92:Source\bsw\FreeRTOS\src/mpu_wrappers.c **** 	BaseType_t xReturn;
  93:Source\bsw\FreeRTOS\src/mpu_wrappers.c **** 	BaseType_t xRunningPrivileged = xPortRaisePrivilege();
 113              		.loc 1 93 0
 114 0006 FFF7FEFF 		bl	xPortRaisePrivilege
 115              	.LVL7:
 116 000a 0546     		mov	r5, r0
 117              	.LVL8:
  94:Source\bsw\FreeRTOS\src/mpu_wrappers.c **** 
  95:Source\bsw\FreeRTOS\src/mpu_wrappers.c **** 		xReturn = xTaskCreateRestricted( pxTaskDefinition, pxCreatedTask );
 118              		.loc 1 95 0
 119 000c 3146     		mov	r1, r6
 120 000e 2046     		mov	r0, r4
 121              	.LVL9:
 122 0010 FFF7FEFF 		bl	xTaskCreateRestricted
 123              	.LVL10:
 124 0014 0446     		mov	r4, r0
 125              	.LVL11:
  96:Source\bsw\FreeRTOS\src/mpu_wrappers.c **** 		vPortResetPrivilege( xRunningPrivileged );
 126              		.loc 1 96 0
 127 0016 2846     		mov	r0, r5
 128              	.LVL12:
 129 0018 FFF7FEFF 		bl	vPortResetPrivilege
 130              	.LVL13:
  97:Source\bsw\FreeRTOS\src/mpu_wrappers.c **** 		return xReturn;
ARM GAS  C:\Users\Reza\AppData\Local\Temp\cckOPwM0.s 			page 5


  98:Source\bsw\FreeRTOS\src/mpu_wrappers.c **** 	}
 131              		.loc 1 98 0
 132 001c 2046     		mov	r0, r4
 133 001e 70BD     		pop	{r4, r5, r6, pc}
 134              		.cfi_endproc
 135              	.LFE70:
 136              		.size	MPU_xTaskCreateRestricted, .-MPU_xTaskCreateRestricted
 137              		.section	.text.MPU_xTaskCreate,"ax",%progbits
 138              		.align	2
 139              		.global	MPU_xTaskCreate
 140              		.thumb
 141              		.thumb_func
 142              		.type	MPU_xTaskCreate, %function
 143              	MPU_xTaskCreate:
 144              	.LFB71:
  99:Source\bsw\FreeRTOS\src/mpu_wrappers.c **** #endif /* conifgSUPPORT_DYNAMIC_ALLOCATION */
 100:Source\bsw\FreeRTOS\src/mpu_wrappers.c **** /*-----------------------------------------------------------*/
 101:Source\bsw\FreeRTOS\src/mpu_wrappers.c **** 
 102:Source\bsw\FreeRTOS\src/mpu_wrappers.c **** #if( configSUPPORT_STATIC_ALLOCATION == 1 )
 103:Source\bsw\FreeRTOS\src/mpu_wrappers.c **** 	BaseType_t MPU_xTaskCreateRestrictedStatic( const TaskParameters_t * const pxTaskDefinition, TaskH
 104:Source\bsw\FreeRTOS\src/mpu_wrappers.c **** 	{
 105:Source\bsw\FreeRTOS\src/mpu_wrappers.c **** 	BaseType_t xReturn;
 106:Source\bsw\FreeRTOS\src/mpu_wrappers.c **** 	BaseType_t xRunningPrivileged = xPortRaisePrivilege();
 107:Source\bsw\FreeRTOS\src/mpu_wrappers.c **** 
 108:Source\bsw\FreeRTOS\src/mpu_wrappers.c **** 		xReturn = xTaskCreateRestrictedStatic( pxTaskDefinition, pxCreatedTask );
 109:Source\bsw\FreeRTOS\src/mpu_wrappers.c **** 		vPortResetPrivilege( xRunningPrivileged );
 110:Source\bsw\FreeRTOS\src/mpu_wrappers.c **** 		return xReturn;
 111:Source\bsw\FreeRTOS\src/mpu_wrappers.c **** 	}
 112:Source\bsw\FreeRTOS\src/mpu_wrappers.c **** #endif /* conifgSUPPORT_DYNAMIC_ALLOCATION */
 113:Source\bsw\FreeRTOS\src/mpu_wrappers.c **** /*-----------------------------------------------------------*/
 114:Source\bsw\FreeRTOS\src/mpu_wrappers.c **** 
 115:Source\bsw\FreeRTOS\src/mpu_wrappers.c **** #if( configSUPPORT_DYNAMIC_ALLOCATION == 1 )
 116:Source\bsw\FreeRTOS\src/mpu_wrappers.c **** 	BaseType_t MPU_xTaskCreate( TaskFunction_t pvTaskCode, const char * const pcName, uint16_t usStack
 117:Source\bsw\FreeRTOS\src/mpu_wrappers.c **** 	{
 145              		.loc 1 117 0
 146              		.cfi_startproc
 147              		@ args = 8, pretend = 0, frame = 0
 148              		@ frame_needed = 0, uses_anonymous_args = 0
 149              	.LVL14:
 150 0000 2DE9F041 		push	{r4, r5, r6, r7, r8, lr}
 151              		.cfi_def_cfa_offset 24
 152              		.cfi_offset 4, -24
 153              		.cfi_offset 5, -20
 154              		.cfi_offset 6, -16
 155              		.cfi_offset 7, -12
 156              		.cfi_offset 8, -8
 157              		.cfi_offset 14, -4
 158 0004 82B0     		sub	sp, sp, #8
 159              		.cfi_def_cfa_offset 32
 160 0006 0446     		mov	r4, r0
 161 0008 0E46     		mov	r6, r1
 162 000a 1746     		mov	r7, r2
 163 000c 9846     		mov	r8, r3
 118:Source\bsw\FreeRTOS\src/mpu_wrappers.c **** 	BaseType_t xReturn;
 119:Source\bsw\FreeRTOS\src/mpu_wrappers.c **** 	BaseType_t xRunningPrivileged = xPortRaisePrivilege();
 164              		.loc 1 119 0
 165 000e FFF7FEFF 		bl	xPortRaisePrivilege
ARM GAS  C:\Users\Reza\AppData\Local\Temp\cckOPwM0.s 			page 6


 166              	.LVL15:
 167 0012 0546     		mov	r5, r0
 168              	.LVL16:
 120:Source\bsw\FreeRTOS\src/mpu_wrappers.c **** 
 121:Source\bsw\FreeRTOS\src/mpu_wrappers.c **** 		xReturn = xTaskCreate( pvTaskCode, pcName, usStackDepth, pvParameters, uxPriority, pxCreatedTask 
 169              		.loc 1 121 0
 170 0014 099B     		ldr	r3, [sp, #36]
 171 0016 0193     		str	r3, [sp, #4]
 172 0018 089B     		ldr	r3, [sp, #32]
 173 001a 0093     		str	r3, [sp]
 174 001c 4346     		mov	r3, r8
 175 001e 3A46     		mov	r2, r7
 176 0020 3146     		mov	r1, r6
 177 0022 2046     		mov	r0, r4
 178              	.LVL17:
 179 0024 FFF7FEFF 		bl	xTaskCreate
 180              	.LVL18:
 181 0028 0446     		mov	r4, r0
 182              	.LVL19:
 122:Source\bsw\FreeRTOS\src/mpu_wrappers.c **** 		vPortResetPrivilege( xRunningPrivileged );
 183              		.loc 1 122 0
 184 002a 2846     		mov	r0, r5
 185              	.LVL20:
 186 002c FFF7FEFF 		bl	vPortResetPrivilege
 187              	.LVL21:
 123:Source\bsw\FreeRTOS\src/mpu_wrappers.c **** 		return xReturn;
 124:Source\bsw\FreeRTOS\src/mpu_wrappers.c **** 	}
 188              		.loc 1 124 0
 189 0030 2046     		mov	r0, r4
 190 0032 02B0     		add	sp, sp, #8
 191              		.cfi_def_cfa_offset 24
 192              		@ sp needed
 193 0034 BDE8F081 		pop	{r4, r5, r6, r7, r8, pc}
 194              		.cfi_endproc
 195              	.LFE71:
 196              		.size	MPU_xTaskCreate, .-MPU_xTaskCreate
 197              		.section	.text.MPU_vTaskAllocateMPURegions,"ax",%progbits
 198              		.align	2
 199              		.global	MPU_vTaskAllocateMPURegions
 200              		.thumb
 201              		.thumb_func
 202              		.type	MPU_vTaskAllocateMPURegions, %function
 203              	MPU_vTaskAllocateMPURegions:
 204              	.LFB72:
 125:Source\bsw\FreeRTOS\src/mpu_wrappers.c **** #endif /* configSUPPORT_DYNAMIC_ALLOCATION */
 126:Source\bsw\FreeRTOS\src/mpu_wrappers.c **** /*-----------------------------------------------------------*/
 127:Source\bsw\FreeRTOS\src/mpu_wrappers.c **** 
 128:Source\bsw\FreeRTOS\src/mpu_wrappers.c **** #if( configSUPPORT_STATIC_ALLOCATION == 1 )
 129:Source\bsw\FreeRTOS\src/mpu_wrappers.c **** 	TaskHandle_t MPU_xTaskCreateStatic( TaskFunction_t pxTaskCode, const char * const pcName, const ui
 130:Source\bsw\FreeRTOS\src/mpu_wrappers.c **** 	{
 131:Source\bsw\FreeRTOS\src/mpu_wrappers.c **** 	TaskHandle_t xReturn;
 132:Source\bsw\FreeRTOS\src/mpu_wrappers.c **** 	BaseType_t xRunningPrivileged = xPortRaisePrivilege();
 133:Source\bsw\FreeRTOS\src/mpu_wrappers.c **** 
 134:Source\bsw\FreeRTOS\src/mpu_wrappers.c **** 		xReturn = xTaskCreateStatic( pxTaskCode, pcName, ulStackDepth, pvParameters, uxPriority, puxStack
 135:Source\bsw\FreeRTOS\src/mpu_wrappers.c **** 		vPortResetPrivilege( xRunningPrivileged );
 136:Source\bsw\FreeRTOS\src/mpu_wrappers.c **** 		return xReturn;
 137:Source\bsw\FreeRTOS\src/mpu_wrappers.c **** 	}
ARM GAS  C:\Users\Reza\AppData\Local\Temp\cckOPwM0.s 			page 7


 138:Source\bsw\FreeRTOS\src/mpu_wrappers.c **** #endif /* configSUPPORT_STATIC_ALLOCATION */
 139:Source\bsw\FreeRTOS\src/mpu_wrappers.c **** /*-----------------------------------------------------------*/
 140:Source\bsw\FreeRTOS\src/mpu_wrappers.c **** 
 141:Source\bsw\FreeRTOS\src/mpu_wrappers.c **** void MPU_vTaskAllocateMPURegions( TaskHandle_t xTask, const MemoryRegion_t * const xRegions ) /* FR
 142:Source\bsw\FreeRTOS\src/mpu_wrappers.c **** {
 205              		.loc 1 142 0
 206              		.cfi_startproc
 207              		@ args = 0, pretend = 0, frame = 0
 208              		@ frame_needed = 0, uses_anonymous_args = 0
 209              	.LVL22:
 210 0000 70B5     		push	{r4, r5, r6, lr}
 211              		.cfi_def_cfa_offset 16
 212              		.cfi_offset 4, -16
 213              		.cfi_offset 5, -12
 214              		.cfi_offset 6, -8
 215              		.cfi_offset 14, -4
 216 0002 0546     		mov	r5, r0
 217 0004 0E46     		mov	r6, r1
 143:Source\bsw\FreeRTOS\src/mpu_wrappers.c **** BaseType_t xRunningPrivileged = xPortRaisePrivilege();
 218              		.loc 1 143 0
 219 0006 FFF7FEFF 		bl	xPortRaisePrivilege
 220              	.LVL23:
 221 000a 0446     		mov	r4, r0
 222              	.LVL24:
 144:Source\bsw\FreeRTOS\src/mpu_wrappers.c **** 
 145:Source\bsw\FreeRTOS\src/mpu_wrappers.c **** 	vTaskAllocateMPURegions( xTask, xRegions );
 223              		.loc 1 145 0
 224 000c 3146     		mov	r1, r6
 225 000e 2846     		mov	r0, r5
 226              	.LVL25:
 227 0010 FFF7FEFF 		bl	vTaskAllocateMPURegions
 228              	.LVL26:
 146:Source\bsw\FreeRTOS\src/mpu_wrappers.c **** 	vPortResetPrivilege( xRunningPrivileged );
 229              		.loc 1 146 0
 230 0014 2046     		mov	r0, r4
 231 0016 FFF7FEFF 		bl	vPortResetPrivilege
 232              	.LVL27:
 233 001a 70BD     		pop	{r4, r5, r6, pc}
 234              		.cfi_endproc
 235              	.LFE72:
 236              		.size	MPU_vTaskAllocateMPURegions, .-MPU_vTaskAllocateMPURegions
 237              		.section	.text.MPU_vTaskDelete,"ax",%progbits
 238              		.align	2
 239              		.global	MPU_vTaskDelete
 240              		.thumb
 241              		.thumb_func
 242              		.type	MPU_vTaskDelete, %function
 243              	MPU_vTaskDelete:
 244              	.LFB73:
 147:Source\bsw\FreeRTOS\src/mpu_wrappers.c **** }
 148:Source\bsw\FreeRTOS\src/mpu_wrappers.c **** /*-----------------------------------------------------------*/
 149:Source\bsw\FreeRTOS\src/mpu_wrappers.c **** 
 150:Source\bsw\FreeRTOS\src/mpu_wrappers.c **** #if ( INCLUDE_vTaskDelete == 1 )
 151:Source\bsw\FreeRTOS\src/mpu_wrappers.c **** 	void MPU_vTaskDelete( TaskHandle_t pxTaskToDelete ) /* FREERTOS_SYSTEM_CALL */
 152:Source\bsw\FreeRTOS\src/mpu_wrappers.c **** 	{
 245              		.loc 1 152 0
 246              		.cfi_startproc
ARM GAS  C:\Users\Reza\AppData\Local\Temp\cckOPwM0.s 			page 8


 247              		@ args = 0, pretend = 0, frame = 0
 248              		@ frame_needed = 0, uses_anonymous_args = 0
 249              	.LVL28:
 250 0000 38B5     		push	{r3, r4, r5, lr}
 251              		.cfi_def_cfa_offset 16
 252              		.cfi_offset 3, -16
 253              		.cfi_offset 4, -12
 254              		.cfi_offset 5, -8
 255              		.cfi_offset 14, -4
 256 0002 0546     		mov	r5, r0
 153:Source\bsw\FreeRTOS\src/mpu_wrappers.c **** 	BaseType_t xRunningPrivileged = xPortRaisePrivilege();
 257              		.loc 1 153 0
 258 0004 FFF7FEFF 		bl	xPortRaisePrivilege
 259              	.LVL29:
 260 0008 0446     		mov	r4, r0
 261              	.LVL30:
 154:Source\bsw\FreeRTOS\src/mpu_wrappers.c **** 
 155:Source\bsw\FreeRTOS\src/mpu_wrappers.c **** 		vTaskDelete( pxTaskToDelete );
 262              		.loc 1 155 0
 263 000a 2846     		mov	r0, r5
 264              	.LVL31:
 265 000c FFF7FEFF 		bl	vTaskDelete
 266              	.LVL32:
 156:Source\bsw\FreeRTOS\src/mpu_wrappers.c **** 		vPortResetPrivilege( xRunningPrivileged );
 267              		.loc 1 156 0
 268 0010 2046     		mov	r0, r4
 269 0012 FFF7FEFF 		bl	vPortResetPrivilege
 270              	.LVL33:
 271 0016 38BD     		pop	{r3, r4, r5, pc}
 272              		.cfi_endproc
 273              	.LFE73:
 274              		.size	MPU_vTaskDelete, .-MPU_vTaskDelete
 275              		.section	.text.MPU_vTaskDelayUntil,"ax",%progbits
 276              		.align	2
 277              		.global	MPU_vTaskDelayUntil
 278              		.thumb
 279              		.thumb_func
 280              		.type	MPU_vTaskDelayUntil, %function
 281              	MPU_vTaskDelayUntil:
 282              	.LFB74:
 157:Source\bsw\FreeRTOS\src/mpu_wrappers.c **** 	}
 158:Source\bsw\FreeRTOS\src/mpu_wrappers.c **** #endif
 159:Source\bsw\FreeRTOS\src/mpu_wrappers.c **** /*-----------------------------------------------------------*/
 160:Source\bsw\FreeRTOS\src/mpu_wrappers.c **** 
 161:Source\bsw\FreeRTOS\src/mpu_wrappers.c **** #if ( INCLUDE_vTaskDelayUntil == 1 )
 162:Source\bsw\FreeRTOS\src/mpu_wrappers.c **** 	void MPU_vTaskDelayUntil( TickType_t * const pxPreviousWakeTime, TickType_t xTimeIncrement ) /* FR
 163:Source\bsw\FreeRTOS\src/mpu_wrappers.c **** 	{
 283              		.loc 1 163 0
 284              		.cfi_startproc
 285              		@ args = 0, pretend = 0, frame = 0
 286              		@ frame_needed = 0, uses_anonymous_args = 0
 287              	.LVL34:
 288 0000 70B5     		push	{r4, r5, r6, lr}
 289              		.cfi_def_cfa_offset 16
 290              		.cfi_offset 4, -16
 291              		.cfi_offset 5, -12
 292              		.cfi_offset 6, -8
ARM GAS  C:\Users\Reza\AppData\Local\Temp\cckOPwM0.s 			page 9


 293              		.cfi_offset 14, -4
 294 0002 0546     		mov	r5, r0
 295 0004 0E46     		mov	r6, r1
 164:Source\bsw\FreeRTOS\src/mpu_wrappers.c **** 	BaseType_t xRunningPrivileged = xPortRaisePrivilege();
 296              		.loc 1 164 0
 297 0006 FFF7FEFF 		bl	xPortRaisePrivilege
 298              	.LVL35:
 299 000a 0446     		mov	r4, r0
 300              	.LVL36:
 165:Source\bsw\FreeRTOS\src/mpu_wrappers.c **** 
 166:Source\bsw\FreeRTOS\src/mpu_wrappers.c **** 		vTaskDelayUntil( pxPreviousWakeTime, xTimeIncrement );
 301              		.loc 1 166 0
 302 000c 3146     		mov	r1, r6
 303 000e 2846     		mov	r0, r5
 304              	.LVL37:
 305 0010 FFF7FEFF 		bl	vTaskDelayUntil
 306              	.LVL38:
 167:Source\bsw\FreeRTOS\src/mpu_wrappers.c **** 		vPortResetPrivilege( xRunningPrivileged );
 307              		.loc 1 167 0
 308 0014 2046     		mov	r0, r4
 309 0016 FFF7FEFF 		bl	vPortResetPrivilege
 310              	.LVL39:
 311 001a 70BD     		pop	{r4, r5, r6, pc}
 312              		.cfi_endproc
 313              	.LFE74:
 314              		.size	MPU_vTaskDelayUntil, .-MPU_vTaskDelayUntil
 315              		.section	.text.MPU_vTaskDelay,"ax",%progbits
 316              		.align	2
 317              		.global	MPU_vTaskDelay
 318              		.thumb
 319              		.thumb_func
 320              		.type	MPU_vTaskDelay, %function
 321              	MPU_vTaskDelay:
 322              	.LFB75:
 168:Source\bsw\FreeRTOS\src/mpu_wrappers.c **** 	}
 169:Source\bsw\FreeRTOS\src/mpu_wrappers.c **** #endif
 170:Source\bsw\FreeRTOS\src/mpu_wrappers.c **** /*-----------------------------------------------------------*/
 171:Source\bsw\FreeRTOS\src/mpu_wrappers.c **** 
 172:Source\bsw\FreeRTOS\src/mpu_wrappers.c **** #if ( INCLUDE_xTaskAbortDelay == 1 )
 173:Source\bsw\FreeRTOS\src/mpu_wrappers.c **** 	BaseType_t MPU_xTaskAbortDelay( TaskHandle_t xTask ) /* FREERTOS_SYSTEM_CALL */
 174:Source\bsw\FreeRTOS\src/mpu_wrappers.c **** 	{
 175:Source\bsw\FreeRTOS\src/mpu_wrappers.c **** 	BaseType_t xReturn;
 176:Source\bsw\FreeRTOS\src/mpu_wrappers.c **** 	BaseType_t xRunningPrivileged = xPortRaisePrivilege();
 177:Source\bsw\FreeRTOS\src/mpu_wrappers.c **** 
 178:Source\bsw\FreeRTOS\src/mpu_wrappers.c **** 		xReturn = xTaskAbortDelay( xTask );
 179:Source\bsw\FreeRTOS\src/mpu_wrappers.c **** 		vPortResetPrivilege( xRunningPrivileged );
 180:Source\bsw\FreeRTOS\src/mpu_wrappers.c **** 		return xReturn;
 181:Source\bsw\FreeRTOS\src/mpu_wrappers.c **** 	}
 182:Source\bsw\FreeRTOS\src/mpu_wrappers.c **** #endif
 183:Source\bsw\FreeRTOS\src/mpu_wrappers.c **** /*-----------------------------------------------------------*/
 184:Source\bsw\FreeRTOS\src/mpu_wrappers.c **** 
 185:Source\bsw\FreeRTOS\src/mpu_wrappers.c **** #if ( INCLUDE_vTaskDelay == 1 )
 186:Source\bsw\FreeRTOS\src/mpu_wrappers.c **** 	void MPU_vTaskDelay( TickType_t xTicksToDelay ) /* FREERTOS_SYSTEM_CALL */
 187:Source\bsw\FreeRTOS\src/mpu_wrappers.c **** 	{
 323              		.loc 1 187 0
 324              		.cfi_startproc
 325              		@ args = 0, pretend = 0, frame = 0
ARM GAS  C:\Users\Reza\AppData\Local\Temp\cckOPwM0.s 			page 10


 326              		@ frame_needed = 0, uses_anonymous_args = 0
 327              	.LVL40:
 328 0000 38B5     		push	{r3, r4, r5, lr}
 329              		.cfi_def_cfa_offset 16
 330              		.cfi_offset 3, -16
 331              		.cfi_offset 4, -12
 332              		.cfi_offset 5, -8
 333              		.cfi_offset 14, -4
 334 0002 0546     		mov	r5, r0
 188:Source\bsw\FreeRTOS\src/mpu_wrappers.c **** 	BaseType_t xRunningPrivileged = xPortRaisePrivilege();
 335              		.loc 1 188 0
 336 0004 FFF7FEFF 		bl	xPortRaisePrivilege
 337              	.LVL41:
 338 0008 0446     		mov	r4, r0
 339              	.LVL42:
 189:Source\bsw\FreeRTOS\src/mpu_wrappers.c **** 
 190:Source\bsw\FreeRTOS\src/mpu_wrappers.c **** 		vTaskDelay( xTicksToDelay );
 340              		.loc 1 190 0
 341 000a 2846     		mov	r0, r5
 342              	.LVL43:
 343 000c FFF7FEFF 		bl	vTaskDelay
 344              	.LVL44:
 191:Source\bsw\FreeRTOS\src/mpu_wrappers.c **** 		vPortResetPrivilege( xRunningPrivileged );
 345              		.loc 1 191 0
 346 0010 2046     		mov	r0, r4
 347 0012 FFF7FEFF 		bl	vPortResetPrivilege
 348              	.LVL45:
 349 0016 38BD     		pop	{r3, r4, r5, pc}
 350              		.cfi_endproc
 351              	.LFE75:
 352              		.size	MPU_vTaskDelay, .-MPU_vTaskDelay
 353              		.section	.text.MPU_uxTaskPriorityGet,"ax",%progbits
 354              		.align	2
 355              		.global	MPU_uxTaskPriorityGet
 356              		.thumb
 357              		.thumb_func
 358              		.type	MPU_uxTaskPriorityGet, %function
 359              	MPU_uxTaskPriorityGet:
 360              	.LFB76:
 192:Source\bsw\FreeRTOS\src/mpu_wrappers.c **** 	}
 193:Source\bsw\FreeRTOS\src/mpu_wrappers.c **** #endif
 194:Source\bsw\FreeRTOS\src/mpu_wrappers.c **** /*-----------------------------------------------------------*/
 195:Source\bsw\FreeRTOS\src/mpu_wrappers.c **** 
 196:Source\bsw\FreeRTOS\src/mpu_wrappers.c **** #if ( INCLUDE_uxTaskPriorityGet == 1 )
 197:Source\bsw\FreeRTOS\src/mpu_wrappers.c **** 	UBaseType_t MPU_uxTaskPriorityGet( const TaskHandle_t pxTask ) /* FREERTOS_SYSTEM_CALL */
 198:Source\bsw\FreeRTOS\src/mpu_wrappers.c **** 	{
 361              		.loc 1 198 0
 362              		.cfi_startproc
 363              		@ args = 0, pretend = 0, frame = 0
 364              		@ frame_needed = 0, uses_anonymous_args = 0
 365              	.LVL46:
 366 0000 38B5     		push	{r3, r4, r5, lr}
 367              		.cfi_def_cfa_offset 16
 368              		.cfi_offset 3, -16
 369              		.cfi_offset 4, -12
 370              		.cfi_offset 5, -8
 371              		.cfi_offset 14, -4
ARM GAS  C:\Users\Reza\AppData\Local\Temp\cckOPwM0.s 			page 11


 372 0002 0446     		mov	r4, r0
 199:Source\bsw\FreeRTOS\src/mpu_wrappers.c **** 	UBaseType_t uxReturn;
 200:Source\bsw\FreeRTOS\src/mpu_wrappers.c **** 	BaseType_t xRunningPrivileged = xPortRaisePrivilege();
 373              		.loc 1 200 0
 374 0004 FFF7FEFF 		bl	xPortRaisePrivilege
 375              	.LVL47:
 376 0008 0546     		mov	r5, r0
 377              	.LVL48:
 201:Source\bsw\FreeRTOS\src/mpu_wrappers.c **** 
 202:Source\bsw\FreeRTOS\src/mpu_wrappers.c **** 		uxReturn = uxTaskPriorityGet( pxTask );
 378              		.loc 1 202 0
 379 000a 2046     		mov	r0, r4
 380              	.LVL49:
 381 000c FFF7FEFF 		bl	uxTaskPriorityGet
 382              	.LVL50:
 383 0010 0446     		mov	r4, r0
 384              	.LVL51:
 203:Source\bsw\FreeRTOS\src/mpu_wrappers.c **** 		vPortResetPrivilege( xRunningPrivileged );
 385              		.loc 1 203 0
 386 0012 2846     		mov	r0, r5
 387              	.LVL52:
 388 0014 FFF7FEFF 		bl	vPortResetPrivilege
 389              	.LVL53:
 204:Source\bsw\FreeRTOS\src/mpu_wrappers.c **** 		return uxReturn;
 205:Source\bsw\FreeRTOS\src/mpu_wrappers.c **** 	}
 390              		.loc 1 205 0
 391 0018 2046     		mov	r0, r4
 392 001a 38BD     		pop	{r3, r4, r5, pc}
 393              		.cfi_endproc
 394              	.LFE76:
 395              		.size	MPU_uxTaskPriorityGet, .-MPU_uxTaskPriorityGet
 396              		.section	.text.MPU_vTaskPrioritySet,"ax",%progbits
 397              		.align	2
 398              		.global	MPU_vTaskPrioritySet
 399              		.thumb
 400              		.thumb_func
 401              		.type	MPU_vTaskPrioritySet, %function
 402              	MPU_vTaskPrioritySet:
 403              	.LFB77:
 206:Source\bsw\FreeRTOS\src/mpu_wrappers.c **** #endif
 207:Source\bsw\FreeRTOS\src/mpu_wrappers.c **** /*-----------------------------------------------------------*/
 208:Source\bsw\FreeRTOS\src/mpu_wrappers.c **** 
 209:Source\bsw\FreeRTOS\src/mpu_wrappers.c **** #if ( INCLUDE_vTaskPrioritySet == 1 )
 210:Source\bsw\FreeRTOS\src/mpu_wrappers.c **** 	void MPU_vTaskPrioritySet( TaskHandle_t pxTask, UBaseType_t uxNewPriority ) /* FREERTOS_SYSTEM_CAL
 211:Source\bsw\FreeRTOS\src/mpu_wrappers.c **** 	{
 404              		.loc 1 211 0
 405              		.cfi_startproc
 406              		@ args = 0, pretend = 0, frame = 0
 407              		@ frame_needed = 0, uses_anonymous_args = 0
 408              	.LVL54:
 409 0000 70B5     		push	{r4, r5, r6, lr}
 410              		.cfi_def_cfa_offset 16
 411              		.cfi_offset 4, -16
 412              		.cfi_offset 5, -12
 413              		.cfi_offset 6, -8
 414              		.cfi_offset 14, -4
 415 0002 0546     		mov	r5, r0
ARM GAS  C:\Users\Reza\AppData\Local\Temp\cckOPwM0.s 			page 12


 416 0004 0E46     		mov	r6, r1
 212:Source\bsw\FreeRTOS\src/mpu_wrappers.c **** 	BaseType_t xRunningPrivileged = xPortRaisePrivilege();
 417              		.loc 1 212 0
 418 0006 FFF7FEFF 		bl	xPortRaisePrivilege
 419              	.LVL55:
 420 000a 0446     		mov	r4, r0
 421              	.LVL56:
 213:Source\bsw\FreeRTOS\src/mpu_wrappers.c **** 
 214:Source\bsw\FreeRTOS\src/mpu_wrappers.c **** 		vTaskPrioritySet( pxTask, uxNewPriority );
 422              		.loc 1 214 0
 423 000c 3146     		mov	r1, r6
 424 000e 2846     		mov	r0, r5
 425              	.LVL57:
 426 0010 FFF7FEFF 		bl	vTaskPrioritySet
 427              	.LVL58:
 215:Source\bsw\FreeRTOS\src/mpu_wrappers.c **** 		vPortResetPrivilege( xRunningPrivileged );
 428              		.loc 1 215 0
 429 0014 2046     		mov	r0, r4
 430 0016 FFF7FEFF 		bl	vPortResetPrivilege
 431              	.LVL59:
 432 001a 70BD     		pop	{r4, r5, r6, pc}
 433              		.cfi_endproc
 434              	.LFE77:
 435              		.size	MPU_vTaskPrioritySet, .-MPU_vTaskPrioritySet
 436              		.section	.text.MPU_eTaskGetState,"ax",%progbits
 437              		.align	2
 438              		.global	MPU_eTaskGetState
 439              		.thumb
 440              		.thumb_func
 441              		.type	MPU_eTaskGetState, %function
 442              	MPU_eTaskGetState:
 443              	.LFB78:
 216:Source\bsw\FreeRTOS\src/mpu_wrappers.c **** 	}
 217:Source\bsw\FreeRTOS\src/mpu_wrappers.c **** #endif
 218:Source\bsw\FreeRTOS\src/mpu_wrappers.c **** /*-----------------------------------------------------------*/
 219:Source\bsw\FreeRTOS\src/mpu_wrappers.c **** 
 220:Source\bsw\FreeRTOS\src/mpu_wrappers.c **** #if ( INCLUDE_eTaskGetState == 1 )
 221:Source\bsw\FreeRTOS\src/mpu_wrappers.c **** 	eTaskState MPU_eTaskGetState( TaskHandle_t pxTask ) /* FREERTOS_SYSTEM_CALL */
 222:Source\bsw\FreeRTOS\src/mpu_wrappers.c **** 	{
 444              		.loc 1 222 0
 445              		.cfi_startproc
 446              		@ args = 0, pretend = 0, frame = 0
 447              		@ frame_needed = 0, uses_anonymous_args = 0
 448              	.LVL60:
 449 0000 38B5     		push	{r3, r4, r5, lr}
 450              		.cfi_def_cfa_offset 16
 451              		.cfi_offset 3, -16
 452              		.cfi_offset 4, -12
 453              		.cfi_offset 5, -8
 454              		.cfi_offset 14, -4
 455 0002 0446     		mov	r4, r0
 223:Source\bsw\FreeRTOS\src/mpu_wrappers.c **** 	BaseType_t xRunningPrivileged = xPortRaisePrivilege();
 456              		.loc 1 223 0
 457 0004 FFF7FEFF 		bl	xPortRaisePrivilege
 458              	.LVL61:
 459 0008 0546     		mov	r5, r0
 460              	.LVL62:
ARM GAS  C:\Users\Reza\AppData\Local\Temp\cckOPwM0.s 			page 13


 224:Source\bsw\FreeRTOS\src/mpu_wrappers.c **** 	eTaskState eReturn;
 225:Source\bsw\FreeRTOS\src/mpu_wrappers.c **** 
 226:Source\bsw\FreeRTOS\src/mpu_wrappers.c **** 		eReturn = eTaskGetState( pxTask );
 461              		.loc 1 226 0
 462 000a 2046     		mov	r0, r4
 463              	.LVL63:
 464 000c FFF7FEFF 		bl	eTaskGetState
 465              	.LVL64:
 466 0010 0446     		mov	r4, r0
 467              	.LVL65:
 227:Source\bsw\FreeRTOS\src/mpu_wrappers.c **** 		vPortResetPrivilege( xRunningPrivileged );
 468              		.loc 1 227 0
 469 0012 2846     		mov	r0, r5
 470 0014 FFF7FEFF 		bl	vPortResetPrivilege
 471              	.LVL66:
 228:Source\bsw\FreeRTOS\src/mpu_wrappers.c **** 		return eReturn;
 229:Source\bsw\FreeRTOS\src/mpu_wrappers.c **** 	}
 472              		.loc 1 229 0
 473 0018 2046     		mov	r0, r4
 474 001a 38BD     		pop	{r3, r4, r5, pc}
 475              		.cfi_endproc
 476              	.LFE78:
 477              		.size	MPU_eTaskGetState, .-MPU_eTaskGetState
 478              		.section	.text.MPU_vTaskSuspend,"ax",%progbits
 479              		.align	2
 480              		.global	MPU_vTaskSuspend
 481              		.thumb
 482              		.thumb_func
 483              		.type	MPU_vTaskSuspend, %function
 484              	MPU_vTaskSuspend:
 485              	.LFB79:
 230:Source\bsw\FreeRTOS\src/mpu_wrappers.c **** #endif
 231:Source\bsw\FreeRTOS\src/mpu_wrappers.c **** /*-----------------------------------------------------------*/
 232:Source\bsw\FreeRTOS\src/mpu_wrappers.c **** 
 233:Source\bsw\FreeRTOS\src/mpu_wrappers.c **** #if( configUSE_TRACE_FACILITY == 1 )
 234:Source\bsw\FreeRTOS\src/mpu_wrappers.c **** 	void MPU_vTaskGetInfo( TaskHandle_t xTask, TaskStatus_t *pxTaskStatus, BaseType_t xGetFreeStackSpa
 235:Source\bsw\FreeRTOS\src/mpu_wrappers.c **** 	{
 236:Source\bsw\FreeRTOS\src/mpu_wrappers.c **** 	BaseType_t xRunningPrivileged = xPortRaisePrivilege();
 237:Source\bsw\FreeRTOS\src/mpu_wrappers.c **** 
 238:Source\bsw\FreeRTOS\src/mpu_wrappers.c **** 		vTaskGetInfo( xTask, pxTaskStatus, xGetFreeStackSpace, eState );
 239:Source\bsw\FreeRTOS\src/mpu_wrappers.c **** 		vPortResetPrivilege( xRunningPrivileged );
 240:Source\bsw\FreeRTOS\src/mpu_wrappers.c **** 	}
 241:Source\bsw\FreeRTOS\src/mpu_wrappers.c **** #endif
 242:Source\bsw\FreeRTOS\src/mpu_wrappers.c **** /*-----------------------------------------------------------*/
 243:Source\bsw\FreeRTOS\src/mpu_wrappers.c **** 
 244:Source\bsw\FreeRTOS\src/mpu_wrappers.c **** #if ( INCLUDE_xTaskGetIdleTaskHandle == 1 )
 245:Source\bsw\FreeRTOS\src/mpu_wrappers.c **** 	TaskHandle_t MPU_xTaskGetIdleTaskHandle( void ) /* FREERTOS_SYSTEM_CALL */
 246:Source\bsw\FreeRTOS\src/mpu_wrappers.c **** 	{
 247:Source\bsw\FreeRTOS\src/mpu_wrappers.c **** 	TaskHandle_t xReturn;
 248:Source\bsw\FreeRTOS\src/mpu_wrappers.c **** 	BaseType_t xRunningPrivileged = xPortRaisePrivilege();
 249:Source\bsw\FreeRTOS\src/mpu_wrappers.c **** 
 250:Source\bsw\FreeRTOS\src/mpu_wrappers.c **** 		xReturn = xTaskGetIdleTaskHandle();
 251:Source\bsw\FreeRTOS\src/mpu_wrappers.c **** 		vPortResetPrivilege( xRunningPrivileged );
 252:Source\bsw\FreeRTOS\src/mpu_wrappers.c **** 		return xReturn;
 253:Source\bsw\FreeRTOS\src/mpu_wrappers.c **** 	}
 254:Source\bsw\FreeRTOS\src/mpu_wrappers.c **** #endif
 255:Source\bsw\FreeRTOS\src/mpu_wrappers.c **** /*-----------------------------------------------------------*/
ARM GAS  C:\Users\Reza\AppData\Local\Temp\cckOPwM0.s 			page 14


 256:Source\bsw\FreeRTOS\src/mpu_wrappers.c **** 
 257:Source\bsw\FreeRTOS\src/mpu_wrappers.c **** #if ( INCLUDE_vTaskSuspend == 1 )
 258:Source\bsw\FreeRTOS\src/mpu_wrappers.c **** 	void MPU_vTaskSuspend( TaskHandle_t pxTaskToSuspend ) /* FREERTOS_SYSTEM_CALL */
 259:Source\bsw\FreeRTOS\src/mpu_wrappers.c **** 	{
 486              		.loc 1 259 0
 487              		.cfi_startproc
 488              		@ args = 0, pretend = 0, frame = 0
 489              		@ frame_needed = 0, uses_anonymous_args = 0
 490              	.LVL67:
 491 0000 38B5     		push	{r3, r4, r5, lr}
 492              		.cfi_def_cfa_offset 16
 493              		.cfi_offset 3, -16
 494              		.cfi_offset 4, -12
 495              		.cfi_offset 5, -8
 496              		.cfi_offset 14, -4
 497 0002 0546     		mov	r5, r0
 260:Source\bsw\FreeRTOS\src/mpu_wrappers.c **** 	BaseType_t xRunningPrivileged = xPortRaisePrivilege();
 498              		.loc 1 260 0
 499 0004 FFF7FEFF 		bl	xPortRaisePrivilege
 500              	.LVL68:
 501 0008 0446     		mov	r4, r0
 502              	.LVL69:
 261:Source\bsw\FreeRTOS\src/mpu_wrappers.c **** 
 262:Source\bsw\FreeRTOS\src/mpu_wrappers.c **** 		vTaskSuspend( pxTaskToSuspend );
 503              		.loc 1 262 0
 504 000a 2846     		mov	r0, r5
 505              	.LVL70:
 506 000c FFF7FEFF 		bl	vTaskSuspend
 507              	.LVL71:
 263:Source\bsw\FreeRTOS\src/mpu_wrappers.c **** 		vPortResetPrivilege( xRunningPrivileged );
 508              		.loc 1 263 0
 509 0010 2046     		mov	r0, r4
 510 0012 FFF7FEFF 		bl	vPortResetPrivilege
 511              	.LVL72:
 512 0016 38BD     		pop	{r3, r4, r5, pc}
 513              		.cfi_endproc
 514              	.LFE79:
 515              		.size	MPU_vTaskSuspend, .-MPU_vTaskSuspend
 516              		.section	.text.MPU_vTaskResume,"ax",%progbits
 517              		.align	2
 518              		.global	MPU_vTaskResume
 519              		.thumb
 520              		.thumb_func
 521              		.type	MPU_vTaskResume, %function
 522              	MPU_vTaskResume:
 523              	.LFB80:
 264:Source\bsw\FreeRTOS\src/mpu_wrappers.c **** 	}
 265:Source\bsw\FreeRTOS\src/mpu_wrappers.c **** #endif
 266:Source\bsw\FreeRTOS\src/mpu_wrappers.c **** /*-----------------------------------------------------------*/
 267:Source\bsw\FreeRTOS\src/mpu_wrappers.c **** 
 268:Source\bsw\FreeRTOS\src/mpu_wrappers.c **** #if ( INCLUDE_vTaskSuspend == 1 )
 269:Source\bsw\FreeRTOS\src/mpu_wrappers.c **** 	void MPU_vTaskResume( TaskHandle_t pxTaskToResume ) /* FREERTOS_SYSTEM_CALL */
 270:Source\bsw\FreeRTOS\src/mpu_wrappers.c **** 	{
 524              		.loc 1 270 0
 525              		.cfi_startproc
 526              		@ args = 0, pretend = 0, frame = 0
 527              		@ frame_needed = 0, uses_anonymous_args = 0
ARM GAS  C:\Users\Reza\AppData\Local\Temp\cckOPwM0.s 			page 15


 528              	.LVL73:
 529 0000 38B5     		push	{r3, r4, r5, lr}
 530              		.cfi_def_cfa_offset 16
 531              		.cfi_offset 3, -16
 532              		.cfi_offset 4, -12
 533              		.cfi_offset 5, -8
 534              		.cfi_offset 14, -4
 535 0002 0546     		mov	r5, r0
 271:Source\bsw\FreeRTOS\src/mpu_wrappers.c **** 	BaseType_t xRunningPrivileged = xPortRaisePrivilege();
 536              		.loc 1 271 0
 537 0004 FFF7FEFF 		bl	xPortRaisePrivilege
 538              	.LVL74:
 539 0008 0446     		mov	r4, r0
 540              	.LVL75:
 272:Source\bsw\FreeRTOS\src/mpu_wrappers.c **** 
 273:Source\bsw\FreeRTOS\src/mpu_wrappers.c **** 		vTaskResume( pxTaskToResume );
 541              		.loc 1 273 0
 542 000a 2846     		mov	r0, r5
 543              	.LVL76:
 544 000c FFF7FEFF 		bl	vTaskResume
 545              	.LVL77:
 274:Source\bsw\FreeRTOS\src/mpu_wrappers.c **** 		vPortResetPrivilege( xRunningPrivileged );
 546              		.loc 1 274 0
 547 0010 2046     		mov	r0, r4
 548 0012 FFF7FEFF 		bl	vPortResetPrivilege
 549              	.LVL78:
 550 0016 38BD     		pop	{r3, r4, r5, pc}
 551              		.cfi_endproc
 552              	.LFE80:
 553              		.size	MPU_vTaskResume, .-MPU_vTaskResume
 554              		.section	.text.MPU_vTaskSuspendAll,"ax",%progbits
 555              		.align	2
 556              		.global	MPU_vTaskSuspendAll
 557              		.thumb
 558              		.thumb_func
 559              		.type	MPU_vTaskSuspendAll, %function
 560              	MPU_vTaskSuspendAll:
 561              	.LFB81:
 275:Source\bsw\FreeRTOS\src/mpu_wrappers.c **** 	}
 276:Source\bsw\FreeRTOS\src/mpu_wrappers.c **** #endif
 277:Source\bsw\FreeRTOS\src/mpu_wrappers.c **** /*-----------------------------------------------------------*/
 278:Source\bsw\FreeRTOS\src/mpu_wrappers.c **** 
 279:Source\bsw\FreeRTOS\src/mpu_wrappers.c **** void MPU_vTaskSuspendAll( void ) /* FREERTOS_SYSTEM_CALL */
 280:Source\bsw\FreeRTOS\src/mpu_wrappers.c **** {
 562              		.loc 1 280 0
 563              		.cfi_startproc
 564              		@ args = 0, pretend = 0, frame = 0
 565              		@ frame_needed = 0, uses_anonymous_args = 0
 566 0000 10B5     		push	{r4, lr}
 567              		.cfi_def_cfa_offset 8
 568              		.cfi_offset 4, -8
 569              		.cfi_offset 14, -4
 281:Source\bsw\FreeRTOS\src/mpu_wrappers.c **** BaseType_t xRunningPrivileged = xPortRaisePrivilege();
 570              		.loc 1 281 0
 571 0002 FFF7FEFF 		bl	xPortRaisePrivilege
 572              	.LVL79:
 573 0006 0446     		mov	r4, r0
ARM GAS  C:\Users\Reza\AppData\Local\Temp\cckOPwM0.s 			page 16


 574              	.LVL80:
 282:Source\bsw\FreeRTOS\src/mpu_wrappers.c **** 
 283:Source\bsw\FreeRTOS\src/mpu_wrappers.c **** 	vTaskSuspendAll();
 575              		.loc 1 283 0
 576 0008 FFF7FEFF 		bl	vTaskSuspendAll
 577              	.LVL81:
 284:Source\bsw\FreeRTOS\src/mpu_wrappers.c **** 	vPortResetPrivilege( xRunningPrivileged );
 578              		.loc 1 284 0
 579 000c 2046     		mov	r0, r4
 580 000e FFF7FEFF 		bl	vPortResetPrivilege
 581              	.LVL82:
 582 0012 10BD     		pop	{r4, pc}
 583              		.cfi_endproc
 584              	.LFE81:
 585              		.size	MPU_vTaskSuspendAll, .-MPU_vTaskSuspendAll
 586              		.section	.text.MPU_xTaskResumeAll,"ax",%progbits
 587              		.align	2
 588              		.global	MPU_xTaskResumeAll
 589              		.thumb
 590              		.thumb_func
 591              		.type	MPU_xTaskResumeAll, %function
 592              	MPU_xTaskResumeAll:
 593              	.LFB82:
 285:Source\bsw\FreeRTOS\src/mpu_wrappers.c **** }
 286:Source\bsw\FreeRTOS\src/mpu_wrappers.c **** /*-----------------------------------------------------------*/
 287:Source\bsw\FreeRTOS\src/mpu_wrappers.c **** 
 288:Source\bsw\FreeRTOS\src/mpu_wrappers.c **** BaseType_t MPU_xTaskResumeAll( void ) /* FREERTOS_SYSTEM_CALL */
 289:Source\bsw\FreeRTOS\src/mpu_wrappers.c **** {
 594              		.loc 1 289 0
 595              		.cfi_startproc
 596              		@ args = 0, pretend = 0, frame = 0
 597              		@ frame_needed = 0, uses_anonymous_args = 0
 598 0000 38B5     		push	{r3, r4, r5, lr}
 599              		.cfi_def_cfa_offset 16
 600              		.cfi_offset 3, -16
 601              		.cfi_offset 4, -12
 602              		.cfi_offset 5, -8
 603              		.cfi_offset 14, -4
 290:Source\bsw\FreeRTOS\src/mpu_wrappers.c **** BaseType_t xReturn;
 291:Source\bsw\FreeRTOS\src/mpu_wrappers.c **** BaseType_t xRunningPrivileged = xPortRaisePrivilege();
 604              		.loc 1 291 0
 605 0002 FFF7FEFF 		bl	xPortRaisePrivilege
 606              	.LVL83:
 607 0006 0546     		mov	r5, r0
 608              	.LVL84:
 292:Source\bsw\FreeRTOS\src/mpu_wrappers.c **** 
 293:Source\bsw\FreeRTOS\src/mpu_wrappers.c **** 	xReturn = xTaskResumeAll();
 609              		.loc 1 293 0
 610 0008 FFF7FEFF 		bl	xTaskResumeAll
 611              	.LVL85:
 612 000c 0446     		mov	r4, r0
 613              	.LVL86:
 294:Source\bsw\FreeRTOS\src/mpu_wrappers.c **** 	vPortResetPrivilege( xRunningPrivileged );
 614              		.loc 1 294 0
 615 000e 2846     		mov	r0, r5
 616              	.LVL87:
 617 0010 FFF7FEFF 		bl	vPortResetPrivilege
ARM GAS  C:\Users\Reza\AppData\Local\Temp\cckOPwM0.s 			page 17


 618              	.LVL88:
 295:Source\bsw\FreeRTOS\src/mpu_wrappers.c **** 	return xReturn;
 296:Source\bsw\FreeRTOS\src/mpu_wrappers.c **** }
 619              		.loc 1 296 0
 620 0014 2046     		mov	r0, r4
 621 0016 38BD     		pop	{r3, r4, r5, pc}
 622              		.cfi_endproc
 623              	.LFE82:
 624              		.size	MPU_xTaskResumeAll, .-MPU_xTaskResumeAll
 625              		.section	.text.MPU_xTaskGetTickCount,"ax",%progbits
 626              		.align	2
 627              		.global	MPU_xTaskGetTickCount
 628              		.thumb
 629              		.thumb_func
 630              		.type	MPU_xTaskGetTickCount, %function
 631              	MPU_xTaskGetTickCount:
 632              	.LFB83:
 297:Source\bsw\FreeRTOS\src/mpu_wrappers.c **** /*-----------------------------------------------------------*/
 298:Source\bsw\FreeRTOS\src/mpu_wrappers.c **** 
 299:Source\bsw\FreeRTOS\src/mpu_wrappers.c **** TickType_t MPU_xTaskGetTickCount( void ) /* FREERTOS_SYSTEM_CALL */
 300:Source\bsw\FreeRTOS\src/mpu_wrappers.c **** {
 633              		.loc 1 300 0
 634              		.cfi_startproc
 635              		@ args = 0, pretend = 0, frame = 0
 636              		@ frame_needed = 0, uses_anonymous_args = 0
 637 0000 38B5     		push	{r3, r4, r5, lr}
 638              		.cfi_def_cfa_offset 16
 639              		.cfi_offset 3, -16
 640              		.cfi_offset 4, -12
 641              		.cfi_offset 5, -8
 642              		.cfi_offset 14, -4
 301:Source\bsw\FreeRTOS\src/mpu_wrappers.c **** TickType_t xReturn;
 302:Source\bsw\FreeRTOS\src/mpu_wrappers.c **** BaseType_t xRunningPrivileged = xPortRaisePrivilege();
 643              		.loc 1 302 0
 644 0002 FFF7FEFF 		bl	xPortRaisePrivilege
 645              	.LVL89:
 646 0006 0546     		mov	r5, r0
 647              	.LVL90:
 303:Source\bsw\FreeRTOS\src/mpu_wrappers.c **** 
 304:Source\bsw\FreeRTOS\src/mpu_wrappers.c **** 	xReturn = xTaskGetTickCount();
 648              		.loc 1 304 0
 649 0008 FFF7FEFF 		bl	xTaskGetTickCount
 650              	.LVL91:
 651 000c 0446     		mov	r4, r0
 652              	.LVL92:
 305:Source\bsw\FreeRTOS\src/mpu_wrappers.c **** 	vPortResetPrivilege( xRunningPrivileged );
 653              		.loc 1 305 0
 654 000e 2846     		mov	r0, r5
 655              	.LVL93:
 656 0010 FFF7FEFF 		bl	vPortResetPrivilege
 657              	.LVL94:
 306:Source\bsw\FreeRTOS\src/mpu_wrappers.c **** 	return xReturn;
 307:Source\bsw\FreeRTOS\src/mpu_wrappers.c **** }
 658              		.loc 1 307 0
 659 0014 2046     		mov	r0, r4
 660 0016 38BD     		pop	{r3, r4, r5, pc}
 661              		.cfi_endproc
ARM GAS  C:\Users\Reza\AppData\Local\Temp\cckOPwM0.s 			page 18


 662              	.LFE83:
 663              		.size	MPU_xTaskGetTickCount, .-MPU_xTaskGetTickCount
 664              		.section	.text.MPU_uxTaskGetNumberOfTasks,"ax",%progbits
 665              		.align	2
 666              		.global	MPU_uxTaskGetNumberOfTasks
 667              		.thumb
 668              		.thumb_func
 669              		.type	MPU_uxTaskGetNumberOfTasks, %function
 670              	MPU_uxTaskGetNumberOfTasks:
 671              	.LFB84:
 308:Source\bsw\FreeRTOS\src/mpu_wrappers.c **** /*-----------------------------------------------------------*/
 309:Source\bsw\FreeRTOS\src/mpu_wrappers.c **** 
 310:Source\bsw\FreeRTOS\src/mpu_wrappers.c **** UBaseType_t MPU_uxTaskGetNumberOfTasks( void ) /* FREERTOS_SYSTEM_CALL */
 311:Source\bsw\FreeRTOS\src/mpu_wrappers.c **** {
 672              		.loc 1 311 0
 673              		.cfi_startproc
 674              		@ args = 0, pretend = 0, frame = 0
 675              		@ frame_needed = 0, uses_anonymous_args = 0
 676 0000 38B5     		push	{r3, r4, r5, lr}
 677              		.cfi_def_cfa_offset 16
 678              		.cfi_offset 3, -16
 679              		.cfi_offset 4, -12
 680              		.cfi_offset 5, -8
 681              		.cfi_offset 14, -4
 312:Source\bsw\FreeRTOS\src/mpu_wrappers.c **** UBaseType_t uxReturn;
 313:Source\bsw\FreeRTOS\src/mpu_wrappers.c **** BaseType_t xRunningPrivileged = xPortRaisePrivilege();
 682              		.loc 1 313 0
 683 0002 FFF7FEFF 		bl	xPortRaisePrivilege
 684              	.LVL95:
 685 0006 0546     		mov	r5, r0
 686              	.LVL96:
 314:Source\bsw\FreeRTOS\src/mpu_wrappers.c **** 
 315:Source\bsw\FreeRTOS\src/mpu_wrappers.c **** 	uxReturn = uxTaskGetNumberOfTasks();
 687              		.loc 1 315 0
 688 0008 FFF7FEFF 		bl	uxTaskGetNumberOfTasks
 689              	.LVL97:
 690 000c 0446     		mov	r4, r0
 691              	.LVL98:
 316:Source\bsw\FreeRTOS\src/mpu_wrappers.c **** 	vPortResetPrivilege( xRunningPrivileged );
 692              		.loc 1 316 0
 693 000e 2846     		mov	r0, r5
 694              	.LVL99:
 695 0010 FFF7FEFF 		bl	vPortResetPrivilege
 696              	.LVL100:
 317:Source\bsw\FreeRTOS\src/mpu_wrappers.c **** 	return uxReturn;
 318:Source\bsw\FreeRTOS\src/mpu_wrappers.c **** }
 697              		.loc 1 318 0
 698 0014 2046     		mov	r0, r4
 699 0016 38BD     		pop	{r3, r4, r5, pc}
 700              		.cfi_endproc
 701              	.LFE84:
 702              		.size	MPU_uxTaskGetNumberOfTasks, .-MPU_uxTaskGetNumberOfTasks
 703              		.section	.text.MPU_pcTaskGetName,"ax",%progbits
 704              		.align	2
 705              		.global	MPU_pcTaskGetName
 706              		.thumb
 707              		.thumb_func
ARM GAS  C:\Users\Reza\AppData\Local\Temp\cckOPwM0.s 			page 19


 708              		.type	MPU_pcTaskGetName, %function
 709              	MPU_pcTaskGetName:
 710              	.LFB85:
 319:Source\bsw\FreeRTOS\src/mpu_wrappers.c **** /*-----------------------------------------------------------*/
 320:Source\bsw\FreeRTOS\src/mpu_wrappers.c **** 
 321:Source\bsw\FreeRTOS\src/mpu_wrappers.c **** char * MPU_pcTaskGetName( TaskHandle_t xTaskToQuery ) /* FREERTOS_SYSTEM_CALL */
 322:Source\bsw\FreeRTOS\src/mpu_wrappers.c **** {
 711              		.loc 1 322 0
 712              		.cfi_startproc
 713              		@ args = 0, pretend = 0, frame = 0
 714              		@ frame_needed = 0, uses_anonymous_args = 0
 715              	.LVL101:
 716 0000 38B5     		push	{r3, r4, r5, lr}
 717              		.cfi_def_cfa_offset 16
 718              		.cfi_offset 3, -16
 719              		.cfi_offset 4, -12
 720              		.cfi_offset 5, -8
 721              		.cfi_offset 14, -4
 722 0002 0446     		mov	r4, r0
 323:Source\bsw\FreeRTOS\src/mpu_wrappers.c **** char *pcReturn;
 324:Source\bsw\FreeRTOS\src/mpu_wrappers.c **** BaseType_t xRunningPrivileged = xPortRaisePrivilege();
 723              		.loc 1 324 0
 724 0004 FFF7FEFF 		bl	xPortRaisePrivilege
 725              	.LVL102:
 726 0008 0546     		mov	r5, r0
 727              	.LVL103:
 325:Source\bsw\FreeRTOS\src/mpu_wrappers.c **** 
 326:Source\bsw\FreeRTOS\src/mpu_wrappers.c **** 	pcReturn = pcTaskGetName( xTaskToQuery );
 728              		.loc 1 326 0
 729 000a 2046     		mov	r0, r4
 730              	.LVL104:
 731 000c FFF7FEFF 		bl	pcTaskGetName
 732              	.LVL105:
 733 0010 0446     		mov	r4, r0
 734              	.LVL106:
 327:Source\bsw\FreeRTOS\src/mpu_wrappers.c **** 	vPortResetPrivilege( xRunningPrivileged );
 735              		.loc 1 327 0
 736 0012 2846     		mov	r0, r5
 737              	.LVL107:
 738 0014 FFF7FEFF 		bl	vPortResetPrivilege
 739              	.LVL108:
 328:Source\bsw\FreeRTOS\src/mpu_wrappers.c **** 	return pcReturn;
 329:Source\bsw\FreeRTOS\src/mpu_wrappers.c **** }
 740              		.loc 1 329 0
 741 0018 2046     		mov	r0, r4
 742 001a 38BD     		pop	{r3, r4, r5, pc}
 743              		.cfi_endproc
 744              	.LFE85:
 745              		.size	MPU_pcTaskGetName, .-MPU_pcTaskGetName
 746              		.section	.text.MPU_xTaskCatchUpTicks,"ax",%progbits
 747              		.align	2
 748              		.global	MPU_xTaskCatchUpTicks
 749              		.thumb
 750              		.thumb_func
 751              		.type	MPU_xTaskCatchUpTicks, %function
 752              	MPU_xTaskCatchUpTicks:
 753              	.LFB86:
ARM GAS  C:\Users\Reza\AppData\Local\Temp\cckOPwM0.s 			page 20


 330:Source\bsw\FreeRTOS\src/mpu_wrappers.c **** /*-----------------------------------------------------------*/
 331:Source\bsw\FreeRTOS\src/mpu_wrappers.c **** 
 332:Source\bsw\FreeRTOS\src/mpu_wrappers.c **** #if ( INCLUDE_xTaskGetHandle == 1 )
 333:Source\bsw\FreeRTOS\src/mpu_wrappers.c **** 	TaskHandle_t MPU_xTaskGetHandle( const char *pcNameToQuery ) /* FREERTOS_SYSTEM_CALL */
 334:Source\bsw\FreeRTOS\src/mpu_wrappers.c **** 	{
 335:Source\bsw\FreeRTOS\src/mpu_wrappers.c **** 	TaskHandle_t xReturn;
 336:Source\bsw\FreeRTOS\src/mpu_wrappers.c **** 	BaseType_t xRunningPrivileged = xPortRaisePrivilege();
 337:Source\bsw\FreeRTOS\src/mpu_wrappers.c **** 
 338:Source\bsw\FreeRTOS\src/mpu_wrappers.c **** 		xReturn = xTaskGetHandle( pcNameToQuery );
 339:Source\bsw\FreeRTOS\src/mpu_wrappers.c **** 		vPortResetPrivilege( xRunningPrivileged );
 340:Source\bsw\FreeRTOS\src/mpu_wrappers.c **** 		return xReturn;
 341:Source\bsw\FreeRTOS\src/mpu_wrappers.c **** 	}
 342:Source\bsw\FreeRTOS\src/mpu_wrappers.c **** #endif
 343:Source\bsw\FreeRTOS\src/mpu_wrappers.c **** /*-----------------------------------------------------------*/
 344:Source\bsw\FreeRTOS\src/mpu_wrappers.c **** 
 345:Source\bsw\FreeRTOS\src/mpu_wrappers.c **** #if ( ( configUSE_TRACE_FACILITY == 1 ) && ( configUSE_STATS_FORMATTING_FUNCTIONS > 0 ) && ( config
 346:Source\bsw\FreeRTOS\src/mpu_wrappers.c **** 	void MPU_vTaskList( char *pcWriteBuffer ) /* FREERTOS_SYSTEM_CALL */
 347:Source\bsw\FreeRTOS\src/mpu_wrappers.c **** 	{
 348:Source\bsw\FreeRTOS\src/mpu_wrappers.c **** 	BaseType_t xRunningPrivileged = xPortRaisePrivilege();
 349:Source\bsw\FreeRTOS\src/mpu_wrappers.c **** 
 350:Source\bsw\FreeRTOS\src/mpu_wrappers.c **** 		vTaskList( pcWriteBuffer );
 351:Source\bsw\FreeRTOS\src/mpu_wrappers.c **** 		vPortResetPrivilege( xRunningPrivileged );
 352:Source\bsw\FreeRTOS\src/mpu_wrappers.c **** 	}
 353:Source\bsw\FreeRTOS\src/mpu_wrappers.c **** #endif
 354:Source\bsw\FreeRTOS\src/mpu_wrappers.c **** /*-----------------------------------------------------------*/
 355:Source\bsw\FreeRTOS\src/mpu_wrappers.c **** 
 356:Source\bsw\FreeRTOS\src/mpu_wrappers.c **** #if ( ( configGENERATE_RUN_TIME_STATS == 1 ) && ( configUSE_STATS_FORMATTING_FUNCTIONS > 0 ) && ( c
 357:Source\bsw\FreeRTOS\src/mpu_wrappers.c **** 	void MPU_vTaskGetRunTimeStats( char *pcWriteBuffer ) /* FREERTOS_SYSTEM_CALL */
 358:Source\bsw\FreeRTOS\src/mpu_wrappers.c **** 	{
 359:Source\bsw\FreeRTOS\src/mpu_wrappers.c **** 	BaseType_t xRunningPrivileged = xPortRaisePrivilege();
 360:Source\bsw\FreeRTOS\src/mpu_wrappers.c **** 
 361:Source\bsw\FreeRTOS\src/mpu_wrappers.c **** 		vTaskGetRunTimeStats( pcWriteBuffer );
 362:Source\bsw\FreeRTOS\src/mpu_wrappers.c **** 		vPortResetPrivilege( xRunningPrivileged );
 363:Source\bsw\FreeRTOS\src/mpu_wrappers.c **** 	}
 364:Source\bsw\FreeRTOS\src/mpu_wrappers.c **** #endif
 365:Source\bsw\FreeRTOS\src/mpu_wrappers.c **** /*-----------------------------------------------------------*/
 366:Source\bsw\FreeRTOS\src/mpu_wrappers.c **** 
 367:Source\bsw\FreeRTOS\src/mpu_wrappers.c **** #if( ( configGENERATE_RUN_TIME_STATS == 1 ) && ( INCLUDE_xTaskGetIdleTaskHandle == 1 ) )
 368:Source\bsw\FreeRTOS\src/mpu_wrappers.c **** 	uint32_t MPU_ulTaskGetIdleRunTimeCounter( void ) /* FREERTOS_SYSTEM_CALL */
 369:Source\bsw\FreeRTOS\src/mpu_wrappers.c **** 	{
 370:Source\bsw\FreeRTOS\src/mpu_wrappers.c **** 	uint32_t xReturn;
 371:Source\bsw\FreeRTOS\src/mpu_wrappers.c **** 	BaseType_t xRunningPrivileged = xPortRaisePrivilege();
 372:Source\bsw\FreeRTOS\src/mpu_wrappers.c **** 
 373:Source\bsw\FreeRTOS\src/mpu_wrappers.c **** 		xReturn = ulTaskGetIdleRunTimeCounter();
 374:Source\bsw\FreeRTOS\src/mpu_wrappers.c **** 		vPortResetPrivilege( xRunningPrivileged );
 375:Source\bsw\FreeRTOS\src/mpu_wrappers.c **** 		return xReturn;
 376:Source\bsw\FreeRTOS\src/mpu_wrappers.c **** 	}
 377:Source\bsw\FreeRTOS\src/mpu_wrappers.c **** #endif
 378:Source\bsw\FreeRTOS\src/mpu_wrappers.c **** /*-----------------------------------------------------------*/
 379:Source\bsw\FreeRTOS\src/mpu_wrappers.c **** 
 380:Source\bsw\FreeRTOS\src/mpu_wrappers.c **** #if ( configUSE_APPLICATION_TASK_TAG == 1 )
 381:Source\bsw\FreeRTOS\src/mpu_wrappers.c **** 	void MPU_vTaskSetApplicationTaskTag( TaskHandle_t xTask, TaskHookFunction_t pxTagValue ) /* FREERT
 382:Source\bsw\FreeRTOS\src/mpu_wrappers.c **** 	{
 383:Source\bsw\FreeRTOS\src/mpu_wrappers.c **** 	BaseType_t xRunningPrivileged = xPortRaisePrivilege();
 384:Source\bsw\FreeRTOS\src/mpu_wrappers.c **** 
 385:Source\bsw\FreeRTOS\src/mpu_wrappers.c **** 		vTaskSetApplicationTaskTag( xTask, pxTagValue );
 386:Source\bsw\FreeRTOS\src/mpu_wrappers.c **** 		vPortResetPrivilege( xRunningPrivileged );
ARM GAS  C:\Users\Reza\AppData\Local\Temp\cckOPwM0.s 			page 21


 387:Source\bsw\FreeRTOS\src/mpu_wrappers.c **** 	}
 388:Source\bsw\FreeRTOS\src/mpu_wrappers.c **** #endif
 389:Source\bsw\FreeRTOS\src/mpu_wrappers.c **** /*-----------------------------------------------------------*/
 390:Source\bsw\FreeRTOS\src/mpu_wrappers.c **** 
 391:Source\bsw\FreeRTOS\src/mpu_wrappers.c **** #if ( configUSE_APPLICATION_TASK_TAG == 1 )
 392:Source\bsw\FreeRTOS\src/mpu_wrappers.c **** 	TaskHookFunction_t MPU_xTaskGetApplicationTaskTag( TaskHandle_t xTask ) /* FREERTOS_SYSTEM_CALL */
 393:Source\bsw\FreeRTOS\src/mpu_wrappers.c **** 	{
 394:Source\bsw\FreeRTOS\src/mpu_wrappers.c **** 	TaskHookFunction_t xReturn;
 395:Source\bsw\FreeRTOS\src/mpu_wrappers.c **** 	BaseType_t xRunningPrivileged = xPortRaisePrivilege();
 396:Source\bsw\FreeRTOS\src/mpu_wrappers.c **** 
 397:Source\bsw\FreeRTOS\src/mpu_wrappers.c **** 		xReturn = xTaskGetApplicationTaskTag( xTask );
 398:Source\bsw\FreeRTOS\src/mpu_wrappers.c **** 		vPortResetPrivilege( xRunningPrivileged );
 399:Source\bsw\FreeRTOS\src/mpu_wrappers.c **** 		return xReturn;
 400:Source\bsw\FreeRTOS\src/mpu_wrappers.c **** 	}
 401:Source\bsw\FreeRTOS\src/mpu_wrappers.c **** #endif
 402:Source\bsw\FreeRTOS\src/mpu_wrappers.c **** /*-----------------------------------------------------------*/
 403:Source\bsw\FreeRTOS\src/mpu_wrappers.c **** 
 404:Source\bsw\FreeRTOS\src/mpu_wrappers.c **** #if ( configNUM_THREAD_LOCAL_STORAGE_POINTERS != 0 )
 405:Source\bsw\FreeRTOS\src/mpu_wrappers.c **** 	void MPU_vTaskSetThreadLocalStoragePointer( TaskHandle_t xTaskToSet, BaseType_t xIndex, void *pvVa
 406:Source\bsw\FreeRTOS\src/mpu_wrappers.c **** 	{
 407:Source\bsw\FreeRTOS\src/mpu_wrappers.c **** 	BaseType_t xRunningPrivileged = xPortRaisePrivilege();
 408:Source\bsw\FreeRTOS\src/mpu_wrappers.c **** 
 409:Source\bsw\FreeRTOS\src/mpu_wrappers.c **** 		vTaskSetThreadLocalStoragePointer( xTaskToSet, xIndex, pvValue );
 410:Source\bsw\FreeRTOS\src/mpu_wrappers.c **** 		vPortResetPrivilege( xRunningPrivileged );
 411:Source\bsw\FreeRTOS\src/mpu_wrappers.c **** 	}
 412:Source\bsw\FreeRTOS\src/mpu_wrappers.c **** #endif
 413:Source\bsw\FreeRTOS\src/mpu_wrappers.c **** /*-----------------------------------------------------------*/
 414:Source\bsw\FreeRTOS\src/mpu_wrappers.c **** 
 415:Source\bsw\FreeRTOS\src/mpu_wrappers.c **** #if ( configNUM_THREAD_LOCAL_STORAGE_POINTERS != 0 )
 416:Source\bsw\FreeRTOS\src/mpu_wrappers.c **** 	void *MPU_pvTaskGetThreadLocalStoragePointer( TaskHandle_t xTaskToQuery, BaseType_t xIndex ) /* FR
 417:Source\bsw\FreeRTOS\src/mpu_wrappers.c **** 	{
 418:Source\bsw\FreeRTOS\src/mpu_wrappers.c **** 	void *pvReturn;
 419:Source\bsw\FreeRTOS\src/mpu_wrappers.c **** 	BaseType_t xRunningPrivileged = xPortRaisePrivilege();
 420:Source\bsw\FreeRTOS\src/mpu_wrappers.c **** 
 421:Source\bsw\FreeRTOS\src/mpu_wrappers.c **** 		pvReturn = pvTaskGetThreadLocalStoragePointer( xTaskToQuery, xIndex );
 422:Source\bsw\FreeRTOS\src/mpu_wrappers.c **** 		vPortResetPrivilege( xRunningPrivileged );
 423:Source\bsw\FreeRTOS\src/mpu_wrappers.c **** 		return pvReturn;
 424:Source\bsw\FreeRTOS\src/mpu_wrappers.c **** 	}
 425:Source\bsw\FreeRTOS\src/mpu_wrappers.c **** #endif
 426:Source\bsw\FreeRTOS\src/mpu_wrappers.c **** /*-----------------------------------------------------------*/
 427:Source\bsw\FreeRTOS\src/mpu_wrappers.c **** 
 428:Source\bsw\FreeRTOS\src/mpu_wrappers.c **** #if ( configUSE_APPLICATION_TASK_TAG == 1 )
 429:Source\bsw\FreeRTOS\src/mpu_wrappers.c **** 	BaseType_t MPU_xTaskCallApplicationTaskHook( TaskHandle_t xTask, void *pvParameter ) /* FREERTOS_S
 430:Source\bsw\FreeRTOS\src/mpu_wrappers.c **** 	{
 431:Source\bsw\FreeRTOS\src/mpu_wrappers.c **** 	BaseType_t xReturn;
 432:Source\bsw\FreeRTOS\src/mpu_wrappers.c **** 	BaseType_t xRunningPrivileged = xPortRaisePrivilege();
 433:Source\bsw\FreeRTOS\src/mpu_wrappers.c **** 
 434:Source\bsw\FreeRTOS\src/mpu_wrappers.c **** 		xReturn = xTaskCallApplicationTaskHook( xTask, pvParameter );
 435:Source\bsw\FreeRTOS\src/mpu_wrappers.c **** 		vPortResetPrivilege( xRunningPrivileged );
 436:Source\bsw\FreeRTOS\src/mpu_wrappers.c **** 		return xReturn;
 437:Source\bsw\FreeRTOS\src/mpu_wrappers.c **** 	}
 438:Source\bsw\FreeRTOS\src/mpu_wrappers.c **** #endif
 439:Source\bsw\FreeRTOS\src/mpu_wrappers.c **** /*-----------------------------------------------------------*/
 440:Source\bsw\FreeRTOS\src/mpu_wrappers.c **** 
 441:Source\bsw\FreeRTOS\src/mpu_wrappers.c **** #if ( configUSE_TRACE_FACILITY == 1 )
 442:Source\bsw\FreeRTOS\src/mpu_wrappers.c **** 	UBaseType_t MPU_uxTaskGetSystemState( TaskStatus_t *pxTaskStatusArray, UBaseType_t uxArraySize, ui
 443:Source\bsw\FreeRTOS\src/mpu_wrappers.c **** 	{
ARM GAS  C:\Users\Reza\AppData\Local\Temp\cckOPwM0.s 			page 22


 444:Source\bsw\FreeRTOS\src/mpu_wrappers.c **** 	UBaseType_t uxReturn;
 445:Source\bsw\FreeRTOS\src/mpu_wrappers.c **** 	BaseType_t xRunningPrivileged = xPortRaisePrivilege();
 446:Source\bsw\FreeRTOS\src/mpu_wrappers.c **** 
 447:Source\bsw\FreeRTOS\src/mpu_wrappers.c **** 		uxReturn = uxTaskGetSystemState( pxTaskStatusArray, uxArraySize, pulTotalRunTime );
 448:Source\bsw\FreeRTOS\src/mpu_wrappers.c **** 		vPortResetPrivilege( xRunningPrivileged );
 449:Source\bsw\FreeRTOS\src/mpu_wrappers.c **** 		return uxReturn;
 450:Source\bsw\FreeRTOS\src/mpu_wrappers.c **** 	}
 451:Source\bsw\FreeRTOS\src/mpu_wrappers.c **** #endif
 452:Source\bsw\FreeRTOS\src/mpu_wrappers.c **** /*-----------------------------------------------------------*/
 453:Source\bsw\FreeRTOS\src/mpu_wrappers.c **** 
 454:Source\bsw\FreeRTOS\src/mpu_wrappers.c **** BaseType_t MPU_xTaskCatchUpTicks( TickType_t xTicksToCatchUp ) /* FREERTOS_SYSTEM_CALL */
 455:Source\bsw\FreeRTOS\src/mpu_wrappers.c **** {
 754              		.loc 1 455 0
 755              		.cfi_startproc
 756              		@ args = 0, pretend = 0, frame = 0
 757              		@ frame_needed = 0, uses_anonymous_args = 0
 758              	.LVL109:
 759 0000 38B5     		push	{r3, r4, r5, lr}
 760              		.cfi_def_cfa_offset 16
 761              		.cfi_offset 3, -16
 762              		.cfi_offset 4, -12
 763              		.cfi_offset 5, -8
 764              		.cfi_offset 14, -4
 765 0002 0446     		mov	r4, r0
 456:Source\bsw\FreeRTOS\src/mpu_wrappers.c **** BaseType_t xReturn;
 457:Source\bsw\FreeRTOS\src/mpu_wrappers.c **** BaseType_t xRunningPrivileged = xPortRaisePrivilege();
 766              		.loc 1 457 0
 767 0004 FFF7FEFF 		bl	xPortRaisePrivilege
 768              	.LVL110:
 769 0008 0546     		mov	r5, r0
 770              	.LVL111:
 458:Source\bsw\FreeRTOS\src/mpu_wrappers.c **** 
 459:Source\bsw\FreeRTOS\src/mpu_wrappers.c **** 	xReturn = xTaskCatchUpTicks( xTicksToCatchUp );
 771              		.loc 1 459 0
 772 000a 2046     		mov	r0, r4
 773              	.LVL112:
 774 000c FFF7FEFF 		bl	xTaskCatchUpTicks
 775              	.LVL113:
 776 0010 0446     		mov	r4, r0
 777              	.LVL114:
 460:Source\bsw\FreeRTOS\src/mpu_wrappers.c **** 	vPortResetPrivilege( xRunningPrivileged );
 778              		.loc 1 460 0
 779 0012 2846     		mov	r0, r5
 780              	.LVL115:
 781 0014 FFF7FEFF 		bl	vPortResetPrivilege
 782              	.LVL116:
 461:Source\bsw\FreeRTOS\src/mpu_wrappers.c **** 	return xReturn;
 462:Source\bsw\FreeRTOS\src/mpu_wrappers.c **** }
 783              		.loc 1 462 0
 784 0018 2046     		mov	r0, r4
 785 001a 38BD     		pop	{r3, r4, r5, pc}
 786              		.cfi_endproc
 787              	.LFE86:
 788              		.size	MPU_xTaskCatchUpTicks, .-MPU_xTaskCatchUpTicks
 789              		.section	.text.MPU_uxTaskGetStackHighWaterMark,"ax",%progbits
 790              		.align	2
 791              		.global	MPU_uxTaskGetStackHighWaterMark
ARM GAS  C:\Users\Reza\AppData\Local\Temp\cckOPwM0.s 			page 23


 792              		.thumb
 793              		.thumb_func
 794              		.type	MPU_uxTaskGetStackHighWaterMark, %function
 795              	MPU_uxTaskGetStackHighWaterMark:
 796              	.LFB87:
 463:Source\bsw\FreeRTOS\src/mpu_wrappers.c **** /*-----------------------------------------------------------*/
 464:Source\bsw\FreeRTOS\src/mpu_wrappers.c **** 
 465:Source\bsw\FreeRTOS\src/mpu_wrappers.c **** #if ( INCLUDE_uxTaskGetStackHighWaterMark == 1 )
 466:Source\bsw\FreeRTOS\src/mpu_wrappers.c **** 	UBaseType_t MPU_uxTaskGetStackHighWaterMark( TaskHandle_t xTask ) /* FREERTOS_SYSTEM_CALL */
 467:Source\bsw\FreeRTOS\src/mpu_wrappers.c **** 	{
 797              		.loc 1 467 0
 798              		.cfi_startproc
 799              		@ args = 0, pretend = 0, frame = 0
 800              		@ frame_needed = 0, uses_anonymous_args = 0
 801              	.LVL117:
 802 0000 38B5     		push	{r3, r4, r5, lr}
 803              		.cfi_def_cfa_offset 16
 804              		.cfi_offset 3, -16
 805              		.cfi_offset 4, -12
 806              		.cfi_offset 5, -8
 807              		.cfi_offset 14, -4
 808 0002 0446     		mov	r4, r0
 468:Source\bsw\FreeRTOS\src/mpu_wrappers.c **** 	UBaseType_t uxReturn;
 469:Source\bsw\FreeRTOS\src/mpu_wrappers.c **** 	BaseType_t xRunningPrivileged = xPortRaisePrivilege();
 809              		.loc 1 469 0
 810 0004 FFF7FEFF 		bl	xPortRaisePrivilege
 811              	.LVL118:
 812 0008 0546     		mov	r5, r0
 813              	.LVL119:
 470:Source\bsw\FreeRTOS\src/mpu_wrappers.c **** 
 471:Source\bsw\FreeRTOS\src/mpu_wrappers.c **** 		uxReturn = uxTaskGetStackHighWaterMark( xTask );
 814              		.loc 1 471 0
 815 000a 2046     		mov	r0, r4
 816              	.LVL120:
 817 000c FFF7FEFF 		bl	uxTaskGetStackHighWaterMark
 818              	.LVL121:
 819 0010 0446     		mov	r4, r0
 820              	.LVL122:
 472:Source\bsw\FreeRTOS\src/mpu_wrappers.c **** 		vPortResetPrivilege( xRunningPrivileged );
 821              		.loc 1 472 0
 822 0012 2846     		mov	r0, r5
 823              	.LVL123:
 824 0014 FFF7FEFF 		bl	vPortResetPrivilege
 825              	.LVL124:
 473:Source\bsw\FreeRTOS\src/mpu_wrappers.c **** 		return uxReturn;
 474:Source\bsw\FreeRTOS\src/mpu_wrappers.c **** 	}
 826              		.loc 1 474 0
 827 0018 2046     		mov	r0, r4
 828 001a 38BD     		pop	{r3, r4, r5, pc}
 829              		.cfi_endproc
 830              	.LFE87:
 831              		.size	MPU_uxTaskGetStackHighWaterMark, .-MPU_uxTaskGetStackHighWaterMark
 832              		.section	.text.MPU_vTaskSetTimeOutState,"ax",%progbits
 833              		.align	2
 834              		.global	MPU_vTaskSetTimeOutState
 835              		.thumb
 836              		.thumb_func
ARM GAS  C:\Users\Reza\AppData\Local\Temp\cckOPwM0.s 			page 24


 837              		.type	MPU_vTaskSetTimeOutState, %function
 838              	MPU_vTaskSetTimeOutState:
 839              	.LFB88:
 475:Source\bsw\FreeRTOS\src/mpu_wrappers.c **** #endif
 476:Source\bsw\FreeRTOS\src/mpu_wrappers.c **** /*-----------------------------------------------------------*/
 477:Source\bsw\FreeRTOS\src/mpu_wrappers.c **** 
 478:Source\bsw\FreeRTOS\src/mpu_wrappers.c **** #if ( INCLUDE_uxTaskGetStackHighWaterMark2 == 1 )
 479:Source\bsw\FreeRTOS\src/mpu_wrappers.c **** 	configSTACK_DEPTH_TYPE MPU_uxTaskGetStackHighWaterMark2( TaskHandle_t xTask ) /* FREERTOS_SYSTEM_C
 480:Source\bsw\FreeRTOS\src/mpu_wrappers.c **** 	{
 481:Source\bsw\FreeRTOS\src/mpu_wrappers.c **** 	configSTACK_DEPTH_TYPE uxReturn;
 482:Source\bsw\FreeRTOS\src/mpu_wrappers.c **** 	BaseType_t xRunningPrivileged = xPortRaisePrivilege();
 483:Source\bsw\FreeRTOS\src/mpu_wrappers.c **** 
 484:Source\bsw\FreeRTOS\src/mpu_wrappers.c **** 		uxReturn = uxTaskGetStackHighWaterMark2( xTask );
 485:Source\bsw\FreeRTOS\src/mpu_wrappers.c **** 		vPortResetPrivilege( xRunningPrivileged );
 486:Source\bsw\FreeRTOS\src/mpu_wrappers.c **** 		return uxReturn;
 487:Source\bsw\FreeRTOS\src/mpu_wrappers.c **** 	}
 488:Source\bsw\FreeRTOS\src/mpu_wrappers.c **** #endif
 489:Source\bsw\FreeRTOS\src/mpu_wrappers.c **** /*-----------------------------------------------------------*/
 490:Source\bsw\FreeRTOS\src/mpu_wrappers.c **** 
 491:Source\bsw\FreeRTOS\src/mpu_wrappers.c **** #if ( INCLUDE_xTaskGetCurrentTaskHandle == 1 )
 492:Source\bsw\FreeRTOS\src/mpu_wrappers.c **** 	TaskHandle_t MPU_xTaskGetCurrentTaskHandle( void ) /* FREERTOS_SYSTEM_CALL */
 493:Source\bsw\FreeRTOS\src/mpu_wrappers.c **** 	{
 494:Source\bsw\FreeRTOS\src/mpu_wrappers.c **** 	TaskHandle_t xReturn;
 495:Source\bsw\FreeRTOS\src/mpu_wrappers.c **** 	BaseType_t xRunningPrivileged = xPortRaisePrivilege();
 496:Source\bsw\FreeRTOS\src/mpu_wrappers.c **** 
 497:Source\bsw\FreeRTOS\src/mpu_wrappers.c **** 		xReturn = xTaskGetCurrentTaskHandle();
 498:Source\bsw\FreeRTOS\src/mpu_wrappers.c **** 		vPortResetPrivilege( xRunningPrivileged );
 499:Source\bsw\FreeRTOS\src/mpu_wrappers.c **** 		return xReturn;
 500:Source\bsw\FreeRTOS\src/mpu_wrappers.c **** 	}
 501:Source\bsw\FreeRTOS\src/mpu_wrappers.c **** #endif
 502:Source\bsw\FreeRTOS\src/mpu_wrappers.c **** /*-----------------------------------------------------------*/
 503:Source\bsw\FreeRTOS\src/mpu_wrappers.c **** 
 504:Source\bsw\FreeRTOS\src/mpu_wrappers.c **** #if ( INCLUDE_xTaskGetSchedulerState == 1 )
 505:Source\bsw\FreeRTOS\src/mpu_wrappers.c **** 	BaseType_t MPU_xTaskGetSchedulerState( void ) /* FREERTOS_SYSTEM_CALL */
 506:Source\bsw\FreeRTOS\src/mpu_wrappers.c **** 	{
 507:Source\bsw\FreeRTOS\src/mpu_wrappers.c **** 	BaseType_t xReturn;
 508:Source\bsw\FreeRTOS\src/mpu_wrappers.c **** 	BaseType_t xRunningPrivileged = xPortRaisePrivilege();
 509:Source\bsw\FreeRTOS\src/mpu_wrappers.c **** 
 510:Source\bsw\FreeRTOS\src/mpu_wrappers.c **** 		xReturn = xTaskGetSchedulerState();
 511:Source\bsw\FreeRTOS\src/mpu_wrappers.c **** 		vPortResetPrivilege( xRunningPrivileged );
 512:Source\bsw\FreeRTOS\src/mpu_wrappers.c **** 		return xReturn;
 513:Source\bsw\FreeRTOS\src/mpu_wrappers.c **** 	}
 514:Source\bsw\FreeRTOS\src/mpu_wrappers.c **** #endif
 515:Source\bsw\FreeRTOS\src/mpu_wrappers.c **** /*-----------------------------------------------------------*/
 516:Source\bsw\FreeRTOS\src/mpu_wrappers.c **** 
 517:Source\bsw\FreeRTOS\src/mpu_wrappers.c **** void MPU_vTaskSetTimeOutState( TimeOut_t * const pxTimeOut ) /* FREERTOS_SYSTEM_CALL */
 518:Source\bsw\FreeRTOS\src/mpu_wrappers.c **** {
 840              		.loc 1 518 0
 841              		.cfi_startproc
 842              		@ args = 0, pretend = 0, frame = 0
 843              		@ frame_needed = 0, uses_anonymous_args = 0
 844              	.LVL125:
 845 0000 38B5     		push	{r3, r4, r5, lr}
 846              		.cfi_def_cfa_offset 16
 847              		.cfi_offset 3, -16
 848              		.cfi_offset 4, -12
 849              		.cfi_offset 5, -8
ARM GAS  C:\Users\Reza\AppData\Local\Temp\cckOPwM0.s 			page 25


 850              		.cfi_offset 14, -4
 851 0002 0546     		mov	r5, r0
 519:Source\bsw\FreeRTOS\src/mpu_wrappers.c **** BaseType_t xRunningPrivileged = xPortRaisePrivilege();
 852              		.loc 1 519 0
 853 0004 FFF7FEFF 		bl	xPortRaisePrivilege
 854              	.LVL126:
 855 0008 0446     		mov	r4, r0
 856              	.LVL127:
 520:Source\bsw\FreeRTOS\src/mpu_wrappers.c **** 
 521:Source\bsw\FreeRTOS\src/mpu_wrappers.c **** 	vTaskSetTimeOutState( pxTimeOut );
 857              		.loc 1 521 0
 858 000a 2846     		mov	r0, r5
 859              	.LVL128:
 860 000c FFF7FEFF 		bl	vTaskSetTimeOutState
 861              	.LVL129:
 522:Source\bsw\FreeRTOS\src/mpu_wrappers.c **** 	vPortResetPrivilege( xRunningPrivileged );
 862              		.loc 1 522 0
 863 0010 2046     		mov	r0, r4
 864 0012 FFF7FEFF 		bl	vPortResetPrivilege
 865              	.LVL130:
 866 0016 38BD     		pop	{r3, r4, r5, pc}
 867              		.cfi_endproc
 868              	.LFE88:
 869              		.size	MPU_vTaskSetTimeOutState, .-MPU_vTaskSetTimeOutState
 870              		.section	.text.MPU_xTaskCheckForTimeOut,"ax",%progbits
 871              		.align	2
 872              		.global	MPU_xTaskCheckForTimeOut
 873              		.thumb
 874              		.thumb_func
 875              		.type	MPU_xTaskCheckForTimeOut, %function
 876              	MPU_xTaskCheckForTimeOut:
 877              	.LFB89:
 523:Source\bsw\FreeRTOS\src/mpu_wrappers.c **** }
 524:Source\bsw\FreeRTOS\src/mpu_wrappers.c **** /*-----------------------------------------------------------*/
 525:Source\bsw\FreeRTOS\src/mpu_wrappers.c **** 
 526:Source\bsw\FreeRTOS\src/mpu_wrappers.c **** BaseType_t MPU_xTaskCheckForTimeOut( TimeOut_t * const pxTimeOut, TickType_t * const pxTicksToWait 
 527:Source\bsw\FreeRTOS\src/mpu_wrappers.c **** {
 878              		.loc 1 527 0
 879              		.cfi_startproc
 880              		@ args = 0, pretend = 0, frame = 0
 881              		@ frame_needed = 0, uses_anonymous_args = 0
 882              	.LVL131:
 883 0000 70B5     		push	{r4, r5, r6, lr}
 884              		.cfi_def_cfa_offset 16
 885              		.cfi_offset 4, -16
 886              		.cfi_offset 5, -12
 887              		.cfi_offset 6, -8
 888              		.cfi_offset 14, -4
 889 0002 0446     		mov	r4, r0
 890 0004 0E46     		mov	r6, r1
 528:Source\bsw\FreeRTOS\src/mpu_wrappers.c **** BaseType_t xReturn;
 529:Source\bsw\FreeRTOS\src/mpu_wrappers.c **** BaseType_t xRunningPrivileged = xPortRaisePrivilege();
 891              		.loc 1 529 0
 892 0006 FFF7FEFF 		bl	xPortRaisePrivilege
 893              	.LVL132:
 894 000a 0546     		mov	r5, r0
 895              	.LVL133:
ARM GAS  C:\Users\Reza\AppData\Local\Temp\cckOPwM0.s 			page 26


 530:Source\bsw\FreeRTOS\src/mpu_wrappers.c **** 
 531:Source\bsw\FreeRTOS\src/mpu_wrappers.c **** 	xReturn = xTaskCheckForTimeOut( pxTimeOut, pxTicksToWait );
 896              		.loc 1 531 0
 897 000c 3146     		mov	r1, r6
 898 000e 2046     		mov	r0, r4
 899              	.LVL134:
 900 0010 FFF7FEFF 		bl	xTaskCheckForTimeOut
 901              	.LVL135:
 902 0014 0446     		mov	r4, r0
 903              	.LVL136:
 532:Source\bsw\FreeRTOS\src/mpu_wrappers.c **** 	vPortResetPrivilege( xRunningPrivileged );
 904              		.loc 1 532 0
 905 0016 2846     		mov	r0, r5
 906              	.LVL137:
 907 0018 FFF7FEFF 		bl	vPortResetPrivilege
 908              	.LVL138:
 533:Source\bsw\FreeRTOS\src/mpu_wrappers.c **** 	return xReturn;
 534:Source\bsw\FreeRTOS\src/mpu_wrappers.c **** }
 909              		.loc 1 534 0
 910 001c 2046     		mov	r0, r4
 911 001e 70BD     		pop	{r4, r5, r6, pc}
 912              		.cfi_endproc
 913              	.LFE89:
 914              		.size	MPU_xTaskCheckForTimeOut, .-MPU_xTaskCheckForTimeOut
 915              		.section	.text.MPU_xTaskGenericNotify,"ax",%progbits
 916              		.align	2
 917              		.global	MPU_xTaskGenericNotify
 918              		.thumb
 919              		.thumb_func
 920              		.type	MPU_xTaskGenericNotify, %function
 921              	MPU_xTaskGenericNotify:
 922              	.LFB90:
 535:Source\bsw\FreeRTOS\src/mpu_wrappers.c **** /*-----------------------------------------------------------*/
 536:Source\bsw\FreeRTOS\src/mpu_wrappers.c **** 
 537:Source\bsw\FreeRTOS\src/mpu_wrappers.c **** #if( configUSE_TASK_NOTIFICATIONS == 1 )
 538:Source\bsw\FreeRTOS\src/mpu_wrappers.c **** 	BaseType_t MPU_xTaskGenericNotify( TaskHandle_t xTaskToNotify, uint32_t ulValue, eNotifyAction eAc
 539:Source\bsw\FreeRTOS\src/mpu_wrappers.c **** 	{
 923              		.loc 1 539 0
 924              		.cfi_startproc
 925              		@ args = 0, pretend = 0, frame = 0
 926              		@ frame_needed = 0, uses_anonymous_args = 0
 927              	.LVL139:
 928 0000 2DE9F041 		push	{r4, r5, r6, r7, r8, lr}
 929              		.cfi_def_cfa_offset 24
 930              		.cfi_offset 4, -24
 931              		.cfi_offset 5, -20
 932              		.cfi_offset 6, -16
 933              		.cfi_offset 7, -12
 934              		.cfi_offset 8, -8
 935              		.cfi_offset 14, -4
 936 0004 0446     		mov	r4, r0
 937 0006 0E46     		mov	r6, r1
 938 0008 1746     		mov	r7, r2
 939 000a 9846     		mov	r8, r3
 540:Source\bsw\FreeRTOS\src/mpu_wrappers.c **** 	BaseType_t xReturn;
 541:Source\bsw\FreeRTOS\src/mpu_wrappers.c **** 	BaseType_t xRunningPrivileged = xPortRaisePrivilege();
 940              		.loc 1 541 0
ARM GAS  C:\Users\Reza\AppData\Local\Temp\cckOPwM0.s 			page 27


 941 000c FFF7FEFF 		bl	xPortRaisePrivilege
 942              	.LVL140:
 943 0010 0546     		mov	r5, r0
 944              	.LVL141:
 542:Source\bsw\FreeRTOS\src/mpu_wrappers.c **** 
 543:Source\bsw\FreeRTOS\src/mpu_wrappers.c **** 		xReturn = xTaskGenericNotify( xTaskToNotify, ulValue, eAction, pulPreviousNotificationValue );
 945              		.loc 1 543 0
 946 0012 4346     		mov	r3, r8
 947 0014 3A46     		mov	r2, r7
 948 0016 3146     		mov	r1, r6
 949 0018 2046     		mov	r0, r4
 950              	.LVL142:
 951 001a FFF7FEFF 		bl	xTaskGenericNotify
 952              	.LVL143:
 953 001e 0446     		mov	r4, r0
 954              	.LVL144:
 544:Source\bsw\FreeRTOS\src/mpu_wrappers.c **** 		vPortResetPrivilege( xRunningPrivileged );
 955              		.loc 1 544 0
 956 0020 2846     		mov	r0, r5
 957              	.LVL145:
 958 0022 FFF7FEFF 		bl	vPortResetPrivilege
 959              	.LVL146:
 545:Source\bsw\FreeRTOS\src/mpu_wrappers.c **** 		return xReturn;
 546:Source\bsw\FreeRTOS\src/mpu_wrappers.c **** 	}
 960              		.loc 1 546 0
 961 0026 2046     		mov	r0, r4
 962 0028 BDE8F081 		pop	{r4, r5, r6, r7, r8, pc}
 963              		.cfi_endproc
 964              	.LFE90:
 965              		.size	MPU_xTaskGenericNotify, .-MPU_xTaskGenericNotify
 966              		.section	.text.MPU_xTaskNotifyWait,"ax",%progbits
 967              		.align	2
 968              		.global	MPU_xTaskNotifyWait
 969              		.thumb
 970              		.thumb_func
 971              		.type	MPU_xTaskNotifyWait, %function
 972              	MPU_xTaskNotifyWait:
 973              	.LFB91:
 547:Source\bsw\FreeRTOS\src/mpu_wrappers.c **** #endif
 548:Source\bsw\FreeRTOS\src/mpu_wrappers.c **** /*-----------------------------------------------------------*/
 549:Source\bsw\FreeRTOS\src/mpu_wrappers.c **** 
 550:Source\bsw\FreeRTOS\src/mpu_wrappers.c **** #if( configUSE_TASK_NOTIFICATIONS == 1 )
 551:Source\bsw\FreeRTOS\src/mpu_wrappers.c **** 	BaseType_t MPU_xTaskNotifyWait( uint32_t ulBitsToClearOnEntry, uint32_t ulBitsToClearOnExit, uint3
 552:Source\bsw\FreeRTOS\src/mpu_wrappers.c **** 	{
 974              		.loc 1 552 0
 975              		.cfi_startproc
 976              		@ args = 0, pretend = 0, frame = 0
 977              		@ frame_needed = 0, uses_anonymous_args = 0
 978              	.LVL147:
 979 0000 2DE9F041 		push	{r4, r5, r6, r7, r8, lr}
 980              		.cfi_def_cfa_offset 24
 981              		.cfi_offset 4, -24
 982              		.cfi_offset 5, -20
 983              		.cfi_offset 6, -16
 984              		.cfi_offset 7, -12
 985              		.cfi_offset 8, -8
 986              		.cfi_offset 14, -4
ARM GAS  C:\Users\Reza\AppData\Local\Temp\cckOPwM0.s 			page 28


 987 0004 0446     		mov	r4, r0
 988 0006 0E46     		mov	r6, r1
 989 0008 1746     		mov	r7, r2
 990 000a 9846     		mov	r8, r3
 553:Source\bsw\FreeRTOS\src/mpu_wrappers.c **** 	BaseType_t xReturn;
 554:Source\bsw\FreeRTOS\src/mpu_wrappers.c **** 	BaseType_t xRunningPrivileged = xPortRaisePrivilege();
 991              		.loc 1 554 0
 992 000c FFF7FEFF 		bl	xPortRaisePrivilege
 993              	.LVL148:
 994 0010 0546     		mov	r5, r0
 995              	.LVL149:
 555:Source\bsw\FreeRTOS\src/mpu_wrappers.c **** 
 556:Source\bsw\FreeRTOS\src/mpu_wrappers.c **** 		xReturn = xTaskNotifyWait( ulBitsToClearOnEntry, ulBitsToClearOnExit, pulNotificationValue, xTick
 996              		.loc 1 556 0
 997 0012 4346     		mov	r3, r8
 998 0014 3A46     		mov	r2, r7
 999 0016 3146     		mov	r1, r6
 1000 0018 2046     		mov	r0, r4
 1001              	.LVL150:
 1002 001a FFF7FEFF 		bl	xTaskNotifyWait
 1003              	.LVL151:
 1004 001e 0446     		mov	r4, r0
 1005              	.LVL152:
 557:Source\bsw\FreeRTOS\src/mpu_wrappers.c **** 		vPortResetPrivilege( xRunningPrivileged );
 1006              		.loc 1 557 0
 1007 0020 2846     		mov	r0, r5
 1008              	.LVL153:
 1009 0022 FFF7FEFF 		bl	vPortResetPrivilege
 1010              	.LVL154:
 558:Source\bsw\FreeRTOS\src/mpu_wrappers.c **** 		return xReturn;
 559:Source\bsw\FreeRTOS\src/mpu_wrappers.c **** 	}
 1011              		.loc 1 559 0
 1012 0026 2046     		mov	r0, r4
 1013 0028 BDE8F081 		pop	{r4, r5, r6, r7, r8, pc}
 1014              		.cfi_endproc
 1015              	.LFE91:
 1016              		.size	MPU_xTaskNotifyWait, .-MPU_xTaskNotifyWait
 1017              		.section	.text.MPU_ulTaskNotifyTake,"ax",%progbits
 1018              		.align	2
 1019              		.global	MPU_ulTaskNotifyTake
 1020              		.thumb
 1021              		.thumb_func
 1022              		.type	MPU_ulTaskNotifyTake, %function
 1023              	MPU_ulTaskNotifyTake:
 1024              	.LFB92:
 560:Source\bsw\FreeRTOS\src/mpu_wrappers.c **** #endif
 561:Source\bsw\FreeRTOS\src/mpu_wrappers.c **** /*-----------------------------------------------------------*/
 562:Source\bsw\FreeRTOS\src/mpu_wrappers.c **** 
 563:Source\bsw\FreeRTOS\src/mpu_wrappers.c **** #if( configUSE_TASK_NOTIFICATIONS == 1 )
 564:Source\bsw\FreeRTOS\src/mpu_wrappers.c **** 	uint32_t MPU_ulTaskNotifyTake( BaseType_t xClearCountOnExit, TickType_t xTicksToWait ) /* FREERTOS
 565:Source\bsw\FreeRTOS\src/mpu_wrappers.c **** 	{
 1025              		.loc 1 565 0
 1026              		.cfi_startproc
 1027              		@ args = 0, pretend = 0, frame = 0
 1028              		@ frame_needed = 0, uses_anonymous_args = 0
 1029              	.LVL155:
 1030 0000 70B5     		push	{r4, r5, r6, lr}
ARM GAS  C:\Users\Reza\AppData\Local\Temp\cckOPwM0.s 			page 29


 1031              		.cfi_def_cfa_offset 16
 1032              		.cfi_offset 4, -16
 1033              		.cfi_offset 5, -12
 1034              		.cfi_offset 6, -8
 1035              		.cfi_offset 14, -4
 1036 0002 0446     		mov	r4, r0
 1037 0004 0E46     		mov	r6, r1
 566:Source\bsw\FreeRTOS\src/mpu_wrappers.c **** 	uint32_t ulReturn;
 567:Source\bsw\FreeRTOS\src/mpu_wrappers.c **** 	BaseType_t xRunningPrivileged = xPortRaisePrivilege();
 1038              		.loc 1 567 0
 1039 0006 FFF7FEFF 		bl	xPortRaisePrivilege
 1040              	.LVL156:
 1041 000a 0546     		mov	r5, r0
 1042              	.LVL157:
 568:Source\bsw\FreeRTOS\src/mpu_wrappers.c **** 
 569:Source\bsw\FreeRTOS\src/mpu_wrappers.c **** 		ulReturn = ulTaskNotifyTake( xClearCountOnExit, xTicksToWait );
 1043              		.loc 1 569 0
 1044 000c 3146     		mov	r1, r6
 1045 000e 2046     		mov	r0, r4
 1046              	.LVL158:
 1047 0010 FFF7FEFF 		bl	ulTaskNotifyTake
 1048              	.LVL159:
 1049 0014 0446     		mov	r4, r0
 1050              	.LVL160:
 570:Source\bsw\FreeRTOS\src/mpu_wrappers.c **** 		vPortResetPrivilege( xRunningPrivileged );
 1051              		.loc 1 570 0
 1052 0016 2846     		mov	r0, r5
 1053              	.LVL161:
 1054 0018 FFF7FEFF 		bl	vPortResetPrivilege
 1055              	.LVL162:
 571:Source\bsw\FreeRTOS\src/mpu_wrappers.c **** 		return ulReturn;
 572:Source\bsw\FreeRTOS\src/mpu_wrappers.c **** 	}
 1056              		.loc 1 572 0
 1057 001c 2046     		mov	r0, r4
 1058 001e 70BD     		pop	{r4, r5, r6, pc}
 1059              		.cfi_endproc
 1060              	.LFE92:
 1061              		.size	MPU_ulTaskNotifyTake, .-MPU_ulTaskNotifyTake
 1062              		.section	.text.MPU_xTaskNotifyStateClear,"ax",%progbits
 1063              		.align	2
 1064              		.global	MPU_xTaskNotifyStateClear
 1065              		.thumb
 1066              		.thumb_func
 1067              		.type	MPU_xTaskNotifyStateClear, %function
 1068              	MPU_xTaskNotifyStateClear:
 1069              	.LFB93:
 573:Source\bsw\FreeRTOS\src/mpu_wrappers.c **** #endif
 574:Source\bsw\FreeRTOS\src/mpu_wrappers.c **** /*-----------------------------------------------------------*/
 575:Source\bsw\FreeRTOS\src/mpu_wrappers.c **** 
 576:Source\bsw\FreeRTOS\src/mpu_wrappers.c **** #if( configUSE_TASK_NOTIFICATIONS == 1 )
 577:Source\bsw\FreeRTOS\src/mpu_wrappers.c **** 	BaseType_t MPU_xTaskNotifyStateClear( TaskHandle_t xTask ) /* FREERTOS_SYSTEM_CALL */
 578:Source\bsw\FreeRTOS\src/mpu_wrappers.c **** 	{
 1070              		.loc 1 578 0
 1071              		.cfi_startproc
 1072              		@ args = 0, pretend = 0, frame = 0
 1073              		@ frame_needed = 0, uses_anonymous_args = 0
 1074              	.LVL163:
ARM GAS  C:\Users\Reza\AppData\Local\Temp\cckOPwM0.s 			page 30


 1075 0000 38B5     		push	{r3, r4, r5, lr}
 1076              		.cfi_def_cfa_offset 16
 1077              		.cfi_offset 3, -16
 1078              		.cfi_offset 4, -12
 1079              		.cfi_offset 5, -8
 1080              		.cfi_offset 14, -4
 1081 0002 0446     		mov	r4, r0
 579:Source\bsw\FreeRTOS\src/mpu_wrappers.c **** 	BaseType_t xReturn;
 580:Source\bsw\FreeRTOS\src/mpu_wrappers.c **** 	BaseType_t xRunningPrivileged = xPortRaisePrivilege();
 1082              		.loc 1 580 0
 1083 0004 FFF7FEFF 		bl	xPortRaisePrivilege
 1084              	.LVL164:
 1085 0008 0546     		mov	r5, r0
 1086              	.LVL165:
 581:Source\bsw\FreeRTOS\src/mpu_wrappers.c **** 
 582:Source\bsw\FreeRTOS\src/mpu_wrappers.c **** 		xReturn = xTaskNotifyStateClear( xTask );
 1087              		.loc 1 582 0
 1088 000a 2046     		mov	r0, r4
 1089              	.LVL166:
 1090 000c FFF7FEFF 		bl	xTaskNotifyStateClear
 1091              	.LVL167:
 1092 0010 0446     		mov	r4, r0
 1093              	.LVL168:
 583:Source\bsw\FreeRTOS\src/mpu_wrappers.c **** 		vPortResetPrivilege( xRunningPrivileged );
 1094              		.loc 1 583 0
 1095 0012 2846     		mov	r0, r5
 1096              	.LVL169:
 1097 0014 FFF7FEFF 		bl	vPortResetPrivilege
 1098              	.LVL170:
 584:Source\bsw\FreeRTOS\src/mpu_wrappers.c **** 		return xReturn;
 585:Source\bsw\FreeRTOS\src/mpu_wrappers.c **** 	}
 1099              		.loc 1 585 0
 1100 0018 2046     		mov	r0, r4
 1101 001a 38BD     		pop	{r3, r4, r5, pc}
 1102              		.cfi_endproc
 1103              	.LFE93:
 1104              		.size	MPU_xTaskNotifyStateClear, .-MPU_xTaskNotifyStateClear
 1105              		.section	.text.MPU_ulTaskNotifyValueClear,"ax",%progbits
 1106              		.align	2
 1107              		.global	MPU_ulTaskNotifyValueClear
 1108              		.thumb
 1109              		.thumb_func
 1110              		.type	MPU_ulTaskNotifyValueClear, %function
 1111              	MPU_ulTaskNotifyValueClear:
 1112              	.LFB94:
 586:Source\bsw\FreeRTOS\src/mpu_wrappers.c **** #endif
 587:Source\bsw\FreeRTOS\src/mpu_wrappers.c **** /*-----------------------------------------------------------*/
 588:Source\bsw\FreeRTOS\src/mpu_wrappers.c **** 
 589:Source\bsw\FreeRTOS\src/mpu_wrappers.c **** #if( configUSE_TASK_NOTIFICATIONS == 1 )
 590:Source\bsw\FreeRTOS\src/mpu_wrappers.c **** 	uint32_t MPU_ulTaskNotifyValueClear( TaskHandle_t xTask, uint32_t ulBitsToClear ) /* FREERTOS_SYST
 591:Source\bsw\FreeRTOS\src/mpu_wrappers.c **** 	{
 1113              		.loc 1 591 0
 1114              		.cfi_startproc
 1115              		@ args = 0, pretend = 0, frame = 0
 1116              		@ frame_needed = 0, uses_anonymous_args = 0
 1117              	.LVL171:
 1118 0000 70B5     		push	{r4, r5, r6, lr}
ARM GAS  C:\Users\Reza\AppData\Local\Temp\cckOPwM0.s 			page 31


 1119              		.cfi_def_cfa_offset 16
 1120              		.cfi_offset 4, -16
 1121              		.cfi_offset 5, -12
 1122              		.cfi_offset 6, -8
 1123              		.cfi_offset 14, -4
 1124 0002 0446     		mov	r4, r0
 1125 0004 0E46     		mov	r6, r1
 592:Source\bsw\FreeRTOS\src/mpu_wrappers.c **** 	uint32_t ulReturn;
 593:Source\bsw\FreeRTOS\src/mpu_wrappers.c **** 	BaseType_t xRunningPrivileged = xPortRaisePrivilege();
 1126              		.loc 1 593 0
 1127 0006 FFF7FEFF 		bl	xPortRaisePrivilege
 1128              	.LVL172:
 1129 000a 0546     		mov	r5, r0
 1130              	.LVL173:
 594:Source\bsw\FreeRTOS\src/mpu_wrappers.c **** 
 595:Source\bsw\FreeRTOS\src/mpu_wrappers.c **** 		ulReturn = ulTaskNotifyValueClear( xTask, ulBitsToClear );
 1131              		.loc 1 595 0
 1132 000c 3146     		mov	r1, r6
 1133 000e 2046     		mov	r0, r4
 1134              	.LVL174:
 1135 0010 FFF7FEFF 		bl	ulTaskNotifyValueClear
 1136              	.LVL175:
 1137 0014 0446     		mov	r4, r0
 1138              	.LVL176:
 596:Source\bsw\FreeRTOS\src/mpu_wrappers.c **** 		vPortResetPrivilege( xRunningPrivileged );
 1139              		.loc 1 596 0
 1140 0016 2846     		mov	r0, r5
 1141              	.LVL177:
 1142 0018 FFF7FEFF 		bl	vPortResetPrivilege
 1143              	.LVL178:
 597:Source\bsw\FreeRTOS\src/mpu_wrappers.c **** 		return ulReturn;
 598:Source\bsw\FreeRTOS\src/mpu_wrappers.c **** 	}
 1144              		.loc 1 598 0
 1145 001c 2046     		mov	r0, r4
 1146 001e 70BD     		pop	{r4, r5, r6, pc}
 1147              		.cfi_endproc
 1148              	.LFE94:
 1149              		.size	MPU_ulTaskNotifyValueClear, .-MPU_ulTaskNotifyValueClear
 1150              		.section	.text.MPU_xQueueGenericCreate,"ax",%progbits
 1151              		.align	2
 1152              		.global	MPU_xQueueGenericCreate
 1153              		.thumb
 1154              		.thumb_func
 1155              		.type	MPU_xQueueGenericCreate, %function
 1156              	MPU_xQueueGenericCreate:
 1157              	.LFB95:
 599:Source\bsw\FreeRTOS\src/mpu_wrappers.c **** #endif
 600:Source\bsw\FreeRTOS\src/mpu_wrappers.c **** /*-----------------------------------------------------------*/
 601:Source\bsw\FreeRTOS\src/mpu_wrappers.c **** 
 602:Source\bsw\FreeRTOS\src/mpu_wrappers.c **** #if( configSUPPORT_DYNAMIC_ALLOCATION == 1 )
 603:Source\bsw\FreeRTOS\src/mpu_wrappers.c **** 	QueueHandle_t MPU_xQueueGenericCreate( UBaseType_t uxQueueLength, UBaseType_t uxItemSize, uint8_t 
 604:Source\bsw\FreeRTOS\src/mpu_wrappers.c **** 	{
 1158              		.loc 1 604 0
 1159              		.cfi_startproc
 1160              		@ args = 0, pretend = 0, frame = 0
 1161              		@ frame_needed = 0, uses_anonymous_args = 0
 1162              	.LVL179:
ARM GAS  C:\Users\Reza\AppData\Local\Temp\cckOPwM0.s 			page 32


 1163 0000 F8B5     		push	{r3, r4, r5, r6, r7, lr}
 1164              		.cfi_def_cfa_offset 24
 1165              		.cfi_offset 3, -24
 1166              		.cfi_offset 4, -20
 1167              		.cfi_offset 5, -16
 1168              		.cfi_offset 6, -12
 1169              		.cfi_offset 7, -8
 1170              		.cfi_offset 14, -4
 1171 0002 0446     		mov	r4, r0
 1172 0004 0E46     		mov	r6, r1
 1173 0006 1746     		mov	r7, r2
 605:Source\bsw\FreeRTOS\src/mpu_wrappers.c **** 	QueueHandle_t xReturn;
 606:Source\bsw\FreeRTOS\src/mpu_wrappers.c **** 	BaseType_t xRunningPrivileged = xPortRaisePrivilege();
 1174              		.loc 1 606 0
 1175 0008 FFF7FEFF 		bl	xPortRaisePrivilege
 1176              	.LVL180:
 1177 000c 0546     		mov	r5, r0
 1178              	.LVL181:
 607:Source\bsw\FreeRTOS\src/mpu_wrappers.c **** 
 608:Source\bsw\FreeRTOS\src/mpu_wrappers.c **** 		xReturn = xQueueGenericCreate( uxQueueLength, uxItemSize, ucQueueType );
 1179              		.loc 1 608 0
 1180 000e 3A46     		mov	r2, r7
 1181 0010 3146     		mov	r1, r6
 1182 0012 2046     		mov	r0, r4
 1183              	.LVL182:
 1184 0014 FFF7FEFF 		bl	xQueueGenericCreate
 1185              	.LVL183:
 1186 0018 0446     		mov	r4, r0
 1187              	.LVL184:
 609:Source\bsw\FreeRTOS\src/mpu_wrappers.c **** 		vPortResetPrivilege( xRunningPrivileged );
 1188              		.loc 1 609 0
 1189 001a 2846     		mov	r0, r5
 1190              	.LVL185:
 1191 001c FFF7FEFF 		bl	vPortResetPrivilege
 1192              	.LVL186:
 610:Source\bsw\FreeRTOS\src/mpu_wrappers.c **** 		return xReturn;
 611:Source\bsw\FreeRTOS\src/mpu_wrappers.c **** 	}
 1193              		.loc 1 611 0
 1194 0020 2046     		mov	r0, r4
 1195 0022 F8BD     		pop	{r3, r4, r5, r6, r7, pc}
 1196              		.cfi_endproc
 1197              	.LFE95:
 1198              		.size	MPU_xQueueGenericCreate, .-MPU_xQueueGenericCreate
 1199              		.section	.text.MPU_xQueueGenericReset,"ax",%progbits
 1200              		.align	2
 1201              		.global	MPU_xQueueGenericReset
 1202              		.thumb
 1203              		.thumb_func
 1204              		.type	MPU_xQueueGenericReset, %function
 1205              	MPU_xQueueGenericReset:
 1206              	.LFB96:
 612:Source\bsw\FreeRTOS\src/mpu_wrappers.c **** #endif
 613:Source\bsw\FreeRTOS\src/mpu_wrappers.c **** /*-----------------------------------------------------------*/
 614:Source\bsw\FreeRTOS\src/mpu_wrappers.c **** 
 615:Source\bsw\FreeRTOS\src/mpu_wrappers.c **** #if( configSUPPORT_STATIC_ALLOCATION == 1 )
 616:Source\bsw\FreeRTOS\src/mpu_wrappers.c **** 	QueueHandle_t MPU_xQueueGenericCreateStatic( const UBaseType_t uxQueueLength, const UBaseType_t ux
 617:Source\bsw\FreeRTOS\src/mpu_wrappers.c **** 	{
ARM GAS  C:\Users\Reza\AppData\Local\Temp\cckOPwM0.s 			page 33


 618:Source\bsw\FreeRTOS\src/mpu_wrappers.c **** 	QueueHandle_t xReturn;
 619:Source\bsw\FreeRTOS\src/mpu_wrappers.c **** 	BaseType_t xRunningPrivileged = xPortRaisePrivilege();
 620:Source\bsw\FreeRTOS\src/mpu_wrappers.c **** 
 621:Source\bsw\FreeRTOS\src/mpu_wrappers.c **** 		xReturn = xQueueGenericCreateStatic( uxQueueLength, uxItemSize, pucQueueStorage, pxStaticQueue, u
 622:Source\bsw\FreeRTOS\src/mpu_wrappers.c **** 		vPortResetPrivilege( xRunningPrivileged );
 623:Source\bsw\FreeRTOS\src/mpu_wrappers.c **** 		return xReturn;
 624:Source\bsw\FreeRTOS\src/mpu_wrappers.c **** 	}
 625:Source\bsw\FreeRTOS\src/mpu_wrappers.c **** #endif
 626:Source\bsw\FreeRTOS\src/mpu_wrappers.c **** /*-----------------------------------------------------------*/
 627:Source\bsw\FreeRTOS\src/mpu_wrappers.c **** 
 628:Source\bsw\FreeRTOS\src/mpu_wrappers.c **** BaseType_t MPU_xQueueGenericReset( QueueHandle_t pxQueue, BaseType_t xNewQueue ) /* FREERTOS_SYSTEM
 629:Source\bsw\FreeRTOS\src/mpu_wrappers.c **** {
 1207              		.loc 1 629 0
 1208              		.cfi_startproc
 1209              		@ args = 0, pretend = 0, frame = 0
 1210              		@ frame_needed = 0, uses_anonymous_args = 0
 1211              	.LVL187:
 1212 0000 70B5     		push	{r4, r5, r6, lr}
 1213              		.cfi_def_cfa_offset 16
 1214              		.cfi_offset 4, -16
 1215              		.cfi_offset 5, -12
 1216              		.cfi_offset 6, -8
 1217              		.cfi_offset 14, -4
 1218 0002 0446     		mov	r4, r0
 1219 0004 0E46     		mov	r6, r1
 630:Source\bsw\FreeRTOS\src/mpu_wrappers.c **** BaseType_t xReturn;
 631:Source\bsw\FreeRTOS\src/mpu_wrappers.c **** BaseType_t xRunningPrivileged = xPortRaisePrivilege();
 1220              		.loc 1 631 0
 1221 0006 FFF7FEFF 		bl	xPortRaisePrivilege
 1222              	.LVL188:
 1223 000a 0546     		mov	r5, r0
 1224              	.LVL189:
 632:Source\bsw\FreeRTOS\src/mpu_wrappers.c **** 
 633:Source\bsw\FreeRTOS\src/mpu_wrappers.c **** 	xReturn = xQueueGenericReset( pxQueue, xNewQueue );
 1225              		.loc 1 633 0
 1226 000c 3146     		mov	r1, r6
 1227 000e 2046     		mov	r0, r4
 1228              	.LVL190:
 1229 0010 FFF7FEFF 		bl	xQueueGenericReset
 1230              	.LVL191:
 1231 0014 0446     		mov	r4, r0
 1232              	.LVL192:
 634:Source\bsw\FreeRTOS\src/mpu_wrappers.c **** 	vPortResetPrivilege( xRunningPrivileged );
 1233              		.loc 1 634 0
 1234 0016 2846     		mov	r0, r5
 1235              	.LVL193:
 1236 0018 FFF7FEFF 		bl	vPortResetPrivilege
 1237              	.LVL194:
 635:Source\bsw\FreeRTOS\src/mpu_wrappers.c **** 	return xReturn;
 636:Source\bsw\FreeRTOS\src/mpu_wrappers.c **** }
 1238              		.loc 1 636 0
 1239 001c 2046     		mov	r0, r4
 1240 001e 70BD     		pop	{r4, r5, r6, pc}
 1241              		.cfi_endproc
 1242              	.LFE96:
 1243              		.size	MPU_xQueueGenericReset, .-MPU_xQueueGenericReset
 1244              		.section	.text.MPU_xQueueGenericSend,"ax",%progbits
ARM GAS  C:\Users\Reza\AppData\Local\Temp\cckOPwM0.s 			page 34


 1245              		.align	2
 1246              		.global	MPU_xQueueGenericSend
 1247              		.thumb
 1248              		.thumb_func
 1249              		.type	MPU_xQueueGenericSend, %function
 1250              	MPU_xQueueGenericSend:
 1251              	.LFB97:
 637:Source\bsw\FreeRTOS\src/mpu_wrappers.c **** /*-----------------------------------------------------------*/
 638:Source\bsw\FreeRTOS\src/mpu_wrappers.c **** 
 639:Source\bsw\FreeRTOS\src/mpu_wrappers.c **** BaseType_t MPU_xQueueGenericSend( QueueHandle_t xQueue, const void * const pvItemToQueue, TickType_
 640:Source\bsw\FreeRTOS\src/mpu_wrappers.c **** {
 1252              		.loc 1 640 0
 1253              		.cfi_startproc
 1254              		@ args = 0, pretend = 0, frame = 0
 1255              		@ frame_needed = 0, uses_anonymous_args = 0
 1256              	.LVL195:
 1257 0000 2DE9F041 		push	{r4, r5, r6, r7, r8, lr}
 1258              		.cfi_def_cfa_offset 24
 1259              		.cfi_offset 4, -24
 1260              		.cfi_offset 5, -20
 1261              		.cfi_offset 6, -16
 1262              		.cfi_offset 7, -12
 1263              		.cfi_offset 8, -8
 1264              		.cfi_offset 14, -4
 1265 0004 0446     		mov	r4, r0
 1266 0006 0E46     		mov	r6, r1
 1267 0008 1746     		mov	r7, r2
 1268 000a 9846     		mov	r8, r3
 641:Source\bsw\FreeRTOS\src/mpu_wrappers.c **** BaseType_t xReturn;
 642:Source\bsw\FreeRTOS\src/mpu_wrappers.c **** BaseType_t xRunningPrivileged = xPortRaisePrivilege();
 1269              		.loc 1 642 0
 1270 000c FFF7FEFF 		bl	xPortRaisePrivilege
 1271              	.LVL196:
 1272 0010 0546     		mov	r5, r0
 1273              	.LVL197:
 643:Source\bsw\FreeRTOS\src/mpu_wrappers.c **** 
 644:Source\bsw\FreeRTOS\src/mpu_wrappers.c **** 	xReturn = xQueueGenericSend( xQueue, pvItemToQueue, xTicksToWait, xCopyPosition );
 1274              		.loc 1 644 0
 1275 0012 4346     		mov	r3, r8
 1276 0014 3A46     		mov	r2, r7
 1277 0016 3146     		mov	r1, r6
 1278 0018 2046     		mov	r0, r4
 1279              	.LVL198:
 1280 001a FFF7FEFF 		bl	xQueueGenericSend
 1281              	.LVL199:
 1282 001e 0446     		mov	r4, r0
 1283              	.LVL200:
 645:Source\bsw\FreeRTOS\src/mpu_wrappers.c **** 	vPortResetPrivilege( xRunningPrivileged );
 1284              		.loc 1 645 0
 1285 0020 2846     		mov	r0, r5
 1286              	.LVL201:
 1287 0022 FFF7FEFF 		bl	vPortResetPrivilege
 1288              	.LVL202:
 646:Source\bsw\FreeRTOS\src/mpu_wrappers.c **** 	return xReturn;
 647:Source\bsw\FreeRTOS\src/mpu_wrappers.c **** }
 1289              		.loc 1 647 0
 1290 0026 2046     		mov	r0, r4
ARM GAS  C:\Users\Reza\AppData\Local\Temp\cckOPwM0.s 			page 35


 1291 0028 BDE8F081 		pop	{r4, r5, r6, r7, r8, pc}
 1292              		.cfi_endproc
 1293              	.LFE97:
 1294              		.size	MPU_xQueueGenericSend, .-MPU_xQueueGenericSend
 1295              		.section	.text.MPU_uxQueueMessagesWaiting,"ax",%progbits
 1296              		.align	2
 1297              		.global	MPU_uxQueueMessagesWaiting
 1298              		.thumb
 1299              		.thumb_func
 1300              		.type	MPU_uxQueueMessagesWaiting, %function
 1301              	MPU_uxQueueMessagesWaiting:
 1302              	.LFB98:
 648:Source\bsw\FreeRTOS\src/mpu_wrappers.c **** /*-----------------------------------------------------------*/
 649:Source\bsw\FreeRTOS\src/mpu_wrappers.c **** 
 650:Source\bsw\FreeRTOS\src/mpu_wrappers.c **** UBaseType_t MPU_uxQueueMessagesWaiting( const QueueHandle_t pxQueue ) /* FREERTOS_SYSTEM_CALL */
 651:Source\bsw\FreeRTOS\src/mpu_wrappers.c **** {
 1303              		.loc 1 651 0
 1304              		.cfi_startproc
 1305              		@ args = 0, pretend = 0, frame = 0
 1306              		@ frame_needed = 0, uses_anonymous_args = 0
 1307              	.LVL203:
 1308 0000 38B5     		push	{r3, r4, r5, lr}
 1309              		.cfi_def_cfa_offset 16
 1310              		.cfi_offset 3, -16
 1311              		.cfi_offset 4, -12
 1312              		.cfi_offset 5, -8
 1313              		.cfi_offset 14, -4
 1314 0002 0446     		mov	r4, r0
 652:Source\bsw\FreeRTOS\src/mpu_wrappers.c **** BaseType_t xRunningPrivileged = xPortRaisePrivilege();
 1315              		.loc 1 652 0
 1316 0004 FFF7FEFF 		bl	xPortRaisePrivilege
 1317              	.LVL204:
 1318 0008 0546     		mov	r5, r0
 1319              	.LVL205:
 653:Source\bsw\FreeRTOS\src/mpu_wrappers.c **** UBaseType_t uxReturn;
 654:Source\bsw\FreeRTOS\src/mpu_wrappers.c **** 
 655:Source\bsw\FreeRTOS\src/mpu_wrappers.c **** 	uxReturn = uxQueueMessagesWaiting( pxQueue );
 1320              		.loc 1 655 0
 1321 000a 2046     		mov	r0, r4
 1322              	.LVL206:
 1323 000c FFF7FEFF 		bl	uxQueueMessagesWaiting
 1324              	.LVL207:
 1325 0010 0446     		mov	r4, r0
 1326              	.LVL208:
 656:Source\bsw\FreeRTOS\src/mpu_wrappers.c **** 	vPortResetPrivilege( xRunningPrivileged );
 1327              		.loc 1 656 0
 1328 0012 2846     		mov	r0, r5
 1329              	.LVL209:
 1330 0014 FFF7FEFF 		bl	vPortResetPrivilege
 1331              	.LVL210:
 657:Source\bsw\FreeRTOS\src/mpu_wrappers.c **** 	return uxReturn;
 658:Source\bsw\FreeRTOS\src/mpu_wrappers.c **** }
 1332              		.loc 1 658 0
 1333 0018 2046     		mov	r0, r4
 1334 001a 38BD     		pop	{r3, r4, r5, pc}
 1335              		.cfi_endproc
 1336              	.LFE98:
ARM GAS  C:\Users\Reza\AppData\Local\Temp\cckOPwM0.s 			page 36


 1337              		.size	MPU_uxQueueMessagesWaiting, .-MPU_uxQueueMessagesWaiting
 1338              		.section	.text.MPU_uxQueueSpacesAvailable,"ax",%progbits
 1339              		.align	2
 1340              		.global	MPU_uxQueueSpacesAvailable
 1341              		.thumb
 1342              		.thumb_func
 1343              		.type	MPU_uxQueueSpacesAvailable, %function
 1344              	MPU_uxQueueSpacesAvailable:
 1345              	.LFB99:
 659:Source\bsw\FreeRTOS\src/mpu_wrappers.c **** /*-----------------------------------------------------------*/
 660:Source\bsw\FreeRTOS\src/mpu_wrappers.c **** 
 661:Source\bsw\FreeRTOS\src/mpu_wrappers.c **** UBaseType_t MPU_uxQueueSpacesAvailable( const QueueHandle_t xQueue ) /* FREERTOS_SYSTEM_CALL */
 662:Source\bsw\FreeRTOS\src/mpu_wrappers.c **** {
 1346              		.loc 1 662 0
 1347              		.cfi_startproc
 1348              		@ args = 0, pretend = 0, frame = 0
 1349              		@ frame_needed = 0, uses_anonymous_args = 0
 1350              	.LVL211:
 1351 0000 38B5     		push	{r3, r4, r5, lr}
 1352              		.cfi_def_cfa_offset 16
 1353              		.cfi_offset 3, -16
 1354              		.cfi_offset 4, -12
 1355              		.cfi_offset 5, -8
 1356              		.cfi_offset 14, -4
 1357 0002 0446     		mov	r4, r0
 663:Source\bsw\FreeRTOS\src/mpu_wrappers.c **** BaseType_t xRunningPrivileged = xPortRaisePrivilege();
 1358              		.loc 1 663 0
 1359 0004 FFF7FEFF 		bl	xPortRaisePrivilege
 1360              	.LVL212:
 1361 0008 0546     		mov	r5, r0
 1362              	.LVL213:
 664:Source\bsw\FreeRTOS\src/mpu_wrappers.c **** UBaseType_t uxReturn;
 665:Source\bsw\FreeRTOS\src/mpu_wrappers.c **** 
 666:Source\bsw\FreeRTOS\src/mpu_wrappers.c **** 	uxReturn = uxQueueSpacesAvailable( xQueue );
 1363              		.loc 1 666 0
 1364 000a 2046     		mov	r0, r4
 1365              	.LVL214:
 1366 000c FFF7FEFF 		bl	uxQueueSpacesAvailable
 1367              	.LVL215:
 1368 0010 0446     		mov	r4, r0
 1369              	.LVL216:
 667:Source\bsw\FreeRTOS\src/mpu_wrappers.c **** 	vPortResetPrivilege( xRunningPrivileged );
 1370              		.loc 1 667 0
 1371 0012 2846     		mov	r0, r5
 1372              	.LVL217:
 1373 0014 FFF7FEFF 		bl	vPortResetPrivilege
 1374              	.LVL218:
 668:Source\bsw\FreeRTOS\src/mpu_wrappers.c **** 	return uxReturn;
 669:Source\bsw\FreeRTOS\src/mpu_wrappers.c **** }
 1375              		.loc 1 669 0
 1376 0018 2046     		mov	r0, r4
 1377 001a 38BD     		pop	{r3, r4, r5, pc}
 1378              		.cfi_endproc
 1379              	.LFE99:
 1380              		.size	MPU_uxQueueSpacesAvailable, .-MPU_uxQueueSpacesAvailable
 1381              		.section	.text.MPU_xQueueReceive,"ax",%progbits
 1382              		.align	2
ARM GAS  C:\Users\Reza\AppData\Local\Temp\cckOPwM0.s 			page 37


 1383              		.global	MPU_xQueueReceive
 1384              		.thumb
 1385              		.thumb_func
 1386              		.type	MPU_xQueueReceive, %function
 1387              	MPU_xQueueReceive:
 1388              	.LFB100:
 670:Source\bsw\FreeRTOS\src/mpu_wrappers.c **** /*-----------------------------------------------------------*/
 671:Source\bsw\FreeRTOS\src/mpu_wrappers.c **** 
 672:Source\bsw\FreeRTOS\src/mpu_wrappers.c **** BaseType_t MPU_xQueueReceive( QueueHandle_t pxQueue, void * const pvBuffer, TickType_t xTicksToWait
 673:Source\bsw\FreeRTOS\src/mpu_wrappers.c **** {
 1389              		.loc 1 673 0
 1390              		.cfi_startproc
 1391              		@ args = 0, pretend = 0, frame = 0
 1392              		@ frame_needed = 0, uses_anonymous_args = 0
 1393              	.LVL219:
 1394 0000 F8B5     		push	{r3, r4, r5, r6, r7, lr}
 1395              		.cfi_def_cfa_offset 24
 1396              		.cfi_offset 3, -24
 1397              		.cfi_offset 4, -20
 1398              		.cfi_offset 5, -16
 1399              		.cfi_offset 6, -12
 1400              		.cfi_offset 7, -8
 1401              		.cfi_offset 14, -4
 1402 0002 0446     		mov	r4, r0
 1403 0004 0E46     		mov	r6, r1
 1404 0006 1746     		mov	r7, r2
 674:Source\bsw\FreeRTOS\src/mpu_wrappers.c **** BaseType_t xRunningPrivileged = xPortRaisePrivilege();
 1405              		.loc 1 674 0
 1406 0008 FFF7FEFF 		bl	xPortRaisePrivilege
 1407              	.LVL220:
 1408 000c 0546     		mov	r5, r0
 1409              	.LVL221:
 675:Source\bsw\FreeRTOS\src/mpu_wrappers.c **** BaseType_t xReturn;
 676:Source\bsw\FreeRTOS\src/mpu_wrappers.c **** 
 677:Source\bsw\FreeRTOS\src/mpu_wrappers.c **** 	xReturn = xQueueReceive( pxQueue, pvBuffer, xTicksToWait );
 1410              		.loc 1 677 0
 1411 000e 3A46     		mov	r2, r7
 1412 0010 3146     		mov	r1, r6
 1413 0012 2046     		mov	r0, r4
 1414              	.LVL222:
 1415 0014 FFF7FEFF 		bl	xQueueReceive
 1416              	.LVL223:
 1417 0018 0446     		mov	r4, r0
 1418              	.LVL224:
 678:Source\bsw\FreeRTOS\src/mpu_wrappers.c **** 	vPortResetPrivilege( xRunningPrivileged );
 1419              		.loc 1 678 0
 1420 001a 2846     		mov	r0, r5
 1421              	.LVL225:
 1422 001c FFF7FEFF 		bl	vPortResetPrivilege
 1423              	.LVL226:
 679:Source\bsw\FreeRTOS\src/mpu_wrappers.c **** 	return xReturn;
 680:Source\bsw\FreeRTOS\src/mpu_wrappers.c **** }
 1424              		.loc 1 680 0
 1425 0020 2046     		mov	r0, r4
 1426 0022 F8BD     		pop	{r3, r4, r5, r6, r7, pc}
 1427              		.cfi_endproc
 1428              	.LFE100:
ARM GAS  C:\Users\Reza\AppData\Local\Temp\cckOPwM0.s 			page 38


 1429              		.size	MPU_xQueueReceive, .-MPU_xQueueReceive
 1430              		.section	.text.MPU_xQueuePeek,"ax",%progbits
 1431              		.align	2
 1432              		.global	MPU_xQueuePeek
 1433              		.thumb
 1434              		.thumb_func
 1435              		.type	MPU_xQueuePeek, %function
 1436              	MPU_xQueuePeek:
 1437              	.LFB101:
 681:Source\bsw\FreeRTOS\src/mpu_wrappers.c **** /*-----------------------------------------------------------*/
 682:Source\bsw\FreeRTOS\src/mpu_wrappers.c **** 
 683:Source\bsw\FreeRTOS\src/mpu_wrappers.c **** BaseType_t MPU_xQueuePeek( QueueHandle_t xQueue, void * const pvBuffer, TickType_t xTicksToWait ) /
 684:Source\bsw\FreeRTOS\src/mpu_wrappers.c **** {
 1438              		.loc 1 684 0
 1439              		.cfi_startproc
 1440              		@ args = 0, pretend = 0, frame = 0
 1441              		@ frame_needed = 0, uses_anonymous_args = 0
 1442              	.LVL227:
 1443 0000 F8B5     		push	{r3, r4, r5, r6, r7, lr}
 1444              		.cfi_def_cfa_offset 24
 1445              		.cfi_offset 3, -24
 1446              		.cfi_offset 4, -20
 1447              		.cfi_offset 5, -16
 1448              		.cfi_offset 6, -12
 1449              		.cfi_offset 7, -8
 1450              		.cfi_offset 14, -4
 1451 0002 0446     		mov	r4, r0
 1452 0004 0E46     		mov	r6, r1
 1453 0006 1746     		mov	r7, r2
 685:Source\bsw\FreeRTOS\src/mpu_wrappers.c **** BaseType_t xRunningPrivileged = xPortRaisePrivilege();
 1454              		.loc 1 685 0
 1455 0008 FFF7FEFF 		bl	xPortRaisePrivilege
 1456              	.LVL228:
 1457 000c 0546     		mov	r5, r0
 1458              	.LVL229:
 686:Source\bsw\FreeRTOS\src/mpu_wrappers.c **** BaseType_t xReturn;
 687:Source\bsw\FreeRTOS\src/mpu_wrappers.c **** 
 688:Source\bsw\FreeRTOS\src/mpu_wrappers.c **** 	xReturn = xQueuePeek( xQueue, pvBuffer, xTicksToWait );
 1459              		.loc 1 688 0
 1460 000e 3A46     		mov	r2, r7
 1461 0010 3146     		mov	r1, r6
 1462 0012 2046     		mov	r0, r4
 1463              	.LVL230:
 1464 0014 FFF7FEFF 		bl	xQueuePeek
 1465              	.LVL231:
 1466 0018 0446     		mov	r4, r0
 1467              	.LVL232:
 689:Source\bsw\FreeRTOS\src/mpu_wrappers.c **** 	vPortResetPrivilege( xRunningPrivileged );
 1468              		.loc 1 689 0
 1469 001a 2846     		mov	r0, r5
 1470              	.LVL233:
 1471 001c FFF7FEFF 		bl	vPortResetPrivilege
 1472              	.LVL234:
 690:Source\bsw\FreeRTOS\src/mpu_wrappers.c **** 	return xReturn;
 691:Source\bsw\FreeRTOS\src/mpu_wrappers.c **** }
 1473              		.loc 1 691 0
 1474 0020 2046     		mov	r0, r4
ARM GAS  C:\Users\Reza\AppData\Local\Temp\cckOPwM0.s 			page 39


 1475 0022 F8BD     		pop	{r3, r4, r5, r6, r7, pc}
 1476              		.cfi_endproc
 1477              	.LFE101:
 1478              		.size	MPU_xQueuePeek, .-MPU_xQueuePeek
 1479              		.section	.text.MPU_xQueueSemaphoreTake,"ax",%progbits
 1480              		.align	2
 1481              		.global	MPU_xQueueSemaphoreTake
 1482              		.thumb
 1483              		.thumb_func
 1484              		.type	MPU_xQueueSemaphoreTake, %function
 1485              	MPU_xQueueSemaphoreTake:
 1486              	.LFB102:
 692:Source\bsw\FreeRTOS\src/mpu_wrappers.c **** /*-----------------------------------------------------------*/
 693:Source\bsw\FreeRTOS\src/mpu_wrappers.c **** 
 694:Source\bsw\FreeRTOS\src/mpu_wrappers.c **** BaseType_t MPU_xQueueSemaphoreTake( QueueHandle_t xQueue, TickType_t xTicksToWait ) /* FREERTOS_SYS
 695:Source\bsw\FreeRTOS\src/mpu_wrappers.c **** {
 1487              		.loc 1 695 0
 1488              		.cfi_startproc
 1489              		@ args = 0, pretend = 0, frame = 0
 1490              		@ frame_needed = 0, uses_anonymous_args = 0
 1491              	.LVL235:
 1492 0000 70B5     		push	{r4, r5, r6, lr}
 1493              		.cfi_def_cfa_offset 16
 1494              		.cfi_offset 4, -16
 1495              		.cfi_offset 5, -12
 1496              		.cfi_offset 6, -8
 1497              		.cfi_offset 14, -4
 1498 0002 0446     		mov	r4, r0
 1499 0004 0E46     		mov	r6, r1
 696:Source\bsw\FreeRTOS\src/mpu_wrappers.c **** BaseType_t xRunningPrivileged = xPortRaisePrivilege();
 1500              		.loc 1 696 0
 1501 0006 FFF7FEFF 		bl	xPortRaisePrivilege
 1502              	.LVL236:
 1503 000a 0546     		mov	r5, r0
 1504              	.LVL237:
 697:Source\bsw\FreeRTOS\src/mpu_wrappers.c **** BaseType_t xReturn;
 698:Source\bsw\FreeRTOS\src/mpu_wrappers.c **** 
 699:Source\bsw\FreeRTOS\src/mpu_wrappers.c **** 	xReturn = xQueueSemaphoreTake( xQueue, xTicksToWait );
 1505              		.loc 1 699 0
 1506 000c 3146     		mov	r1, r6
 1507 000e 2046     		mov	r0, r4
 1508              	.LVL238:
 1509 0010 FFF7FEFF 		bl	xQueueSemaphoreTake
 1510              	.LVL239:
 1511 0014 0446     		mov	r4, r0
 1512              	.LVL240:
 700:Source\bsw\FreeRTOS\src/mpu_wrappers.c **** 	vPortResetPrivilege( xRunningPrivileged );
 1513              		.loc 1 700 0
 1514 0016 2846     		mov	r0, r5
 1515              	.LVL241:
 1516 0018 FFF7FEFF 		bl	vPortResetPrivilege
 1517              	.LVL242:
 701:Source\bsw\FreeRTOS\src/mpu_wrappers.c **** 	return xReturn;
 702:Source\bsw\FreeRTOS\src/mpu_wrappers.c **** }
 1518              		.loc 1 702 0
 1519 001c 2046     		mov	r0, r4
 1520 001e 70BD     		pop	{r4, r5, r6, pc}
ARM GAS  C:\Users\Reza\AppData\Local\Temp\cckOPwM0.s 			page 40


 1521              		.cfi_endproc
 1522              	.LFE102:
 1523              		.size	MPU_xQueueSemaphoreTake, .-MPU_xQueueSemaphoreTake
 1524              		.section	.text.MPU_xQueueCreateMutex,"ax",%progbits
 1525              		.align	2
 1526              		.global	MPU_xQueueCreateMutex
 1527              		.thumb
 1528              		.thumb_func
 1529              		.type	MPU_xQueueCreateMutex, %function
 1530              	MPU_xQueueCreateMutex:
 1531              	.LFB103:
 703:Source\bsw\FreeRTOS\src/mpu_wrappers.c **** /*-----------------------------------------------------------*/
 704:Source\bsw\FreeRTOS\src/mpu_wrappers.c **** 
 705:Source\bsw\FreeRTOS\src/mpu_wrappers.c **** #if ( ( configUSE_MUTEXES == 1 ) && ( INCLUDE_xSemaphoreGetMutexHolder == 1 ) )
 706:Source\bsw\FreeRTOS\src/mpu_wrappers.c **** 	TaskHandle_t MPU_xQueueGetMutexHolder( QueueHandle_t xSemaphore ) /* FREERTOS_SYSTEM_CALL */
 707:Source\bsw\FreeRTOS\src/mpu_wrappers.c **** 	{
 708:Source\bsw\FreeRTOS\src/mpu_wrappers.c **** 	BaseType_t xRunningPrivileged = xPortRaisePrivilege();
 709:Source\bsw\FreeRTOS\src/mpu_wrappers.c **** 	void * xReturn;
 710:Source\bsw\FreeRTOS\src/mpu_wrappers.c **** 
 711:Source\bsw\FreeRTOS\src/mpu_wrappers.c **** 		xReturn = xQueueGetMutexHolder( xSemaphore );
 712:Source\bsw\FreeRTOS\src/mpu_wrappers.c **** 		vPortResetPrivilege( xRunningPrivileged );
 713:Source\bsw\FreeRTOS\src/mpu_wrappers.c **** 		return xReturn;
 714:Source\bsw\FreeRTOS\src/mpu_wrappers.c **** 	}
 715:Source\bsw\FreeRTOS\src/mpu_wrappers.c **** #endif
 716:Source\bsw\FreeRTOS\src/mpu_wrappers.c **** /*-----------------------------------------------------------*/
 717:Source\bsw\FreeRTOS\src/mpu_wrappers.c **** 
 718:Source\bsw\FreeRTOS\src/mpu_wrappers.c **** #if( ( configUSE_MUTEXES == 1 ) && ( configSUPPORT_DYNAMIC_ALLOCATION == 1 ) )
 719:Source\bsw\FreeRTOS\src/mpu_wrappers.c **** 	QueueHandle_t MPU_xQueueCreateMutex( const uint8_t ucQueueType ) /* FREERTOS_SYSTEM_CALL */
 720:Source\bsw\FreeRTOS\src/mpu_wrappers.c **** 	{
 1532              		.loc 1 720 0
 1533              		.cfi_startproc
 1534              		@ args = 0, pretend = 0, frame = 0
 1535              		@ frame_needed = 0, uses_anonymous_args = 0
 1536              	.LVL243:
 1537 0000 38B5     		push	{r3, r4, r5, lr}
 1538              		.cfi_def_cfa_offset 16
 1539              		.cfi_offset 3, -16
 1540              		.cfi_offset 4, -12
 1541              		.cfi_offset 5, -8
 1542              		.cfi_offset 14, -4
 1543 0002 0446     		mov	r4, r0
 721:Source\bsw\FreeRTOS\src/mpu_wrappers.c **** 	QueueHandle_t xReturn;
 722:Source\bsw\FreeRTOS\src/mpu_wrappers.c **** 	BaseType_t xRunningPrivileged = xPortRaisePrivilege();
 1544              		.loc 1 722 0
 1545 0004 FFF7FEFF 		bl	xPortRaisePrivilege
 1546              	.LVL244:
 1547 0008 0546     		mov	r5, r0
 1548              	.LVL245:
 723:Source\bsw\FreeRTOS\src/mpu_wrappers.c **** 
 724:Source\bsw\FreeRTOS\src/mpu_wrappers.c **** 		xReturn = xQueueCreateMutex( ucQueueType );
 1549              		.loc 1 724 0
 1550 000a 2046     		mov	r0, r4
 1551              	.LVL246:
 1552 000c FFF7FEFF 		bl	xQueueCreateMutex
 1553              	.LVL247:
 1554 0010 0446     		mov	r4, r0
 1555              	.LVL248:
ARM GAS  C:\Users\Reza\AppData\Local\Temp\cckOPwM0.s 			page 41


 725:Source\bsw\FreeRTOS\src/mpu_wrappers.c **** 		vPortResetPrivilege( xRunningPrivileged );
 1556              		.loc 1 725 0
 1557 0012 2846     		mov	r0, r5
 1558              	.LVL249:
 1559 0014 FFF7FEFF 		bl	vPortResetPrivilege
 1560              	.LVL250:
 726:Source\bsw\FreeRTOS\src/mpu_wrappers.c **** 		return xReturn;
 727:Source\bsw\FreeRTOS\src/mpu_wrappers.c **** 	}
 1561              		.loc 1 727 0
 1562 0018 2046     		mov	r0, r4
 1563 001a 38BD     		pop	{r3, r4, r5, pc}
 1564              		.cfi_endproc
 1565              	.LFE103:
 1566              		.size	MPU_xQueueCreateMutex, .-MPU_xQueueCreateMutex
 1567              		.section	.text.MPU_xQueueCreateCountingSemaphore,"ax",%progbits
 1568              		.align	2
 1569              		.global	MPU_xQueueCreateCountingSemaphore
 1570              		.thumb
 1571              		.thumb_func
 1572              		.type	MPU_xQueueCreateCountingSemaphore, %function
 1573              	MPU_xQueueCreateCountingSemaphore:
 1574              	.LFB104:
 728:Source\bsw\FreeRTOS\src/mpu_wrappers.c **** #endif
 729:Source\bsw\FreeRTOS\src/mpu_wrappers.c **** /*-----------------------------------------------------------*/
 730:Source\bsw\FreeRTOS\src/mpu_wrappers.c **** 
 731:Source\bsw\FreeRTOS\src/mpu_wrappers.c **** #if( ( configUSE_MUTEXES == 1 ) && ( configSUPPORT_STATIC_ALLOCATION == 1 ) )
 732:Source\bsw\FreeRTOS\src/mpu_wrappers.c **** 	QueueHandle_t MPU_xQueueCreateMutexStatic( const uint8_t ucQueueType, StaticQueue_t *pxStaticQueue
 733:Source\bsw\FreeRTOS\src/mpu_wrappers.c **** 	{
 734:Source\bsw\FreeRTOS\src/mpu_wrappers.c **** 	QueueHandle_t xReturn;
 735:Source\bsw\FreeRTOS\src/mpu_wrappers.c **** 	BaseType_t xRunningPrivileged = xPortRaisePrivilege();
 736:Source\bsw\FreeRTOS\src/mpu_wrappers.c **** 
 737:Source\bsw\FreeRTOS\src/mpu_wrappers.c **** 		xReturn = xQueueCreateMutexStatic( ucQueueType, pxStaticQueue );
 738:Source\bsw\FreeRTOS\src/mpu_wrappers.c **** 		vPortResetPrivilege( xRunningPrivileged );
 739:Source\bsw\FreeRTOS\src/mpu_wrappers.c **** 		return xReturn;
 740:Source\bsw\FreeRTOS\src/mpu_wrappers.c **** 	}
 741:Source\bsw\FreeRTOS\src/mpu_wrappers.c **** #endif
 742:Source\bsw\FreeRTOS\src/mpu_wrappers.c **** /*-----------------------------------------------------------*/
 743:Source\bsw\FreeRTOS\src/mpu_wrappers.c **** 
 744:Source\bsw\FreeRTOS\src/mpu_wrappers.c **** #if( ( configUSE_COUNTING_SEMAPHORES == 1 ) && ( configSUPPORT_DYNAMIC_ALLOCATION == 1 ) )
 745:Source\bsw\FreeRTOS\src/mpu_wrappers.c **** 	QueueHandle_t MPU_xQueueCreateCountingSemaphore( UBaseType_t uxCountValue, UBaseType_t uxInitialCo
 746:Source\bsw\FreeRTOS\src/mpu_wrappers.c **** 	{
 1575              		.loc 1 746 0
 1576              		.cfi_startproc
 1577              		@ args = 0, pretend = 0, frame = 0
 1578              		@ frame_needed = 0, uses_anonymous_args = 0
 1579              	.LVL251:
 1580 0000 70B5     		push	{r4, r5, r6, lr}
 1581              		.cfi_def_cfa_offset 16
 1582              		.cfi_offset 4, -16
 1583              		.cfi_offset 5, -12
 1584              		.cfi_offset 6, -8
 1585              		.cfi_offset 14, -4
 1586 0002 0446     		mov	r4, r0
 1587 0004 0E46     		mov	r6, r1
 747:Source\bsw\FreeRTOS\src/mpu_wrappers.c **** 	QueueHandle_t xReturn;
 748:Source\bsw\FreeRTOS\src/mpu_wrappers.c **** 	BaseType_t xRunningPrivileged = xPortRaisePrivilege();
 1588              		.loc 1 748 0
ARM GAS  C:\Users\Reza\AppData\Local\Temp\cckOPwM0.s 			page 42


 1589 0006 FFF7FEFF 		bl	xPortRaisePrivilege
 1590              	.LVL252:
 1591 000a 0546     		mov	r5, r0
 1592              	.LVL253:
 749:Source\bsw\FreeRTOS\src/mpu_wrappers.c **** 
 750:Source\bsw\FreeRTOS\src/mpu_wrappers.c **** 		xReturn = xQueueCreateCountingSemaphore( uxCountValue, uxInitialCount );
 1593              		.loc 1 750 0
 1594 000c 3146     		mov	r1, r6
 1595 000e 2046     		mov	r0, r4
 1596              	.LVL254:
 1597 0010 FFF7FEFF 		bl	xQueueCreateCountingSemaphore
 1598              	.LVL255:
 1599 0014 0446     		mov	r4, r0
 1600              	.LVL256:
 751:Source\bsw\FreeRTOS\src/mpu_wrappers.c **** 		vPortResetPrivilege( xRunningPrivileged );
 1601              		.loc 1 751 0
 1602 0016 2846     		mov	r0, r5
 1603              	.LVL257:
 1604 0018 FFF7FEFF 		bl	vPortResetPrivilege
 1605              	.LVL258:
 752:Source\bsw\FreeRTOS\src/mpu_wrappers.c **** 		return xReturn;
 753:Source\bsw\FreeRTOS\src/mpu_wrappers.c **** 	}
 1606              		.loc 1 753 0
 1607 001c 2046     		mov	r0, r4
 1608 001e 70BD     		pop	{r4, r5, r6, pc}
 1609              		.cfi_endproc
 1610              	.LFE104:
 1611              		.size	MPU_xQueueCreateCountingSemaphore, .-MPU_xQueueCreateCountingSemaphore
 1612              		.section	.text.MPU_xQueueTakeMutexRecursive,"ax",%progbits
 1613              		.align	2
 1614              		.global	MPU_xQueueTakeMutexRecursive
 1615              		.thumb
 1616              		.thumb_func
 1617              		.type	MPU_xQueueTakeMutexRecursive, %function
 1618              	MPU_xQueueTakeMutexRecursive:
 1619              	.LFB105:
 754:Source\bsw\FreeRTOS\src/mpu_wrappers.c **** #endif
 755:Source\bsw\FreeRTOS\src/mpu_wrappers.c **** /*-----------------------------------------------------------*/
 756:Source\bsw\FreeRTOS\src/mpu_wrappers.c **** 
 757:Source\bsw\FreeRTOS\src/mpu_wrappers.c **** #if( ( configUSE_COUNTING_SEMAPHORES == 1 ) && ( configSUPPORT_STATIC_ALLOCATION == 1 ) )
 758:Source\bsw\FreeRTOS\src/mpu_wrappers.c **** 
 759:Source\bsw\FreeRTOS\src/mpu_wrappers.c **** 	QueueHandle_t MPU_xQueueCreateCountingSemaphoreStatic( const UBaseType_t uxMaxCount, const UBaseTy
 760:Source\bsw\FreeRTOS\src/mpu_wrappers.c **** 	{
 761:Source\bsw\FreeRTOS\src/mpu_wrappers.c **** 	QueueHandle_t xReturn;
 762:Source\bsw\FreeRTOS\src/mpu_wrappers.c **** 	BaseType_t xRunningPrivileged = xPortRaisePrivilege();
 763:Source\bsw\FreeRTOS\src/mpu_wrappers.c **** 
 764:Source\bsw\FreeRTOS\src/mpu_wrappers.c **** 		xReturn = xQueueCreateCountingSemaphoreStatic( uxMaxCount, uxInitialCount, pxStaticQueue );
 765:Source\bsw\FreeRTOS\src/mpu_wrappers.c **** 		vPortResetPrivilege( xRunningPrivileged );
 766:Source\bsw\FreeRTOS\src/mpu_wrappers.c **** 		return xReturn;
 767:Source\bsw\FreeRTOS\src/mpu_wrappers.c **** 	}
 768:Source\bsw\FreeRTOS\src/mpu_wrappers.c **** #endif
 769:Source\bsw\FreeRTOS\src/mpu_wrappers.c **** /*-----------------------------------------------------------*/
 770:Source\bsw\FreeRTOS\src/mpu_wrappers.c **** 
 771:Source\bsw\FreeRTOS\src/mpu_wrappers.c **** #if ( configUSE_RECURSIVE_MUTEXES == 1 )
 772:Source\bsw\FreeRTOS\src/mpu_wrappers.c **** 	BaseType_t MPU_xQueueTakeMutexRecursive( QueueHandle_t xMutex, TickType_t xBlockTime ) /* FREERTOS
 773:Source\bsw\FreeRTOS\src/mpu_wrappers.c **** 	{
 1620              		.loc 1 773 0
ARM GAS  C:\Users\Reza\AppData\Local\Temp\cckOPwM0.s 			page 43


 1621              		.cfi_startproc
 1622              		@ args = 0, pretend = 0, frame = 0
 1623              		@ frame_needed = 0, uses_anonymous_args = 0
 1624              	.LVL259:
 1625 0000 70B5     		push	{r4, r5, r6, lr}
 1626              		.cfi_def_cfa_offset 16
 1627              		.cfi_offset 4, -16
 1628              		.cfi_offset 5, -12
 1629              		.cfi_offset 6, -8
 1630              		.cfi_offset 14, -4
 1631 0002 0446     		mov	r4, r0
 1632 0004 0E46     		mov	r6, r1
 774:Source\bsw\FreeRTOS\src/mpu_wrappers.c **** 	BaseType_t xReturn;
 775:Source\bsw\FreeRTOS\src/mpu_wrappers.c **** 	BaseType_t xRunningPrivileged = xPortRaisePrivilege();
 1633              		.loc 1 775 0
 1634 0006 FFF7FEFF 		bl	xPortRaisePrivilege
 1635              	.LVL260:
 1636 000a 0546     		mov	r5, r0
 1637              	.LVL261:
 776:Source\bsw\FreeRTOS\src/mpu_wrappers.c **** 
 777:Source\bsw\FreeRTOS\src/mpu_wrappers.c **** 		xReturn = xQueueTakeMutexRecursive( xMutex, xBlockTime );
 1638              		.loc 1 777 0
 1639 000c 3146     		mov	r1, r6
 1640 000e 2046     		mov	r0, r4
 1641              	.LVL262:
 1642 0010 FFF7FEFF 		bl	xQueueTakeMutexRecursive
 1643              	.LVL263:
 1644 0014 0446     		mov	r4, r0
 1645              	.LVL264:
 778:Source\bsw\FreeRTOS\src/mpu_wrappers.c **** 		vPortResetPrivilege( xRunningPrivileged );
 1646              		.loc 1 778 0
 1647 0016 2846     		mov	r0, r5
 1648              	.LVL265:
 1649 0018 FFF7FEFF 		bl	vPortResetPrivilege
 1650              	.LVL266:
 779:Source\bsw\FreeRTOS\src/mpu_wrappers.c **** 		return xReturn;
 780:Source\bsw\FreeRTOS\src/mpu_wrappers.c **** 	}
 1651              		.loc 1 780 0
 1652 001c 2046     		mov	r0, r4
 1653 001e 70BD     		pop	{r4, r5, r6, pc}
 1654              		.cfi_endproc
 1655              	.LFE105:
 1656              		.size	MPU_xQueueTakeMutexRecursive, .-MPU_xQueueTakeMutexRecursive
 1657              		.section	.text.MPU_xQueueGiveMutexRecursive,"ax",%progbits
 1658              		.align	2
 1659              		.global	MPU_xQueueGiveMutexRecursive
 1660              		.thumb
 1661              		.thumb_func
 1662              		.type	MPU_xQueueGiveMutexRecursive, %function
 1663              	MPU_xQueueGiveMutexRecursive:
 1664              	.LFB106:
 781:Source\bsw\FreeRTOS\src/mpu_wrappers.c **** #endif
 782:Source\bsw\FreeRTOS\src/mpu_wrappers.c **** /*-----------------------------------------------------------*/
 783:Source\bsw\FreeRTOS\src/mpu_wrappers.c **** 
 784:Source\bsw\FreeRTOS\src/mpu_wrappers.c **** #if ( configUSE_RECURSIVE_MUTEXES == 1 )
 785:Source\bsw\FreeRTOS\src/mpu_wrappers.c **** 	BaseType_t MPU_xQueueGiveMutexRecursive( QueueHandle_t xMutex ) /* FREERTOS_SYSTEM_CALL */
 786:Source\bsw\FreeRTOS\src/mpu_wrappers.c **** 	{
ARM GAS  C:\Users\Reza\AppData\Local\Temp\cckOPwM0.s 			page 44


 1665              		.loc 1 786 0
 1666              		.cfi_startproc
 1667              		@ args = 0, pretend = 0, frame = 0
 1668              		@ frame_needed = 0, uses_anonymous_args = 0
 1669              	.LVL267:
 1670 0000 38B5     		push	{r3, r4, r5, lr}
 1671              		.cfi_def_cfa_offset 16
 1672              		.cfi_offset 3, -16
 1673              		.cfi_offset 4, -12
 1674              		.cfi_offset 5, -8
 1675              		.cfi_offset 14, -4
 1676 0002 0446     		mov	r4, r0
 787:Source\bsw\FreeRTOS\src/mpu_wrappers.c **** 	BaseType_t xReturn;
 788:Source\bsw\FreeRTOS\src/mpu_wrappers.c **** 	BaseType_t xRunningPrivileged = xPortRaisePrivilege();
 1677              		.loc 1 788 0
 1678 0004 FFF7FEFF 		bl	xPortRaisePrivilege
 1679              	.LVL268:
 1680 0008 0546     		mov	r5, r0
 1681              	.LVL269:
 789:Source\bsw\FreeRTOS\src/mpu_wrappers.c **** 
 790:Source\bsw\FreeRTOS\src/mpu_wrappers.c **** 		xReturn = xQueueGiveMutexRecursive( xMutex );
 1682              		.loc 1 790 0
 1683 000a 2046     		mov	r0, r4
 1684              	.LVL270:
 1685 000c FFF7FEFF 		bl	xQueueGiveMutexRecursive
 1686              	.LVL271:
 1687 0010 0446     		mov	r4, r0
 1688              	.LVL272:
 791:Source\bsw\FreeRTOS\src/mpu_wrappers.c **** 		vPortResetPrivilege( xRunningPrivileged );
 1689              		.loc 1 791 0
 1690 0012 2846     		mov	r0, r5
 1691              	.LVL273:
 1692 0014 FFF7FEFF 		bl	vPortResetPrivilege
 1693              	.LVL274:
 792:Source\bsw\FreeRTOS\src/mpu_wrappers.c **** 		return xReturn;
 793:Source\bsw\FreeRTOS\src/mpu_wrappers.c **** 	}
 1694              		.loc 1 793 0
 1695 0018 2046     		mov	r0, r4
 1696 001a 38BD     		pop	{r3, r4, r5, pc}
 1697              		.cfi_endproc
 1698              	.LFE106:
 1699              		.size	MPU_xQueueGiveMutexRecursive, .-MPU_xQueueGiveMutexRecursive
 1700              		.section	.text.MPU_vQueueAddToRegistry,"ax",%progbits
 1701              		.align	2
 1702              		.global	MPU_vQueueAddToRegistry
 1703              		.thumb
 1704              		.thumb_func
 1705              		.type	MPU_vQueueAddToRegistry, %function
 1706              	MPU_vQueueAddToRegistry:
 1707              	.LFB107:
 794:Source\bsw\FreeRTOS\src/mpu_wrappers.c **** #endif
 795:Source\bsw\FreeRTOS\src/mpu_wrappers.c **** /*-----------------------------------------------------------*/
 796:Source\bsw\FreeRTOS\src/mpu_wrappers.c **** 
 797:Source\bsw\FreeRTOS\src/mpu_wrappers.c **** #if( ( configUSE_QUEUE_SETS == 1 ) && ( configSUPPORT_DYNAMIC_ALLOCATION == 1 ) )
 798:Source\bsw\FreeRTOS\src/mpu_wrappers.c **** 	QueueSetHandle_t MPU_xQueueCreateSet( UBaseType_t uxEventQueueLength ) /* FREERTOS_SYSTEM_CALL */
 799:Source\bsw\FreeRTOS\src/mpu_wrappers.c **** 	{
 800:Source\bsw\FreeRTOS\src/mpu_wrappers.c **** 	QueueSetHandle_t xReturn;
ARM GAS  C:\Users\Reza\AppData\Local\Temp\cckOPwM0.s 			page 45


 801:Source\bsw\FreeRTOS\src/mpu_wrappers.c **** 	BaseType_t xRunningPrivileged = xPortRaisePrivilege();
 802:Source\bsw\FreeRTOS\src/mpu_wrappers.c **** 
 803:Source\bsw\FreeRTOS\src/mpu_wrappers.c **** 		xReturn = xQueueCreateSet( uxEventQueueLength );
 804:Source\bsw\FreeRTOS\src/mpu_wrappers.c **** 		vPortResetPrivilege( xRunningPrivileged );
 805:Source\bsw\FreeRTOS\src/mpu_wrappers.c **** 		return xReturn;
 806:Source\bsw\FreeRTOS\src/mpu_wrappers.c **** 	}
 807:Source\bsw\FreeRTOS\src/mpu_wrappers.c **** #endif
 808:Source\bsw\FreeRTOS\src/mpu_wrappers.c **** /*-----------------------------------------------------------*/
 809:Source\bsw\FreeRTOS\src/mpu_wrappers.c **** 
 810:Source\bsw\FreeRTOS\src/mpu_wrappers.c **** #if ( configUSE_QUEUE_SETS == 1 )
 811:Source\bsw\FreeRTOS\src/mpu_wrappers.c **** 	QueueSetMemberHandle_t MPU_xQueueSelectFromSet( QueueSetHandle_t xQueueSet, TickType_t xBlockTimeT
 812:Source\bsw\FreeRTOS\src/mpu_wrappers.c **** 	{
 813:Source\bsw\FreeRTOS\src/mpu_wrappers.c **** 	QueueSetMemberHandle_t xReturn;
 814:Source\bsw\FreeRTOS\src/mpu_wrappers.c **** 	BaseType_t xRunningPrivileged = xPortRaisePrivilege();
 815:Source\bsw\FreeRTOS\src/mpu_wrappers.c **** 
 816:Source\bsw\FreeRTOS\src/mpu_wrappers.c **** 		xReturn = xQueueSelectFromSet( xQueueSet, xBlockTimeTicks );
 817:Source\bsw\FreeRTOS\src/mpu_wrappers.c **** 		vPortResetPrivilege( xRunningPrivileged );
 818:Source\bsw\FreeRTOS\src/mpu_wrappers.c **** 		return xReturn;
 819:Source\bsw\FreeRTOS\src/mpu_wrappers.c **** 	}
 820:Source\bsw\FreeRTOS\src/mpu_wrappers.c **** #endif
 821:Source\bsw\FreeRTOS\src/mpu_wrappers.c **** /*-----------------------------------------------------------*/
 822:Source\bsw\FreeRTOS\src/mpu_wrappers.c **** 
 823:Source\bsw\FreeRTOS\src/mpu_wrappers.c **** #if ( configUSE_QUEUE_SETS == 1 )
 824:Source\bsw\FreeRTOS\src/mpu_wrappers.c **** 	BaseType_t MPU_xQueueAddToSet( QueueSetMemberHandle_t xQueueOrSemaphore, QueueSetHandle_t xQueueSe
 825:Source\bsw\FreeRTOS\src/mpu_wrappers.c **** 	{
 826:Source\bsw\FreeRTOS\src/mpu_wrappers.c **** 	BaseType_t xReturn;
 827:Source\bsw\FreeRTOS\src/mpu_wrappers.c **** 	BaseType_t xRunningPrivileged = xPortRaisePrivilege();
 828:Source\bsw\FreeRTOS\src/mpu_wrappers.c **** 
 829:Source\bsw\FreeRTOS\src/mpu_wrappers.c **** 		xReturn = xQueueAddToSet( xQueueOrSemaphore, xQueueSet );
 830:Source\bsw\FreeRTOS\src/mpu_wrappers.c **** 		vPortResetPrivilege( xRunningPrivileged );
 831:Source\bsw\FreeRTOS\src/mpu_wrappers.c **** 		return xReturn;
 832:Source\bsw\FreeRTOS\src/mpu_wrappers.c **** 	}
 833:Source\bsw\FreeRTOS\src/mpu_wrappers.c **** #endif
 834:Source\bsw\FreeRTOS\src/mpu_wrappers.c **** /*-----------------------------------------------------------*/
 835:Source\bsw\FreeRTOS\src/mpu_wrappers.c **** 
 836:Source\bsw\FreeRTOS\src/mpu_wrappers.c **** #if ( configUSE_QUEUE_SETS == 1 )
 837:Source\bsw\FreeRTOS\src/mpu_wrappers.c **** 	BaseType_t MPU_xQueueRemoveFromSet( QueueSetMemberHandle_t xQueueOrSemaphore, QueueSetHandle_t xQu
 838:Source\bsw\FreeRTOS\src/mpu_wrappers.c **** 	{
 839:Source\bsw\FreeRTOS\src/mpu_wrappers.c **** 	BaseType_t xReturn;
 840:Source\bsw\FreeRTOS\src/mpu_wrappers.c **** 	BaseType_t xRunningPrivileged = xPortRaisePrivilege();
 841:Source\bsw\FreeRTOS\src/mpu_wrappers.c **** 
 842:Source\bsw\FreeRTOS\src/mpu_wrappers.c **** 		xReturn = xQueueRemoveFromSet( xQueueOrSemaphore, xQueueSet );
 843:Source\bsw\FreeRTOS\src/mpu_wrappers.c **** 		vPortResetPrivilege( xRunningPrivileged );
 844:Source\bsw\FreeRTOS\src/mpu_wrappers.c **** 		return xReturn;
 845:Source\bsw\FreeRTOS\src/mpu_wrappers.c **** 	}
 846:Source\bsw\FreeRTOS\src/mpu_wrappers.c **** #endif
 847:Source\bsw\FreeRTOS\src/mpu_wrappers.c **** /*-----------------------------------------------------------*/
 848:Source\bsw\FreeRTOS\src/mpu_wrappers.c **** 
 849:Source\bsw\FreeRTOS\src/mpu_wrappers.c **** #if configQUEUE_REGISTRY_SIZE > 0
 850:Source\bsw\FreeRTOS\src/mpu_wrappers.c **** 	void MPU_vQueueAddToRegistry( QueueHandle_t xQueue, const char *pcName ) /* FREERTOS_SYSTEM_CALL *
 851:Source\bsw\FreeRTOS\src/mpu_wrappers.c **** 	{
 1708              		.loc 1 851 0
 1709              		.cfi_startproc
 1710              		@ args = 0, pretend = 0, frame = 0
 1711              		@ frame_needed = 0, uses_anonymous_args = 0
 1712              	.LVL275:
 1713 0000 70B5     		push	{r4, r5, r6, lr}
ARM GAS  C:\Users\Reza\AppData\Local\Temp\cckOPwM0.s 			page 46


 1714              		.cfi_def_cfa_offset 16
 1715              		.cfi_offset 4, -16
 1716              		.cfi_offset 5, -12
 1717              		.cfi_offset 6, -8
 1718              		.cfi_offset 14, -4
 1719 0002 0546     		mov	r5, r0
 1720 0004 0E46     		mov	r6, r1
 852:Source\bsw\FreeRTOS\src/mpu_wrappers.c **** 	BaseType_t xRunningPrivileged = xPortRaisePrivilege();
 1721              		.loc 1 852 0
 1722 0006 FFF7FEFF 		bl	xPortRaisePrivilege
 1723              	.LVL276:
 1724 000a 0446     		mov	r4, r0
 1725              	.LVL277:
 853:Source\bsw\FreeRTOS\src/mpu_wrappers.c **** 
 854:Source\bsw\FreeRTOS\src/mpu_wrappers.c **** 		vQueueAddToRegistry( xQueue, pcName );
 1726              		.loc 1 854 0
 1727 000c 3146     		mov	r1, r6
 1728 000e 2846     		mov	r0, r5
 1729              	.LVL278:
 1730 0010 FFF7FEFF 		bl	vQueueAddToRegistry
 1731              	.LVL279:
 855:Source\bsw\FreeRTOS\src/mpu_wrappers.c **** 
 856:Source\bsw\FreeRTOS\src/mpu_wrappers.c **** 		vPortResetPrivilege( xRunningPrivileged );
 1732              		.loc 1 856 0
 1733 0014 2046     		mov	r0, r4
 1734 0016 FFF7FEFF 		bl	vPortResetPrivilege
 1735              	.LVL280:
 1736 001a 70BD     		pop	{r4, r5, r6, pc}
 1737              		.cfi_endproc
 1738              	.LFE107:
 1739              		.size	MPU_vQueueAddToRegistry, .-MPU_vQueueAddToRegistry
 1740              		.section	.text.MPU_vQueueUnregisterQueue,"ax",%progbits
 1741              		.align	2
 1742              		.global	MPU_vQueueUnregisterQueue
 1743              		.thumb
 1744              		.thumb_func
 1745              		.type	MPU_vQueueUnregisterQueue, %function
 1746              	MPU_vQueueUnregisterQueue:
 1747              	.LFB108:
 857:Source\bsw\FreeRTOS\src/mpu_wrappers.c **** 	}
 858:Source\bsw\FreeRTOS\src/mpu_wrappers.c **** #endif
 859:Source\bsw\FreeRTOS\src/mpu_wrappers.c **** /*-----------------------------------------------------------*/
 860:Source\bsw\FreeRTOS\src/mpu_wrappers.c **** 
 861:Source\bsw\FreeRTOS\src/mpu_wrappers.c **** #if configQUEUE_REGISTRY_SIZE > 0
 862:Source\bsw\FreeRTOS\src/mpu_wrappers.c **** 	void MPU_vQueueUnregisterQueue( QueueHandle_t xQueue ) /* FREERTOS_SYSTEM_CALL */
 863:Source\bsw\FreeRTOS\src/mpu_wrappers.c **** 	{
 1748              		.loc 1 863 0
 1749              		.cfi_startproc
 1750              		@ args = 0, pretend = 0, frame = 0
 1751              		@ frame_needed = 0, uses_anonymous_args = 0
 1752              	.LVL281:
 1753 0000 38B5     		push	{r3, r4, r5, lr}
 1754              		.cfi_def_cfa_offset 16
 1755              		.cfi_offset 3, -16
 1756              		.cfi_offset 4, -12
 1757              		.cfi_offset 5, -8
 1758              		.cfi_offset 14, -4
ARM GAS  C:\Users\Reza\AppData\Local\Temp\cckOPwM0.s 			page 47


 1759 0002 0546     		mov	r5, r0
 864:Source\bsw\FreeRTOS\src/mpu_wrappers.c **** 	BaseType_t xRunningPrivileged = xPortRaisePrivilege();
 1760              		.loc 1 864 0
 1761 0004 FFF7FEFF 		bl	xPortRaisePrivilege
 1762              	.LVL282:
 1763 0008 0446     		mov	r4, r0
 1764              	.LVL283:
 865:Source\bsw\FreeRTOS\src/mpu_wrappers.c **** 
 866:Source\bsw\FreeRTOS\src/mpu_wrappers.c **** 		vQueueUnregisterQueue( xQueue );
 1765              		.loc 1 866 0
 1766 000a 2846     		mov	r0, r5
 1767              	.LVL284:
 1768 000c FFF7FEFF 		bl	vQueueUnregisterQueue
 1769              	.LVL285:
 867:Source\bsw\FreeRTOS\src/mpu_wrappers.c **** 
 868:Source\bsw\FreeRTOS\src/mpu_wrappers.c **** 		vPortResetPrivilege( xRunningPrivileged );
 1770              		.loc 1 868 0
 1771 0010 2046     		mov	r0, r4
 1772 0012 FFF7FEFF 		bl	vPortResetPrivilege
 1773              	.LVL286:
 1774 0016 38BD     		pop	{r3, r4, r5, pc}
 1775              		.cfi_endproc
 1776              	.LFE108:
 1777              		.size	MPU_vQueueUnregisterQueue, .-MPU_vQueueUnregisterQueue
 1778              		.section	.text.MPU_pcQueueGetName,"ax",%progbits
 1779              		.align	2
 1780              		.global	MPU_pcQueueGetName
 1781              		.thumb
 1782              		.thumb_func
 1783              		.type	MPU_pcQueueGetName, %function
 1784              	MPU_pcQueueGetName:
 1785              	.LFB109:
 869:Source\bsw\FreeRTOS\src/mpu_wrappers.c **** 	}
 870:Source\bsw\FreeRTOS\src/mpu_wrappers.c **** #endif
 871:Source\bsw\FreeRTOS\src/mpu_wrappers.c **** /*-----------------------------------------------------------*/
 872:Source\bsw\FreeRTOS\src/mpu_wrappers.c **** 
 873:Source\bsw\FreeRTOS\src/mpu_wrappers.c **** #if configQUEUE_REGISTRY_SIZE > 0
 874:Source\bsw\FreeRTOS\src/mpu_wrappers.c **** 	const char *MPU_pcQueueGetName( QueueHandle_t xQueue ) /* FREERTOS_SYSTEM_CALL */
 875:Source\bsw\FreeRTOS\src/mpu_wrappers.c **** 	{
 1786              		.loc 1 875 0
 1787              		.cfi_startproc
 1788              		@ args = 0, pretend = 0, frame = 0
 1789              		@ frame_needed = 0, uses_anonymous_args = 0
 1790              	.LVL287:
 1791 0000 38B5     		push	{r3, r4, r5, lr}
 1792              		.cfi_def_cfa_offset 16
 1793              		.cfi_offset 3, -16
 1794              		.cfi_offset 4, -12
 1795              		.cfi_offset 5, -8
 1796              		.cfi_offset 14, -4
 1797 0002 0446     		mov	r4, r0
 876:Source\bsw\FreeRTOS\src/mpu_wrappers.c **** 	BaseType_t xRunningPrivileged = xPortRaisePrivilege();
 1798              		.loc 1 876 0
 1799 0004 FFF7FEFF 		bl	xPortRaisePrivilege
 1800              	.LVL288:
 1801 0008 0546     		mov	r5, r0
 1802              	.LVL289:
ARM GAS  C:\Users\Reza\AppData\Local\Temp\cckOPwM0.s 			page 48


 877:Source\bsw\FreeRTOS\src/mpu_wrappers.c **** 	const char *pcReturn;
 878:Source\bsw\FreeRTOS\src/mpu_wrappers.c **** 
 879:Source\bsw\FreeRTOS\src/mpu_wrappers.c **** 		pcReturn = pcQueueGetName( xQueue );
 1803              		.loc 1 879 0
 1804 000a 2046     		mov	r0, r4
 1805              	.LVL290:
 1806 000c FFF7FEFF 		bl	pcQueueGetName
 1807              	.LVL291:
 1808 0010 0446     		mov	r4, r0
 1809              	.LVL292:
 880:Source\bsw\FreeRTOS\src/mpu_wrappers.c **** 
 881:Source\bsw\FreeRTOS\src/mpu_wrappers.c **** 		vPortResetPrivilege( xRunningPrivileged );
 1810              		.loc 1 881 0
 1811 0012 2846     		mov	r0, r5
 1812              	.LVL293:
 1813 0014 FFF7FEFF 		bl	vPortResetPrivilege
 1814              	.LVL294:
 882:Source\bsw\FreeRTOS\src/mpu_wrappers.c **** 		return pcReturn;
 883:Source\bsw\FreeRTOS\src/mpu_wrappers.c **** 	}
 1815              		.loc 1 883 0
 1816 0018 2046     		mov	r0, r4
 1817 001a 38BD     		pop	{r3, r4, r5, pc}
 1818              		.cfi_endproc
 1819              	.LFE109:
 1820              		.size	MPU_pcQueueGetName, .-MPU_pcQueueGetName
 1821              		.section	.text.MPU_vQueueDelete,"ax",%progbits
 1822              		.align	2
 1823              		.global	MPU_vQueueDelete
 1824              		.thumb
 1825              		.thumb_func
 1826              		.type	MPU_vQueueDelete, %function
 1827              	MPU_vQueueDelete:
 1828              	.LFB110:
 884:Source\bsw\FreeRTOS\src/mpu_wrappers.c **** #endif
 885:Source\bsw\FreeRTOS\src/mpu_wrappers.c **** /*-----------------------------------------------------------*/
 886:Source\bsw\FreeRTOS\src/mpu_wrappers.c **** 
 887:Source\bsw\FreeRTOS\src/mpu_wrappers.c **** void MPU_vQueueDelete( QueueHandle_t xQueue ) /* FREERTOS_SYSTEM_CALL */
 888:Source\bsw\FreeRTOS\src/mpu_wrappers.c **** {
 1829              		.loc 1 888 0
 1830              		.cfi_startproc
 1831              		@ args = 0, pretend = 0, frame = 0
 1832              		@ frame_needed = 0, uses_anonymous_args = 0
 1833              	.LVL295:
 1834 0000 38B5     		push	{r3, r4, r5, lr}
 1835              		.cfi_def_cfa_offset 16
 1836              		.cfi_offset 3, -16
 1837              		.cfi_offset 4, -12
 1838              		.cfi_offset 5, -8
 1839              		.cfi_offset 14, -4
 1840 0002 0546     		mov	r5, r0
 889:Source\bsw\FreeRTOS\src/mpu_wrappers.c **** BaseType_t xRunningPrivileged = xPortRaisePrivilege();
 1841              		.loc 1 889 0
 1842 0004 FFF7FEFF 		bl	xPortRaisePrivilege
 1843              	.LVL296:
 1844 0008 0446     		mov	r4, r0
 1845              	.LVL297:
 890:Source\bsw\FreeRTOS\src/mpu_wrappers.c **** 
ARM GAS  C:\Users\Reza\AppData\Local\Temp\cckOPwM0.s 			page 49


 891:Source\bsw\FreeRTOS\src/mpu_wrappers.c **** 	vQueueDelete( xQueue );
 1846              		.loc 1 891 0
 1847 000a 2846     		mov	r0, r5
 1848              	.LVL298:
 1849 000c FFF7FEFF 		bl	vQueueDelete
 1850              	.LVL299:
 892:Source\bsw\FreeRTOS\src/mpu_wrappers.c **** 
 893:Source\bsw\FreeRTOS\src/mpu_wrappers.c **** 	vPortResetPrivilege( xRunningPrivileged );
 1851              		.loc 1 893 0
 1852 0010 2046     		mov	r0, r4
 1853 0012 FFF7FEFF 		bl	vPortResetPrivilege
 1854              	.LVL300:
 1855 0016 38BD     		pop	{r3, r4, r5, pc}
 1856              		.cfi_endproc
 1857              	.LFE110:
 1858              		.size	MPU_vQueueDelete, .-MPU_vQueueDelete
 1859              		.section	.text.MPU_pvPortMalloc,"ax",%progbits
 1860              		.align	2
 1861              		.global	MPU_pvPortMalloc
 1862              		.thumb
 1863              		.thumb_func
 1864              		.type	MPU_pvPortMalloc, %function
 1865              	MPU_pvPortMalloc:
 1866              	.LFB111:
 894:Source\bsw\FreeRTOS\src/mpu_wrappers.c **** }
 895:Source\bsw\FreeRTOS\src/mpu_wrappers.c **** /*-----------------------------------------------------------*/
 896:Source\bsw\FreeRTOS\src/mpu_wrappers.c **** 
 897:Source\bsw\FreeRTOS\src/mpu_wrappers.c **** #if( configSUPPORT_DYNAMIC_ALLOCATION == 1 )
 898:Source\bsw\FreeRTOS\src/mpu_wrappers.c **** 	void *MPU_pvPortMalloc( size_t xSize ) /* FREERTOS_SYSTEM_CALL */
 899:Source\bsw\FreeRTOS\src/mpu_wrappers.c **** 	{
 1867              		.loc 1 899 0
 1868              		.cfi_startproc
 1869              		@ args = 0, pretend = 0, frame = 0
 1870              		@ frame_needed = 0, uses_anonymous_args = 0
 1871              	.LVL301:
 1872 0000 38B5     		push	{r3, r4, r5, lr}
 1873              		.cfi_def_cfa_offset 16
 1874              		.cfi_offset 3, -16
 1875              		.cfi_offset 4, -12
 1876              		.cfi_offset 5, -8
 1877              		.cfi_offset 14, -4
 1878 0002 0446     		mov	r4, r0
 900:Source\bsw\FreeRTOS\src/mpu_wrappers.c **** 	void *pvReturn;
 901:Source\bsw\FreeRTOS\src/mpu_wrappers.c **** 	BaseType_t xRunningPrivileged = xPortRaisePrivilege();
 1879              		.loc 1 901 0
 1880 0004 FFF7FEFF 		bl	xPortRaisePrivilege
 1881              	.LVL302:
 1882 0008 0546     		mov	r5, r0
 1883              	.LVL303:
 902:Source\bsw\FreeRTOS\src/mpu_wrappers.c **** 
 903:Source\bsw\FreeRTOS\src/mpu_wrappers.c **** 		pvReturn = pvPortMalloc( xSize );
 1884              		.loc 1 903 0
 1885 000a 2046     		mov	r0, r4
 1886              	.LVL304:
 1887 000c FFF7FEFF 		bl	pvPortMalloc
 1888              	.LVL305:
 1889 0010 0446     		mov	r4, r0
ARM GAS  C:\Users\Reza\AppData\Local\Temp\cckOPwM0.s 			page 50


 1890              	.LVL306:
 904:Source\bsw\FreeRTOS\src/mpu_wrappers.c **** 
 905:Source\bsw\FreeRTOS\src/mpu_wrappers.c **** 		vPortResetPrivilege( xRunningPrivileged );
 1891              		.loc 1 905 0
 1892 0012 2846     		mov	r0, r5
 1893              	.LVL307:
 1894 0014 FFF7FEFF 		bl	vPortResetPrivilege
 1895              	.LVL308:
 906:Source\bsw\FreeRTOS\src/mpu_wrappers.c **** 
 907:Source\bsw\FreeRTOS\src/mpu_wrappers.c **** 		return pvReturn;
 908:Source\bsw\FreeRTOS\src/mpu_wrappers.c **** 	}
 1896              		.loc 1 908 0
 1897 0018 2046     		mov	r0, r4
 1898 001a 38BD     		pop	{r3, r4, r5, pc}
 1899              		.cfi_endproc
 1900              	.LFE111:
 1901              		.size	MPU_pvPortMalloc, .-MPU_pvPortMalloc
 1902              		.section	.text.MPU_vPortFree,"ax",%progbits
 1903              		.align	2
 1904              		.global	MPU_vPortFree
 1905              		.thumb
 1906              		.thumb_func
 1907              		.type	MPU_vPortFree, %function
 1908              	MPU_vPortFree:
 1909              	.LFB112:
 909:Source\bsw\FreeRTOS\src/mpu_wrappers.c **** #endif /* configSUPPORT_DYNAMIC_ALLOCATION */
 910:Source\bsw\FreeRTOS\src/mpu_wrappers.c **** /*-----------------------------------------------------------*/
 911:Source\bsw\FreeRTOS\src/mpu_wrappers.c **** 
 912:Source\bsw\FreeRTOS\src/mpu_wrappers.c **** #if( configSUPPORT_DYNAMIC_ALLOCATION == 1 )
 913:Source\bsw\FreeRTOS\src/mpu_wrappers.c **** 	void MPU_vPortFree( void *pv ) /* FREERTOS_SYSTEM_CALL */
 914:Source\bsw\FreeRTOS\src/mpu_wrappers.c **** 	{
 1910              		.loc 1 914 0
 1911              		.cfi_startproc
 1912              		@ args = 0, pretend = 0, frame = 0
 1913              		@ frame_needed = 0, uses_anonymous_args = 0
 1914              	.LVL309:
 1915 0000 38B5     		push	{r3, r4, r5, lr}
 1916              		.cfi_def_cfa_offset 16
 1917              		.cfi_offset 3, -16
 1918              		.cfi_offset 4, -12
 1919              		.cfi_offset 5, -8
 1920              		.cfi_offset 14, -4
 1921 0002 0546     		mov	r5, r0
 915:Source\bsw\FreeRTOS\src/mpu_wrappers.c **** 	BaseType_t xRunningPrivileged = xPortRaisePrivilege();
 1922              		.loc 1 915 0
 1923 0004 FFF7FEFF 		bl	xPortRaisePrivilege
 1924              	.LVL310:
 1925 0008 0446     		mov	r4, r0
 1926              	.LVL311:
 916:Source\bsw\FreeRTOS\src/mpu_wrappers.c **** 
 917:Source\bsw\FreeRTOS\src/mpu_wrappers.c **** 		vPortFree( pv );
 1927              		.loc 1 917 0
 1928 000a 2846     		mov	r0, r5
 1929              	.LVL312:
 1930 000c FFF7FEFF 		bl	vPortFree
 1931              	.LVL313:
 918:Source\bsw\FreeRTOS\src/mpu_wrappers.c **** 
ARM GAS  C:\Users\Reza\AppData\Local\Temp\cckOPwM0.s 			page 51


 919:Source\bsw\FreeRTOS\src/mpu_wrappers.c **** 		vPortResetPrivilege( xRunningPrivileged );
 1932              		.loc 1 919 0
 1933 0010 2046     		mov	r0, r4
 1934 0012 FFF7FEFF 		bl	vPortResetPrivilege
 1935              	.LVL314:
 1936 0016 38BD     		pop	{r3, r4, r5, pc}
 1937              		.cfi_endproc
 1938              	.LFE112:
 1939              		.size	MPU_vPortFree, .-MPU_vPortFree
 1940              		.section	.text.MPU_vPortInitialiseBlocks,"ax",%progbits
 1941              		.align	2
 1942              		.global	MPU_vPortInitialiseBlocks
 1943              		.thumb
 1944              		.thumb_func
 1945              		.type	MPU_vPortInitialiseBlocks, %function
 1946              	MPU_vPortInitialiseBlocks:
 1947              	.LFB113:
 920:Source\bsw\FreeRTOS\src/mpu_wrappers.c **** 	}
 921:Source\bsw\FreeRTOS\src/mpu_wrappers.c **** #endif /* configSUPPORT_DYNAMIC_ALLOCATION */
 922:Source\bsw\FreeRTOS\src/mpu_wrappers.c **** /*-----------------------------------------------------------*/
 923:Source\bsw\FreeRTOS\src/mpu_wrappers.c **** 
 924:Source\bsw\FreeRTOS\src/mpu_wrappers.c **** #if( configSUPPORT_DYNAMIC_ALLOCATION == 1 )
 925:Source\bsw\FreeRTOS\src/mpu_wrappers.c **** 	void MPU_vPortInitialiseBlocks( void ) /* FREERTOS_SYSTEM_CALL */
 926:Source\bsw\FreeRTOS\src/mpu_wrappers.c **** 	{
 1948              		.loc 1 926 0
 1949              		.cfi_startproc
 1950              		@ args = 0, pretend = 0, frame = 0
 1951              		@ frame_needed = 0, uses_anonymous_args = 0
 1952 0000 10B5     		push	{r4, lr}
 1953              		.cfi_def_cfa_offset 8
 1954              		.cfi_offset 4, -8
 1955              		.cfi_offset 14, -4
 927:Source\bsw\FreeRTOS\src/mpu_wrappers.c **** 	BaseType_t xRunningPrivileged = xPortRaisePrivilege();
 1956              		.loc 1 927 0
 1957 0002 FFF7FEFF 		bl	xPortRaisePrivilege
 1958              	.LVL315:
 1959 0006 0446     		mov	r4, r0
 1960              	.LVL316:
 928:Source\bsw\FreeRTOS\src/mpu_wrappers.c **** 
 929:Source\bsw\FreeRTOS\src/mpu_wrappers.c **** 		vPortInitialiseBlocks();
 1961              		.loc 1 929 0
 1962 0008 FFF7FEFF 		bl	vPortInitialiseBlocks
 1963              	.LVL317:
 930:Source\bsw\FreeRTOS\src/mpu_wrappers.c **** 
 931:Source\bsw\FreeRTOS\src/mpu_wrappers.c **** 		vPortResetPrivilege( xRunningPrivileged );
 1964              		.loc 1 931 0
 1965 000c 2046     		mov	r0, r4
 1966 000e FFF7FEFF 		bl	vPortResetPrivilege
 1967              	.LVL318:
 1968 0012 10BD     		pop	{r4, pc}
 1969              		.cfi_endproc
 1970              	.LFE113:
 1971              		.size	MPU_vPortInitialiseBlocks, .-MPU_vPortInitialiseBlocks
 1972              		.section	.text.MPU_xPortGetFreeHeapSize,"ax",%progbits
 1973              		.align	2
 1974              		.global	MPU_xPortGetFreeHeapSize
 1975              		.thumb
ARM GAS  C:\Users\Reza\AppData\Local\Temp\cckOPwM0.s 			page 52


 1976              		.thumb_func
 1977              		.type	MPU_xPortGetFreeHeapSize, %function
 1978              	MPU_xPortGetFreeHeapSize:
 1979              	.LFB114:
 932:Source\bsw\FreeRTOS\src/mpu_wrappers.c **** 	}
 933:Source\bsw\FreeRTOS\src/mpu_wrappers.c **** #endif /* configSUPPORT_DYNAMIC_ALLOCATION */
 934:Source\bsw\FreeRTOS\src/mpu_wrappers.c **** /*-----------------------------------------------------------*/
 935:Source\bsw\FreeRTOS\src/mpu_wrappers.c **** 
 936:Source\bsw\FreeRTOS\src/mpu_wrappers.c **** #if( configSUPPORT_DYNAMIC_ALLOCATION == 1 )
 937:Source\bsw\FreeRTOS\src/mpu_wrappers.c **** 	size_t MPU_xPortGetFreeHeapSize( void ) /* FREERTOS_SYSTEM_CALL */
 938:Source\bsw\FreeRTOS\src/mpu_wrappers.c **** 	{
 1980              		.loc 1 938 0
 1981              		.cfi_startproc
 1982              		@ args = 0, pretend = 0, frame = 0
 1983              		@ frame_needed = 0, uses_anonymous_args = 0
 1984 0000 38B5     		push	{r3, r4, r5, lr}
 1985              		.cfi_def_cfa_offset 16
 1986              		.cfi_offset 3, -16
 1987              		.cfi_offset 4, -12
 1988              		.cfi_offset 5, -8
 1989              		.cfi_offset 14, -4
 939:Source\bsw\FreeRTOS\src/mpu_wrappers.c **** 	size_t xReturn;
 940:Source\bsw\FreeRTOS\src/mpu_wrappers.c **** 	BaseType_t xRunningPrivileged = xPortRaisePrivilege();
 1990              		.loc 1 940 0
 1991 0002 FFF7FEFF 		bl	xPortRaisePrivilege
 1992              	.LVL319:
 1993 0006 0546     		mov	r5, r0
 1994              	.LVL320:
 941:Source\bsw\FreeRTOS\src/mpu_wrappers.c **** 
 942:Source\bsw\FreeRTOS\src/mpu_wrappers.c **** 		xReturn = xPortGetFreeHeapSize();
 1995              		.loc 1 942 0
 1996 0008 FFF7FEFF 		bl	xPortGetFreeHeapSize
 1997              	.LVL321:
 1998 000c 0446     		mov	r4, r0
 1999              	.LVL322:
 943:Source\bsw\FreeRTOS\src/mpu_wrappers.c **** 
 944:Source\bsw\FreeRTOS\src/mpu_wrappers.c **** 		vPortResetPrivilege( xRunningPrivileged );
 2000              		.loc 1 944 0
 2001 000e 2846     		mov	r0, r5
 2002              	.LVL323:
 2003 0010 FFF7FEFF 		bl	vPortResetPrivilege
 2004              	.LVL324:
 945:Source\bsw\FreeRTOS\src/mpu_wrappers.c **** 
 946:Source\bsw\FreeRTOS\src/mpu_wrappers.c **** 		return xReturn;
 947:Source\bsw\FreeRTOS\src/mpu_wrappers.c **** 	}
 2005              		.loc 1 947 0
 2006 0014 2046     		mov	r0, r4
 2007 0016 38BD     		pop	{r3, r4, r5, pc}
 2008              		.cfi_endproc
 2009              	.LFE114:
 2010              		.size	MPU_xPortGetFreeHeapSize, .-MPU_xPortGetFreeHeapSize
 2011              		.section	.text.MPU_xEventGroupCreate,"ax",%progbits
 2012              		.align	2
 2013              		.global	MPU_xEventGroupCreate
 2014              		.thumb
 2015              		.thumb_func
 2016              		.type	MPU_xEventGroupCreate, %function
ARM GAS  C:\Users\Reza\AppData\Local\Temp\cckOPwM0.s 			page 53


 2017              	MPU_xEventGroupCreate:
 2018              	.LFB115:
 948:Source\bsw\FreeRTOS\src/mpu_wrappers.c **** #endif /* configSUPPORT_DYNAMIC_ALLOCATION */
 949:Source\bsw\FreeRTOS\src/mpu_wrappers.c **** /*-----------------------------------------------------------*/
 950:Source\bsw\FreeRTOS\src/mpu_wrappers.c **** 
 951:Source\bsw\FreeRTOS\src/mpu_wrappers.c **** #if( ( configSUPPORT_DYNAMIC_ALLOCATION == 1 ) && ( configUSE_TIMERS == 1 ) )
 952:Source\bsw\FreeRTOS\src/mpu_wrappers.c **** 	TimerHandle_t MPU_xTimerCreate( const char * const pcTimerName, const TickType_t xTimerPeriodInTic
 953:Source\bsw\FreeRTOS\src/mpu_wrappers.c **** 	{
 954:Source\bsw\FreeRTOS\src/mpu_wrappers.c **** 	TimerHandle_t xReturn;
 955:Source\bsw\FreeRTOS\src/mpu_wrappers.c **** 	BaseType_t xRunningPrivileged = xPortRaisePrivilege();
 956:Source\bsw\FreeRTOS\src/mpu_wrappers.c **** 
 957:Source\bsw\FreeRTOS\src/mpu_wrappers.c **** 		xReturn = xTimerCreate( pcTimerName, xTimerPeriodInTicks, uxAutoReload, pvTimerID, pxCallbackFunc
 958:Source\bsw\FreeRTOS\src/mpu_wrappers.c **** 		vPortResetPrivilege( xRunningPrivileged );
 959:Source\bsw\FreeRTOS\src/mpu_wrappers.c **** 
 960:Source\bsw\FreeRTOS\src/mpu_wrappers.c **** 		return xReturn;
 961:Source\bsw\FreeRTOS\src/mpu_wrappers.c **** 	}
 962:Source\bsw\FreeRTOS\src/mpu_wrappers.c **** #endif
 963:Source\bsw\FreeRTOS\src/mpu_wrappers.c **** /*-----------------------------------------------------------*/
 964:Source\bsw\FreeRTOS\src/mpu_wrappers.c **** 
 965:Source\bsw\FreeRTOS\src/mpu_wrappers.c **** #if( ( configSUPPORT_STATIC_ALLOCATION == 1 ) && ( configUSE_TIMERS == 1 ) )
 966:Source\bsw\FreeRTOS\src/mpu_wrappers.c **** 	TimerHandle_t MPU_xTimerCreateStatic( const char * const pcTimerName, const TickType_t xTimerPerio
 967:Source\bsw\FreeRTOS\src/mpu_wrappers.c **** 	{
 968:Source\bsw\FreeRTOS\src/mpu_wrappers.c **** 	TimerHandle_t xReturn;
 969:Source\bsw\FreeRTOS\src/mpu_wrappers.c **** 	BaseType_t xRunningPrivileged = xPortRaisePrivilege();
 970:Source\bsw\FreeRTOS\src/mpu_wrappers.c **** 
 971:Source\bsw\FreeRTOS\src/mpu_wrappers.c **** 		xReturn = xTimerCreateStatic( pcTimerName, xTimerPeriodInTicks, uxAutoReload, pvTimerID, pxCallba
 972:Source\bsw\FreeRTOS\src/mpu_wrappers.c **** 		vPortResetPrivilege( xRunningPrivileged );
 973:Source\bsw\FreeRTOS\src/mpu_wrappers.c **** 
 974:Source\bsw\FreeRTOS\src/mpu_wrappers.c **** 		return xReturn;
 975:Source\bsw\FreeRTOS\src/mpu_wrappers.c **** 	}
 976:Source\bsw\FreeRTOS\src/mpu_wrappers.c **** #endif
 977:Source\bsw\FreeRTOS\src/mpu_wrappers.c **** /*-----------------------------------------------------------*/
 978:Source\bsw\FreeRTOS\src/mpu_wrappers.c **** 
 979:Source\bsw\FreeRTOS\src/mpu_wrappers.c **** #if( configUSE_TIMERS == 1 )
 980:Source\bsw\FreeRTOS\src/mpu_wrappers.c **** 	void *MPU_pvTimerGetTimerID( const TimerHandle_t xTimer ) /* FREERTOS_SYSTEM_CALL */
 981:Source\bsw\FreeRTOS\src/mpu_wrappers.c **** 	{
 982:Source\bsw\FreeRTOS\src/mpu_wrappers.c **** 	void * pvReturn;
 983:Source\bsw\FreeRTOS\src/mpu_wrappers.c **** 	BaseType_t xRunningPrivileged = xPortRaisePrivilege();
 984:Source\bsw\FreeRTOS\src/mpu_wrappers.c **** 
 985:Source\bsw\FreeRTOS\src/mpu_wrappers.c **** 		pvReturn = pvTimerGetTimerID( xTimer );
 986:Source\bsw\FreeRTOS\src/mpu_wrappers.c **** 		vPortResetPrivilege( xRunningPrivileged );
 987:Source\bsw\FreeRTOS\src/mpu_wrappers.c **** 
 988:Source\bsw\FreeRTOS\src/mpu_wrappers.c **** 		return pvReturn;
 989:Source\bsw\FreeRTOS\src/mpu_wrappers.c **** 	}
 990:Source\bsw\FreeRTOS\src/mpu_wrappers.c **** #endif
 991:Source\bsw\FreeRTOS\src/mpu_wrappers.c **** /*-----------------------------------------------------------*/
 992:Source\bsw\FreeRTOS\src/mpu_wrappers.c **** 
 993:Source\bsw\FreeRTOS\src/mpu_wrappers.c **** #if( configUSE_TIMERS == 1 )
 994:Source\bsw\FreeRTOS\src/mpu_wrappers.c **** 	void MPU_vTimerSetTimerID( TimerHandle_t xTimer, void *pvNewID ) /* FREERTOS_SYSTEM_CALL */
 995:Source\bsw\FreeRTOS\src/mpu_wrappers.c **** 	{
 996:Source\bsw\FreeRTOS\src/mpu_wrappers.c **** 	BaseType_t xRunningPrivileged = xPortRaisePrivilege();
 997:Source\bsw\FreeRTOS\src/mpu_wrappers.c **** 
 998:Source\bsw\FreeRTOS\src/mpu_wrappers.c **** 		vTimerSetTimerID( xTimer, pvNewID );
 999:Source\bsw\FreeRTOS\src/mpu_wrappers.c **** 		vPortResetPrivilege( xRunningPrivileged );
1000:Source\bsw\FreeRTOS\src/mpu_wrappers.c **** 	}
1001:Source\bsw\FreeRTOS\src/mpu_wrappers.c **** #endif
1002:Source\bsw\FreeRTOS\src/mpu_wrappers.c **** /*-----------------------------------------------------------*/
ARM GAS  C:\Users\Reza\AppData\Local\Temp\cckOPwM0.s 			page 54


1003:Source\bsw\FreeRTOS\src/mpu_wrappers.c **** 
1004:Source\bsw\FreeRTOS\src/mpu_wrappers.c **** #if( configUSE_TIMERS == 1 )
1005:Source\bsw\FreeRTOS\src/mpu_wrappers.c **** 	BaseType_t MPU_xTimerIsTimerActive( TimerHandle_t xTimer ) /* FREERTOS_SYSTEM_CALL */
1006:Source\bsw\FreeRTOS\src/mpu_wrappers.c **** 	{
1007:Source\bsw\FreeRTOS\src/mpu_wrappers.c **** 	BaseType_t xReturn;
1008:Source\bsw\FreeRTOS\src/mpu_wrappers.c **** 	BaseType_t xRunningPrivileged = xPortRaisePrivilege();
1009:Source\bsw\FreeRTOS\src/mpu_wrappers.c **** 
1010:Source\bsw\FreeRTOS\src/mpu_wrappers.c **** 		xReturn = xTimerIsTimerActive( xTimer );
1011:Source\bsw\FreeRTOS\src/mpu_wrappers.c **** 		vPortResetPrivilege( xRunningPrivileged );
1012:Source\bsw\FreeRTOS\src/mpu_wrappers.c **** 
1013:Source\bsw\FreeRTOS\src/mpu_wrappers.c **** 		return xReturn;
1014:Source\bsw\FreeRTOS\src/mpu_wrappers.c **** 	}
1015:Source\bsw\FreeRTOS\src/mpu_wrappers.c **** #endif
1016:Source\bsw\FreeRTOS\src/mpu_wrappers.c **** /*-----------------------------------------------------------*/
1017:Source\bsw\FreeRTOS\src/mpu_wrappers.c **** 
1018:Source\bsw\FreeRTOS\src/mpu_wrappers.c **** #if( configUSE_TIMERS == 1 )
1019:Source\bsw\FreeRTOS\src/mpu_wrappers.c **** 	TaskHandle_t MPU_xTimerGetTimerDaemonTaskHandle( void ) /* FREERTOS_SYSTEM_CALL */
1020:Source\bsw\FreeRTOS\src/mpu_wrappers.c **** 	{
1021:Source\bsw\FreeRTOS\src/mpu_wrappers.c **** 	TaskHandle_t xReturn;
1022:Source\bsw\FreeRTOS\src/mpu_wrappers.c **** 	BaseType_t xRunningPrivileged = xPortRaisePrivilege();
1023:Source\bsw\FreeRTOS\src/mpu_wrappers.c **** 
1024:Source\bsw\FreeRTOS\src/mpu_wrappers.c **** 		xReturn = xTimerGetTimerDaemonTaskHandle();
1025:Source\bsw\FreeRTOS\src/mpu_wrappers.c **** 		vPortResetPrivilege( xRunningPrivileged );
1026:Source\bsw\FreeRTOS\src/mpu_wrappers.c **** 
1027:Source\bsw\FreeRTOS\src/mpu_wrappers.c **** 		return xReturn;
1028:Source\bsw\FreeRTOS\src/mpu_wrappers.c **** 	}
1029:Source\bsw\FreeRTOS\src/mpu_wrappers.c **** #endif
1030:Source\bsw\FreeRTOS\src/mpu_wrappers.c **** /*-----------------------------------------------------------*/
1031:Source\bsw\FreeRTOS\src/mpu_wrappers.c **** 
1032:Source\bsw\FreeRTOS\src/mpu_wrappers.c **** #if( ( INCLUDE_xTimerPendFunctionCall == 1 ) && ( configUSE_TIMERS == 1 ) )
1033:Source\bsw\FreeRTOS\src/mpu_wrappers.c **** 	BaseType_t MPU_xTimerPendFunctionCall( PendedFunction_t xFunctionToPend, void *pvParameter1, uint3
1034:Source\bsw\FreeRTOS\src/mpu_wrappers.c **** 	{
1035:Source\bsw\FreeRTOS\src/mpu_wrappers.c **** 	BaseType_t xReturn;
1036:Source\bsw\FreeRTOS\src/mpu_wrappers.c **** 	BaseType_t xRunningPrivileged = xPortRaisePrivilege();
1037:Source\bsw\FreeRTOS\src/mpu_wrappers.c **** 
1038:Source\bsw\FreeRTOS\src/mpu_wrappers.c **** 		xReturn = xTimerPendFunctionCall( xFunctionToPend, pvParameter1, ulParameter2, xTicksToWait );
1039:Source\bsw\FreeRTOS\src/mpu_wrappers.c **** 		vPortResetPrivilege( xRunningPrivileged );
1040:Source\bsw\FreeRTOS\src/mpu_wrappers.c **** 
1041:Source\bsw\FreeRTOS\src/mpu_wrappers.c **** 		return xReturn;
1042:Source\bsw\FreeRTOS\src/mpu_wrappers.c **** 	}
1043:Source\bsw\FreeRTOS\src/mpu_wrappers.c **** #endif
1044:Source\bsw\FreeRTOS\src/mpu_wrappers.c **** /*-----------------------------------------------------------*/
1045:Source\bsw\FreeRTOS\src/mpu_wrappers.c **** 
1046:Source\bsw\FreeRTOS\src/mpu_wrappers.c **** #if( configUSE_TIMERS == 1 )
1047:Source\bsw\FreeRTOS\src/mpu_wrappers.c **** 	void MPU_vTimerSetReloadMode( TimerHandle_t xTimer, const UBaseType_t uxAutoReload ) /* FREERTOS_S
1048:Source\bsw\FreeRTOS\src/mpu_wrappers.c **** 	{
1049:Source\bsw\FreeRTOS\src/mpu_wrappers.c **** 	BaseType_t xRunningPrivileged = xPortRaisePrivilege();
1050:Source\bsw\FreeRTOS\src/mpu_wrappers.c **** 
1051:Source\bsw\FreeRTOS\src/mpu_wrappers.c **** 		vTimerSetReloadMode( xTimer, uxAutoReload );
1052:Source\bsw\FreeRTOS\src/mpu_wrappers.c **** 		vPortResetPrivilege( xRunningPrivileged );
1053:Source\bsw\FreeRTOS\src/mpu_wrappers.c **** 	}
1054:Source\bsw\FreeRTOS\src/mpu_wrappers.c **** #endif
1055:Source\bsw\FreeRTOS\src/mpu_wrappers.c **** /*-----------------------------------------------------------*/
1056:Source\bsw\FreeRTOS\src/mpu_wrappers.c **** 
1057:Source\bsw\FreeRTOS\src/mpu_wrappers.c **** #if( configUSE_TIMERS == 1 )
1058:Source\bsw\FreeRTOS\src/mpu_wrappers.c **** 	UBaseType_t MPU_uxTimerGetReloadMode( TimerHandle_t xTimer )
1059:Source\bsw\FreeRTOS\src/mpu_wrappers.c **** 	{
ARM GAS  C:\Users\Reza\AppData\Local\Temp\cckOPwM0.s 			page 55


1060:Source\bsw\FreeRTOS\src/mpu_wrappers.c **** 	BaseType_t xRunningPrivileged = xPortRaisePrivilege();
1061:Source\bsw\FreeRTOS\src/mpu_wrappers.c **** 	UBaseType_t uxReturn;
1062:Source\bsw\FreeRTOS\src/mpu_wrappers.c **** 
1063:Source\bsw\FreeRTOS\src/mpu_wrappers.c **** 		uxReturn = uxTimerGetReloadMode( xTimer );
1064:Source\bsw\FreeRTOS\src/mpu_wrappers.c **** 		vPortResetPrivilege( xRunningPrivileged );
1065:Source\bsw\FreeRTOS\src/mpu_wrappers.c **** 		return uxReturn;
1066:Source\bsw\FreeRTOS\src/mpu_wrappers.c **** 	}
1067:Source\bsw\FreeRTOS\src/mpu_wrappers.c **** #endif
1068:Source\bsw\FreeRTOS\src/mpu_wrappers.c **** /*-----------------------------------------------------------*/
1069:Source\bsw\FreeRTOS\src/mpu_wrappers.c **** 
1070:Source\bsw\FreeRTOS\src/mpu_wrappers.c **** #if( configUSE_TIMERS == 1 )
1071:Source\bsw\FreeRTOS\src/mpu_wrappers.c **** 	const char * MPU_pcTimerGetName( TimerHandle_t xTimer ) /* FREERTOS_SYSTEM_CALL */
1072:Source\bsw\FreeRTOS\src/mpu_wrappers.c **** 	{
1073:Source\bsw\FreeRTOS\src/mpu_wrappers.c **** 	const char * pcReturn;
1074:Source\bsw\FreeRTOS\src/mpu_wrappers.c **** 	BaseType_t xRunningPrivileged = xPortRaisePrivilege();
1075:Source\bsw\FreeRTOS\src/mpu_wrappers.c **** 
1076:Source\bsw\FreeRTOS\src/mpu_wrappers.c **** 		pcReturn = pcTimerGetName( xTimer );
1077:Source\bsw\FreeRTOS\src/mpu_wrappers.c **** 		vPortResetPrivilege( xRunningPrivileged );
1078:Source\bsw\FreeRTOS\src/mpu_wrappers.c **** 
1079:Source\bsw\FreeRTOS\src/mpu_wrappers.c **** 		return pcReturn;
1080:Source\bsw\FreeRTOS\src/mpu_wrappers.c **** 	}
1081:Source\bsw\FreeRTOS\src/mpu_wrappers.c **** #endif
1082:Source\bsw\FreeRTOS\src/mpu_wrappers.c **** /*-----------------------------------------------------------*/
1083:Source\bsw\FreeRTOS\src/mpu_wrappers.c **** 
1084:Source\bsw\FreeRTOS\src/mpu_wrappers.c **** #if( configUSE_TIMERS == 1 )
1085:Source\bsw\FreeRTOS\src/mpu_wrappers.c **** 	TickType_t MPU_xTimerGetPeriod( TimerHandle_t xTimer ) /* FREERTOS_SYSTEM_CALL */
1086:Source\bsw\FreeRTOS\src/mpu_wrappers.c **** 	{
1087:Source\bsw\FreeRTOS\src/mpu_wrappers.c **** 	TickType_t xReturn;
1088:Source\bsw\FreeRTOS\src/mpu_wrappers.c **** 	BaseType_t xRunningPrivileged = xPortRaisePrivilege();
1089:Source\bsw\FreeRTOS\src/mpu_wrappers.c **** 
1090:Source\bsw\FreeRTOS\src/mpu_wrappers.c **** 		xReturn = xTimerGetPeriod( xTimer );
1091:Source\bsw\FreeRTOS\src/mpu_wrappers.c **** 		vPortResetPrivilege( xRunningPrivileged );
1092:Source\bsw\FreeRTOS\src/mpu_wrappers.c **** 
1093:Source\bsw\FreeRTOS\src/mpu_wrappers.c **** 		return xReturn;
1094:Source\bsw\FreeRTOS\src/mpu_wrappers.c **** 	}
1095:Source\bsw\FreeRTOS\src/mpu_wrappers.c **** #endif
1096:Source\bsw\FreeRTOS\src/mpu_wrappers.c **** /*-----------------------------------------------------------*/
1097:Source\bsw\FreeRTOS\src/mpu_wrappers.c **** 
1098:Source\bsw\FreeRTOS\src/mpu_wrappers.c **** #if( configUSE_TIMERS == 1 )
1099:Source\bsw\FreeRTOS\src/mpu_wrappers.c **** 	TickType_t MPU_xTimerGetExpiryTime( TimerHandle_t xTimer ) /* FREERTOS_SYSTEM_CALL */
1100:Source\bsw\FreeRTOS\src/mpu_wrappers.c **** 	{
1101:Source\bsw\FreeRTOS\src/mpu_wrappers.c **** 	TickType_t xReturn;
1102:Source\bsw\FreeRTOS\src/mpu_wrappers.c **** 	BaseType_t xRunningPrivileged = xPortRaisePrivilege();
1103:Source\bsw\FreeRTOS\src/mpu_wrappers.c **** 
1104:Source\bsw\FreeRTOS\src/mpu_wrappers.c **** 		xReturn = xTimerGetExpiryTime( xTimer );
1105:Source\bsw\FreeRTOS\src/mpu_wrappers.c **** 		vPortResetPrivilege( xRunningPrivileged );
1106:Source\bsw\FreeRTOS\src/mpu_wrappers.c **** 
1107:Source\bsw\FreeRTOS\src/mpu_wrappers.c **** 		return xReturn;
1108:Source\bsw\FreeRTOS\src/mpu_wrappers.c **** 	}
1109:Source\bsw\FreeRTOS\src/mpu_wrappers.c **** #endif
1110:Source\bsw\FreeRTOS\src/mpu_wrappers.c **** /*-----------------------------------------------------------*/
1111:Source\bsw\FreeRTOS\src/mpu_wrappers.c **** 
1112:Source\bsw\FreeRTOS\src/mpu_wrappers.c **** #if( configUSE_TIMERS == 1 )
1113:Source\bsw\FreeRTOS\src/mpu_wrappers.c **** 	BaseType_t MPU_xTimerGenericCommand( TimerHandle_t xTimer, const BaseType_t xCommandID, const Tick
1114:Source\bsw\FreeRTOS\src/mpu_wrappers.c **** 	{
1115:Source\bsw\FreeRTOS\src/mpu_wrappers.c **** 	BaseType_t xReturn;
1116:Source\bsw\FreeRTOS\src/mpu_wrappers.c **** 	BaseType_t xRunningPrivileged = xPortRaisePrivilege();
ARM GAS  C:\Users\Reza\AppData\Local\Temp\cckOPwM0.s 			page 56


1117:Source\bsw\FreeRTOS\src/mpu_wrappers.c **** 
1118:Source\bsw\FreeRTOS\src/mpu_wrappers.c **** 		xReturn = xTimerGenericCommand( xTimer, xCommandID, xOptionalValue, pxHigherPriorityTaskWoken, xT
1119:Source\bsw\FreeRTOS\src/mpu_wrappers.c **** 		vPortResetPrivilege( xRunningPrivileged );
1120:Source\bsw\FreeRTOS\src/mpu_wrappers.c **** 
1121:Source\bsw\FreeRTOS\src/mpu_wrappers.c **** 		return xReturn;
1122:Source\bsw\FreeRTOS\src/mpu_wrappers.c **** 	}
1123:Source\bsw\FreeRTOS\src/mpu_wrappers.c **** #endif
1124:Source\bsw\FreeRTOS\src/mpu_wrappers.c **** /*-----------------------------------------------------------*/
1125:Source\bsw\FreeRTOS\src/mpu_wrappers.c **** 
1126:Source\bsw\FreeRTOS\src/mpu_wrappers.c **** #if( configSUPPORT_DYNAMIC_ALLOCATION == 1 )
1127:Source\bsw\FreeRTOS\src/mpu_wrappers.c **** 	EventGroupHandle_t MPU_xEventGroupCreate( void ) /* FREERTOS_SYSTEM_CALL */
1128:Source\bsw\FreeRTOS\src/mpu_wrappers.c **** 	{
 2019              		.loc 1 1128 0
 2020              		.cfi_startproc
 2021              		@ args = 0, pretend = 0, frame = 0
 2022              		@ frame_needed = 0, uses_anonymous_args = 0
 2023 0000 38B5     		push	{r3, r4, r5, lr}
 2024              		.cfi_def_cfa_offset 16
 2025              		.cfi_offset 3, -16
 2026              		.cfi_offset 4, -12
 2027              		.cfi_offset 5, -8
 2028              		.cfi_offset 14, -4
1129:Source\bsw\FreeRTOS\src/mpu_wrappers.c **** 	EventGroupHandle_t xReturn;
1130:Source\bsw\FreeRTOS\src/mpu_wrappers.c **** 	BaseType_t xRunningPrivileged = xPortRaisePrivilege();
 2029              		.loc 1 1130 0
 2030 0002 FFF7FEFF 		bl	xPortRaisePrivilege
 2031              	.LVL325:
 2032 0006 0546     		mov	r5, r0
 2033              	.LVL326:
1131:Source\bsw\FreeRTOS\src/mpu_wrappers.c **** 
1132:Source\bsw\FreeRTOS\src/mpu_wrappers.c **** 		xReturn = xEventGroupCreate();
 2034              		.loc 1 1132 0
 2035 0008 FFF7FEFF 		bl	xEventGroupCreate
 2036              	.LVL327:
 2037 000c 0446     		mov	r4, r0
 2038              	.LVL328:
1133:Source\bsw\FreeRTOS\src/mpu_wrappers.c **** 		vPortResetPrivilege( xRunningPrivileged );
 2039              		.loc 1 1133 0
 2040 000e 2846     		mov	r0, r5
 2041              	.LVL329:
 2042 0010 FFF7FEFF 		bl	vPortResetPrivilege
 2043              	.LVL330:
1134:Source\bsw\FreeRTOS\src/mpu_wrappers.c **** 
1135:Source\bsw\FreeRTOS\src/mpu_wrappers.c **** 		return xReturn;
1136:Source\bsw\FreeRTOS\src/mpu_wrappers.c **** 	}
 2044              		.loc 1 1136 0
 2045 0014 2046     		mov	r0, r4
 2046 0016 38BD     		pop	{r3, r4, r5, pc}
 2047              		.cfi_endproc
 2048              	.LFE115:
 2049              		.size	MPU_xEventGroupCreate, .-MPU_xEventGroupCreate
 2050              		.section	.text.MPU_xEventGroupWaitBits,"ax",%progbits
 2051              		.align	2
 2052              		.global	MPU_xEventGroupWaitBits
 2053              		.thumb
 2054              		.thumb_func
 2055              		.type	MPU_xEventGroupWaitBits, %function
ARM GAS  C:\Users\Reza\AppData\Local\Temp\cckOPwM0.s 			page 57


 2056              	MPU_xEventGroupWaitBits:
 2057              	.LFB116:
1137:Source\bsw\FreeRTOS\src/mpu_wrappers.c **** #endif
1138:Source\bsw\FreeRTOS\src/mpu_wrappers.c **** /*-----------------------------------------------------------*/
1139:Source\bsw\FreeRTOS\src/mpu_wrappers.c **** 
1140:Source\bsw\FreeRTOS\src/mpu_wrappers.c **** #if( configSUPPORT_STATIC_ALLOCATION == 1 )
1141:Source\bsw\FreeRTOS\src/mpu_wrappers.c **** 	EventGroupHandle_t MPU_xEventGroupCreateStatic( StaticEventGroup_t *pxEventGroupBuffer ) /* FREERT
1142:Source\bsw\FreeRTOS\src/mpu_wrappers.c **** 	{
1143:Source\bsw\FreeRTOS\src/mpu_wrappers.c **** 	EventGroupHandle_t xReturn;
1144:Source\bsw\FreeRTOS\src/mpu_wrappers.c **** 	BaseType_t xRunningPrivileged = xPortRaisePrivilege();
1145:Source\bsw\FreeRTOS\src/mpu_wrappers.c **** 
1146:Source\bsw\FreeRTOS\src/mpu_wrappers.c **** 		xReturn = xEventGroupCreateStatic( pxEventGroupBuffer );
1147:Source\bsw\FreeRTOS\src/mpu_wrappers.c **** 		vPortResetPrivilege( xRunningPrivileged );
1148:Source\bsw\FreeRTOS\src/mpu_wrappers.c **** 
1149:Source\bsw\FreeRTOS\src/mpu_wrappers.c **** 		return xReturn;
1150:Source\bsw\FreeRTOS\src/mpu_wrappers.c **** 	}
1151:Source\bsw\FreeRTOS\src/mpu_wrappers.c **** #endif
1152:Source\bsw\FreeRTOS\src/mpu_wrappers.c **** /*-----------------------------------------------------------*/
1153:Source\bsw\FreeRTOS\src/mpu_wrappers.c **** 
1154:Source\bsw\FreeRTOS\src/mpu_wrappers.c **** EventBits_t MPU_xEventGroupWaitBits( EventGroupHandle_t xEventGroup, const EventBits_t uxBitsToWait
1155:Source\bsw\FreeRTOS\src/mpu_wrappers.c **** {
 2058              		.loc 1 1155 0
 2059              		.cfi_startproc
 2060              		@ args = 4, pretend = 0, frame = 0
 2061              		@ frame_needed = 0, uses_anonymous_args = 0
 2062              	.LVL331:
 2063 0000 2DE9F041 		push	{r4, r5, r6, r7, r8, lr}
 2064              		.cfi_def_cfa_offset 24
 2065              		.cfi_offset 4, -24
 2066              		.cfi_offset 5, -20
 2067              		.cfi_offset 6, -16
 2068              		.cfi_offset 7, -12
 2069              		.cfi_offset 8, -8
 2070              		.cfi_offset 14, -4
 2071 0004 82B0     		sub	sp, sp, #8
 2072              		.cfi_def_cfa_offset 32
 2073 0006 0446     		mov	r4, r0
 2074 0008 0E46     		mov	r6, r1
 2075 000a 1746     		mov	r7, r2
 2076 000c 9846     		mov	r8, r3
1156:Source\bsw\FreeRTOS\src/mpu_wrappers.c **** EventBits_t xReturn;
1157:Source\bsw\FreeRTOS\src/mpu_wrappers.c **** BaseType_t xRunningPrivileged = xPortRaisePrivilege();
 2077              		.loc 1 1157 0
 2078 000e FFF7FEFF 		bl	xPortRaisePrivilege
 2079              	.LVL332:
 2080 0012 0546     		mov	r5, r0
 2081              	.LVL333:
1158:Source\bsw\FreeRTOS\src/mpu_wrappers.c **** 
1159:Source\bsw\FreeRTOS\src/mpu_wrappers.c **** 	xReturn = xEventGroupWaitBits( xEventGroup, uxBitsToWaitFor, xClearOnExit, xWaitForAllBits, xTicks
 2082              		.loc 1 1159 0
 2083 0014 089B     		ldr	r3, [sp, #32]
 2084 0016 0093     		str	r3, [sp]
 2085 0018 4346     		mov	r3, r8
 2086 001a 3A46     		mov	r2, r7
 2087 001c 3146     		mov	r1, r6
 2088 001e 2046     		mov	r0, r4
 2089              	.LVL334:
ARM GAS  C:\Users\Reza\AppData\Local\Temp\cckOPwM0.s 			page 58


 2090 0020 FFF7FEFF 		bl	xEventGroupWaitBits
 2091              	.LVL335:
 2092 0024 0446     		mov	r4, r0
 2093              	.LVL336:
1160:Source\bsw\FreeRTOS\src/mpu_wrappers.c **** 	vPortResetPrivilege( xRunningPrivileged );
 2094              		.loc 1 1160 0
 2095 0026 2846     		mov	r0, r5
 2096              	.LVL337:
 2097 0028 FFF7FEFF 		bl	vPortResetPrivilege
 2098              	.LVL338:
1161:Source\bsw\FreeRTOS\src/mpu_wrappers.c **** 
1162:Source\bsw\FreeRTOS\src/mpu_wrappers.c **** 	return xReturn;
1163:Source\bsw\FreeRTOS\src/mpu_wrappers.c **** }
 2099              		.loc 1 1163 0
 2100 002c 2046     		mov	r0, r4
 2101 002e 02B0     		add	sp, sp, #8
 2102              		.cfi_def_cfa_offset 24
 2103              		@ sp needed
 2104 0030 BDE8F081 		pop	{r4, r5, r6, r7, r8, pc}
 2105              		.cfi_endproc
 2106              	.LFE116:
 2107              		.size	MPU_xEventGroupWaitBits, .-MPU_xEventGroupWaitBits
 2108              		.section	.text.MPU_xEventGroupClearBits,"ax",%progbits
 2109              		.align	2
 2110              		.global	MPU_xEventGroupClearBits
 2111              		.thumb
 2112              		.thumb_func
 2113              		.type	MPU_xEventGroupClearBits, %function
 2114              	MPU_xEventGroupClearBits:
 2115              	.LFB117:
1164:Source\bsw\FreeRTOS\src/mpu_wrappers.c **** /*-----------------------------------------------------------*/
1165:Source\bsw\FreeRTOS\src/mpu_wrappers.c **** 
1166:Source\bsw\FreeRTOS\src/mpu_wrappers.c **** EventBits_t MPU_xEventGroupClearBits( EventGroupHandle_t xEventGroup, const EventBits_t uxBitsToCle
1167:Source\bsw\FreeRTOS\src/mpu_wrappers.c **** {
 2116              		.loc 1 1167 0
 2117              		.cfi_startproc
 2118              		@ args = 0, pretend = 0, frame = 0
 2119              		@ frame_needed = 0, uses_anonymous_args = 0
 2120              	.LVL339:
 2121 0000 70B5     		push	{r4, r5, r6, lr}
 2122              		.cfi_def_cfa_offset 16
 2123              		.cfi_offset 4, -16
 2124              		.cfi_offset 5, -12
 2125              		.cfi_offset 6, -8
 2126              		.cfi_offset 14, -4
 2127 0002 0446     		mov	r4, r0
 2128 0004 0E46     		mov	r6, r1
1168:Source\bsw\FreeRTOS\src/mpu_wrappers.c **** EventBits_t xReturn;
1169:Source\bsw\FreeRTOS\src/mpu_wrappers.c **** BaseType_t xRunningPrivileged = xPortRaisePrivilege();
 2129              		.loc 1 1169 0
 2130 0006 FFF7FEFF 		bl	xPortRaisePrivilege
 2131              	.LVL340:
 2132 000a 0546     		mov	r5, r0
 2133              	.LVL341:
1170:Source\bsw\FreeRTOS\src/mpu_wrappers.c **** 
1171:Source\bsw\FreeRTOS\src/mpu_wrappers.c **** 	xReturn = xEventGroupClearBits( xEventGroup, uxBitsToClear );
 2134              		.loc 1 1171 0
ARM GAS  C:\Users\Reza\AppData\Local\Temp\cckOPwM0.s 			page 59


 2135 000c 3146     		mov	r1, r6
 2136 000e 2046     		mov	r0, r4
 2137              	.LVL342:
 2138 0010 FFF7FEFF 		bl	xEventGroupClearBits
 2139              	.LVL343:
 2140 0014 0446     		mov	r4, r0
 2141              	.LVL344:
1172:Source\bsw\FreeRTOS\src/mpu_wrappers.c **** 	vPortResetPrivilege( xRunningPrivileged );
 2142              		.loc 1 1172 0
 2143 0016 2846     		mov	r0, r5
 2144              	.LVL345:
 2145 0018 FFF7FEFF 		bl	vPortResetPrivilege
 2146              	.LVL346:
1173:Source\bsw\FreeRTOS\src/mpu_wrappers.c **** 
1174:Source\bsw\FreeRTOS\src/mpu_wrappers.c **** 	return xReturn;
1175:Source\bsw\FreeRTOS\src/mpu_wrappers.c **** }
 2147              		.loc 1 1175 0
 2148 001c 2046     		mov	r0, r4
 2149 001e 70BD     		pop	{r4, r5, r6, pc}
 2150              		.cfi_endproc
 2151              	.LFE117:
 2152              		.size	MPU_xEventGroupClearBits, .-MPU_xEventGroupClearBits
 2153              		.section	.text.MPU_xEventGroupSetBits,"ax",%progbits
 2154              		.align	2
 2155              		.global	MPU_xEventGroupSetBits
 2156              		.thumb
 2157              		.thumb_func
 2158              		.type	MPU_xEventGroupSetBits, %function
 2159              	MPU_xEventGroupSetBits:
 2160              	.LFB118:
1176:Source\bsw\FreeRTOS\src/mpu_wrappers.c **** /*-----------------------------------------------------------*/
1177:Source\bsw\FreeRTOS\src/mpu_wrappers.c **** 
1178:Source\bsw\FreeRTOS\src/mpu_wrappers.c **** EventBits_t MPU_xEventGroupSetBits( EventGroupHandle_t xEventGroup, const EventBits_t uxBitsToSet )
1179:Source\bsw\FreeRTOS\src/mpu_wrappers.c **** {
 2161              		.loc 1 1179 0
 2162              		.cfi_startproc
 2163              		@ args = 0, pretend = 0, frame = 0
 2164              		@ frame_needed = 0, uses_anonymous_args = 0
 2165              	.LVL347:
 2166 0000 70B5     		push	{r4, r5, r6, lr}
 2167              		.cfi_def_cfa_offset 16
 2168              		.cfi_offset 4, -16
 2169              		.cfi_offset 5, -12
 2170              		.cfi_offset 6, -8
 2171              		.cfi_offset 14, -4
 2172 0002 0446     		mov	r4, r0
 2173 0004 0E46     		mov	r6, r1
1180:Source\bsw\FreeRTOS\src/mpu_wrappers.c **** EventBits_t xReturn;
1181:Source\bsw\FreeRTOS\src/mpu_wrappers.c **** BaseType_t xRunningPrivileged = xPortRaisePrivilege();
 2174              		.loc 1 1181 0
 2175 0006 FFF7FEFF 		bl	xPortRaisePrivilege
 2176              	.LVL348:
 2177 000a 0546     		mov	r5, r0
 2178              	.LVL349:
1182:Source\bsw\FreeRTOS\src/mpu_wrappers.c **** 
1183:Source\bsw\FreeRTOS\src/mpu_wrappers.c **** 	xReturn = xEventGroupSetBits( xEventGroup, uxBitsToSet );
 2179              		.loc 1 1183 0
ARM GAS  C:\Users\Reza\AppData\Local\Temp\cckOPwM0.s 			page 60


 2180 000c 3146     		mov	r1, r6
 2181 000e 2046     		mov	r0, r4
 2182              	.LVL350:
 2183 0010 FFF7FEFF 		bl	xEventGroupSetBits
 2184              	.LVL351:
 2185 0014 0446     		mov	r4, r0
 2186              	.LVL352:
1184:Source\bsw\FreeRTOS\src/mpu_wrappers.c **** 	vPortResetPrivilege( xRunningPrivileged );
 2187              		.loc 1 1184 0
 2188 0016 2846     		mov	r0, r5
 2189              	.LVL353:
 2190 0018 FFF7FEFF 		bl	vPortResetPrivilege
 2191              	.LVL354:
1185:Source\bsw\FreeRTOS\src/mpu_wrappers.c **** 
1186:Source\bsw\FreeRTOS\src/mpu_wrappers.c **** 	return xReturn;
1187:Source\bsw\FreeRTOS\src/mpu_wrappers.c **** }
 2192              		.loc 1 1187 0
 2193 001c 2046     		mov	r0, r4
 2194 001e 70BD     		pop	{r4, r5, r6, pc}
 2195              		.cfi_endproc
 2196              	.LFE118:
 2197              		.size	MPU_xEventGroupSetBits, .-MPU_xEventGroupSetBits
 2198              		.section	.text.MPU_xEventGroupSync,"ax",%progbits
 2199              		.align	2
 2200              		.global	MPU_xEventGroupSync
 2201              		.thumb
 2202              		.thumb_func
 2203              		.type	MPU_xEventGroupSync, %function
 2204              	MPU_xEventGroupSync:
 2205              	.LFB119:
1188:Source\bsw\FreeRTOS\src/mpu_wrappers.c **** /*-----------------------------------------------------------*/
1189:Source\bsw\FreeRTOS\src/mpu_wrappers.c **** 
1190:Source\bsw\FreeRTOS\src/mpu_wrappers.c **** EventBits_t MPU_xEventGroupSync( EventGroupHandle_t xEventGroup, const EventBits_t uxBitsToSet, con
1191:Source\bsw\FreeRTOS\src/mpu_wrappers.c **** {
 2206              		.loc 1 1191 0
 2207              		.cfi_startproc
 2208              		@ args = 0, pretend = 0, frame = 0
 2209              		@ frame_needed = 0, uses_anonymous_args = 0
 2210              	.LVL355:
 2211 0000 2DE9F041 		push	{r4, r5, r6, r7, r8, lr}
 2212              		.cfi_def_cfa_offset 24
 2213              		.cfi_offset 4, -24
 2214              		.cfi_offset 5, -20
 2215              		.cfi_offset 6, -16
 2216              		.cfi_offset 7, -12
 2217              		.cfi_offset 8, -8
 2218              		.cfi_offset 14, -4
 2219 0004 0446     		mov	r4, r0
 2220 0006 0E46     		mov	r6, r1
 2221 0008 1746     		mov	r7, r2
 2222 000a 9846     		mov	r8, r3
1192:Source\bsw\FreeRTOS\src/mpu_wrappers.c **** EventBits_t xReturn;
1193:Source\bsw\FreeRTOS\src/mpu_wrappers.c **** BaseType_t xRunningPrivileged = xPortRaisePrivilege();
 2223              		.loc 1 1193 0
 2224 000c FFF7FEFF 		bl	xPortRaisePrivilege
 2225              	.LVL356:
 2226 0010 0546     		mov	r5, r0
ARM GAS  C:\Users\Reza\AppData\Local\Temp\cckOPwM0.s 			page 61


 2227              	.LVL357:
1194:Source\bsw\FreeRTOS\src/mpu_wrappers.c **** 
1195:Source\bsw\FreeRTOS\src/mpu_wrappers.c **** 	xReturn = xEventGroupSync( xEventGroup, uxBitsToSet, uxBitsToWaitFor, xTicksToWait );
 2228              		.loc 1 1195 0
 2229 0012 4346     		mov	r3, r8
 2230 0014 3A46     		mov	r2, r7
 2231 0016 3146     		mov	r1, r6
 2232 0018 2046     		mov	r0, r4
 2233              	.LVL358:
 2234 001a FFF7FEFF 		bl	xEventGroupSync
 2235              	.LVL359:
 2236 001e 0446     		mov	r4, r0
 2237              	.LVL360:
1196:Source\bsw\FreeRTOS\src/mpu_wrappers.c **** 	vPortResetPrivilege( xRunningPrivileged );
 2238              		.loc 1 1196 0
 2239 0020 2846     		mov	r0, r5
 2240              	.LVL361:
 2241 0022 FFF7FEFF 		bl	vPortResetPrivilege
 2242              	.LVL362:
1197:Source\bsw\FreeRTOS\src/mpu_wrappers.c **** 
1198:Source\bsw\FreeRTOS\src/mpu_wrappers.c **** 	return xReturn;
1199:Source\bsw\FreeRTOS\src/mpu_wrappers.c **** }
 2243              		.loc 1 1199 0
 2244 0026 2046     		mov	r0, r4
 2245 0028 BDE8F081 		pop	{r4, r5, r6, r7, r8, pc}
 2246              		.cfi_endproc
 2247              	.LFE119:
 2248              		.size	MPU_xEventGroupSync, .-MPU_xEventGroupSync
 2249              		.section	.text.MPU_vEventGroupDelete,"ax",%progbits
 2250              		.align	2
 2251              		.global	MPU_vEventGroupDelete
 2252              		.thumb
 2253              		.thumb_func
 2254              		.type	MPU_vEventGroupDelete, %function
 2255              	MPU_vEventGroupDelete:
 2256              	.LFB120:
1200:Source\bsw\FreeRTOS\src/mpu_wrappers.c **** /*-----------------------------------------------------------*/
1201:Source\bsw\FreeRTOS\src/mpu_wrappers.c **** 
1202:Source\bsw\FreeRTOS\src/mpu_wrappers.c **** void MPU_vEventGroupDelete( EventGroupHandle_t xEventGroup ) /* FREERTOS_SYSTEM_CALL */
1203:Source\bsw\FreeRTOS\src/mpu_wrappers.c **** {
 2257              		.loc 1 1203 0
 2258              		.cfi_startproc
 2259              		@ args = 0, pretend = 0, frame = 0
 2260              		@ frame_needed = 0, uses_anonymous_args = 0
 2261              	.LVL363:
 2262 0000 38B5     		push	{r3, r4, r5, lr}
 2263              		.cfi_def_cfa_offset 16
 2264              		.cfi_offset 3, -16
 2265              		.cfi_offset 4, -12
 2266              		.cfi_offset 5, -8
 2267              		.cfi_offset 14, -4
 2268 0002 0546     		mov	r5, r0
1204:Source\bsw\FreeRTOS\src/mpu_wrappers.c **** BaseType_t xRunningPrivileged = xPortRaisePrivilege();
 2269              		.loc 1 1204 0
 2270 0004 FFF7FEFF 		bl	xPortRaisePrivilege
 2271              	.LVL364:
 2272 0008 0446     		mov	r4, r0
ARM GAS  C:\Users\Reza\AppData\Local\Temp\cckOPwM0.s 			page 62


 2273              	.LVL365:
1205:Source\bsw\FreeRTOS\src/mpu_wrappers.c **** 
1206:Source\bsw\FreeRTOS\src/mpu_wrappers.c **** 	vEventGroupDelete( xEventGroup );
 2274              		.loc 1 1206 0
 2275 000a 2846     		mov	r0, r5
 2276              	.LVL366:
 2277 000c FFF7FEFF 		bl	vEventGroupDelete
 2278              	.LVL367:
1207:Source\bsw\FreeRTOS\src/mpu_wrappers.c **** 	vPortResetPrivilege( xRunningPrivileged );
 2279              		.loc 1 1207 0
 2280 0010 2046     		mov	r0, r4
 2281 0012 FFF7FEFF 		bl	vPortResetPrivilege
 2282              	.LVL368:
 2283 0016 38BD     		pop	{r3, r4, r5, pc}
 2284              		.cfi_endproc
 2285              	.LFE120:
 2286              		.size	MPU_vEventGroupDelete, .-MPU_vEventGroupDelete
 2287              		.section	.text.MPU_xStreamBufferSend,"ax",%progbits
 2288              		.align	2
 2289              		.global	MPU_xStreamBufferSend
 2290              		.thumb
 2291              		.thumb_func
 2292              		.type	MPU_xStreamBufferSend, %function
 2293              	MPU_xStreamBufferSend:
 2294              	.LFB121:
1208:Source\bsw\FreeRTOS\src/mpu_wrappers.c **** }
1209:Source\bsw\FreeRTOS\src/mpu_wrappers.c **** /*-----------------------------------------------------------*/
1210:Source\bsw\FreeRTOS\src/mpu_wrappers.c **** 
1211:Source\bsw\FreeRTOS\src/mpu_wrappers.c **** size_t MPU_xStreamBufferSend( StreamBufferHandle_t xStreamBuffer, const void *pvTxData, size_t xDat
1212:Source\bsw\FreeRTOS\src/mpu_wrappers.c **** {
 2295              		.loc 1 1212 0
 2296              		.cfi_startproc
 2297              		@ args = 0, pretend = 0, frame = 0
 2298              		@ frame_needed = 0, uses_anonymous_args = 0
 2299              	.LVL369:
 2300 0000 2DE9F041 		push	{r4, r5, r6, r7, r8, lr}
 2301              		.cfi_def_cfa_offset 24
 2302              		.cfi_offset 4, -24
 2303              		.cfi_offset 5, -20
 2304              		.cfi_offset 6, -16
 2305              		.cfi_offset 7, -12
 2306              		.cfi_offset 8, -8
 2307              		.cfi_offset 14, -4
 2308 0004 0446     		mov	r4, r0
 2309 0006 0E46     		mov	r6, r1
 2310 0008 1746     		mov	r7, r2
 2311 000a 9846     		mov	r8, r3
1213:Source\bsw\FreeRTOS\src/mpu_wrappers.c **** size_t xReturn;
1214:Source\bsw\FreeRTOS\src/mpu_wrappers.c **** BaseType_t xRunningPrivileged = xPortRaisePrivilege();
 2312              		.loc 1 1214 0
 2313 000c FFF7FEFF 		bl	xPortRaisePrivilege
 2314              	.LVL370:
 2315 0010 0546     		mov	r5, r0
 2316              	.LVL371:
1215:Source\bsw\FreeRTOS\src/mpu_wrappers.c **** 
1216:Source\bsw\FreeRTOS\src/mpu_wrappers.c **** 	xReturn = xStreamBufferSend( xStreamBuffer, pvTxData, xDataLengthBytes, xTicksToWait );
 2317              		.loc 1 1216 0
ARM GAS  C:\Users\Reza\AppData\Local\Temp\cckOPwM0.s 			page 63


 2318 0012 4346     		mov	r3, r8
 2319 0014 3A46     		mov	r2, r7
 2320 0016 3146     		mov	r1, r6
 2321 0018 2046     		mov	r0, r4
 2322              	.LVL372:
 2323 001a FFF7FEFF 		bl	xStreamBufferSend
 2324              	.LVL373:
 2325 001e 0446     		mov	r4, r0
 2326              	.LVL374:
1217:Source\bsw\FreeRTOS\src/mpu_wrappers.c **** 	vPortResetPrivilege( xRunningPrivileged );
 2327              		.loc 1 1217 0
 2328 0020 2846     		mov	r0, r5
 2329              	.LVL375:
 2330 0022 FFF7FEFF 		bl	vPortResetPrivilege
 2331              	.LVL376:
1218:Source\bsw\FreeRTOS\src/mpu_wrappers.c **** 
1219:Source\bsw\FreeRTOS\src/mpu_wrappers.c **** 	return xReturn;
1220:Source\bsw\FreeRTOS\src/mpu_wrappers.c **** }
 2332              		.loc 1 1220 0
 2333 0026 2046     		mov	r0, r4
 2334 0028 BDE8F081 		pop	{r4, r5, r6, r7, r8, pc}
 2335              		.cfi_endproc
 2336              	.LFE121:
 2337              		.size	MPU_xStreamBufferSend, .-MPU_xStreamBufferSend
 2338              		.section	.text.MPU_xStreamBufferNextMessageLengthBytes,"ax",%progbits
 2339              		.align	2
 2340              		.global	MPU_xStreamBufferNextMessageLengthBytes
 2341              		.thumb
 2342              		.thumb_func
 2343              		.type	MPU_xStreamBufferNextMessageLengthBytes, %function
 2344              	MPU_xStreamBufferNextMessageLengthBytes:
 2345              	.LFB122:
1221:Source\bsw\FreeRTOS\src/mpu_wrappers.c **** /*-----------------------------------------------------------*/
1222:Source\bsw\FreeRTOS\src/mpu_wrappers.c **** 
1223:Source\bsw\FreeRTOS\src/mpu_wrappers.c **** size_t MPU_xStreamBufferNextMessageLengthBytes( StreamBufferHandle_t xStreamBuffer ) /* FREERTOS_SY
1224:Source\bsw\FreeRTOS\src/mpu_wrappers.c **** {
 2346              		.loc 1 1224 0
 2347              		.cfi_startproc
 2348              		@ args = 0, pretend = 0, frame = 0
 2349              		@ frame_needed = 0, uses_anonymous_args = 0
 2350              	.LVL377:
 2351 0000 38B5     		push	{r3, r4, r5, lr}
 2352              		.cfi_def_cfa_offset 16
 2353              		.cfi_offset 3, -16
 2354              		.cfi_offset 4, -12
 2355              		.cfi_offset 5, -8
 2356              		.cfi_offset 14, -4
 2357 0002 0446     		mov	r4, r0
1225:Source\bsw\FreeRTOS\src/mpu_wrappers.c **** size_t xReturn;
1226:Source\bsw\FreeRTOS\src/mpu_wrappers.c **** BaseType_t xRunningPrivileged = xPortRaisePrivilege();
 2358              		.loc 1 1226 0
 2359 0004 FFF7FEFF 		bl	xPortRaisePrivilege
 2360              	.LVL378:
 2361 0008 0546     		mov	r5, r0
 2362              	.LVL379:
1227:Source\bsw\FreeRTOS\src/mpu_wrappers.c **** 
1228:Source\bsw\FreeRTOS\src/mpu_wrappers.c **** 	xReturn = xStreamBufferNextMessageLengthBytes( xStreamBuffer );
ARM GAS  C:\Users\Reza\AppData\Local\Temp\cckOPwM0.s 			page 64


 2363              		.loc 1 1228 0
 2364 000a 2046     		mov	r0, r4
 2365              	.LVL380:
 2366 000c FFF7FEFF 		bl	xStreamBufferNextMessageLengthBytes
 2367              	.LVL381:
 2368 0010 0446     		mov	r4, r0
 2369              	.LVL382:
1229:Source\bsw\FreeRTOS\src/mpu_wrappers.c **** 	vPortResetPrivilege( xRunningPrivileged );
 2370              		.loc 1 1229 0
 2371 0012 2846     		mov	r0, r5
 2372              	.LVL383:
 2373 0014 FFF7FEFF 		bl	vPortResetPrivilege
 2374              	.LVL384:
1230:Source\bsw\FreeRTOS\src/mpu_wrappers.c **** 
1231:Source\bsw\FreeRTOS\src/mpu_wrappers.c **** 	return xReturn;
1232:Source\bsw\FreeRTOS\src/mpu_wrappers.c **** }
 2375              		.loc 1 1232 0
 2376 0018 2046     		mov	r0, r4
 2377 001a 38BD     		pop	{r3, r4, r5, pc}
 2378              		.cfi_endproc
 2379              	.LFE122:
 2380              		.size	MPU_xStreamBufferNextMessageLengthBytes, .-MPU_xStreamBufferNextMessageLengthBytes
 2381              		.section	.text.MPU_xStreamBufferReceive,"ax",%progbits
 2382              		.align	2
 2383              		.global	MPU_xStreamBufferReceive
 2384              		.thumb
 2385              		.thumb_func
 2386              		.type	MPU_xStreamBufferReceive, %function
 2387              	MPU_xStreamBufferReceive:
 2388              	.LFB123:
1233:Source\bsw\FreeRTOS\src/mpu_wrappers.c **** /*-----------------------------------------------------------*/
1234:Source\bsw\FreeRTOS\src/mpu_wrappers.c **** 
1235:Source\bsw\FreeRTOS\src/mpu_wrappers.c **** size_t MPU_xStreamBufferReceive( StreamBufferHandle_t xStreamBuffer, void *pvRxData, size_t xBuffer
1236:Source\bsw\FreeRTOS\src/mpu_wrappers.c **** {
 2389              		.loc 1 1236 0
 2390              		.cfi_startproc
 2391              		@ args = 0, pretend = 0, frame = 0
 2392              		@ frame_needed = 0, uses_anonymous_args = 0
 2393              	.LVL385:
 2394 0000 2DE9F041 		push	{r4, r5, r6, r7, r8, lr}
 2395              		.cfi_def_cfa_offset 24
 2396              		.cfi_offset 4, -24
 2397              		.cfi_offset 5, -20
 2398              		.cfi_offset 6, -16
 2399              		.cfi_offset 7, -12
 2400              		.cfi_offset 8, -8
 2401              		.cfi_offset 14, -4
 2402 0004 0446     		mov	r4, r0
 2403 0006 0E46     		mov	r6, r1
 2404 0008 1746     		mov	r7, r2
 2405 000a 9846     		mov	r8, r3
1237:Source\bsw\FreeRTOS\src/mpu_wrappers.c **** size_t xReturn;
1238:Source\bsw\FreeRTOS\src/mpu_wrappers.c **** BaseType_t xRunningPrivileged = xPortRaisePrivilege();
 2406              		.loc 1 1238 0
 2407 000c FFF7FEFF 		bl	xPortRaisePrivilege
 2408              	.LVL386:
 2409 0010 0546     		mov	r5, r0
ARM GAS  C:\Users\Reza\AppData\Local\Temp\cckOPwM0.s 			page 65


 2410              	.LVL387:
1239:Source\bsw\FreeRTOS\src/mpu_wrappers.c **** 
1240:Source\bsw\FreeRTOS\src/mpu_wrappers.c **** 	xReturn = xStreamBufferReceive( xStreamBuffer, pvRxData, xBufferLengthBytes, xTicksToWait );
 2411              		.loc 1 1240 0
 2412 0012 4346     		mov	r3, r8
 2413 0014 3A46     		mov	r2, r7
 2414 0016 3146     		mov	r1, r6
 2415 0018 2046     		mov	r0, r4
 2416              	.LVL388:
 2417 001a FFF7FEFF 		bl	xStreamBufferReceive
 2418              	.LVL389:
 2419 001e 0446     		mov	r4, r0
 2420              	.LVL390:
1241:Source\bsw\FreeRTOS\src/mpu_wrappers.c **** 	vPortResetPrivilege( xRunningPrivileged );
 2421              		.loc 1 1241 0
 2422 0020 2846     		mov	r0, r5
 2423              	.LVL391:
 2424 0022 FFF7FEFF 		bl	vPortResetPrivilege
 2425              	.LVL392:
1242:Source\bsw\FreeRTOS\src/mpu_wrappers.c **** 
1243:Source\bsw\FreeRTOS\src/mpu_wrappers.c **** 	return xReturn;
1244:Source\bsw\FreeRTOS\src/mpu_wrappers.c **** }
 2426              		.loc 1 1244 0
 2427 0026 2046     		mov	r0, r4
 2428 0028 BDE8F081 		pop	{r4, r5, r6, r7, r8, pc}
 2429              		.cfi_endproc
 2430              	.LFE123:
 2431              		.size	MPU_xStreamBufferReceive, .-MPU_xStreamBufferReceive
 2432              		.section	.text.MPU_vStreamBufferDelete,"ax",%progbits
 2433              		.align	2
 2434              		.global	MPU_vStreamBufferDelete
 2435              		.thumb
 2436              		.thumb_func
 2437              		.type	MPU_vStreamBufferDelete, %function
 2438              	MPU_vStreamBufferDelete:
 2439              	.LFB124:
1245:Source\bsw\FreeRTOS\src/mpu_wrappers.c **** /*-----------------------------------------------------------*/
1246:Source\bsw\FreeRTOS\src/mpu_wrappers.c **** 
1247:Source\bsw\FreeRTOS\src/mpu_wrappers.c **** void MPU_vStreamBufferDelete( StreamBufferHandle_t xStreamBuffer ) /* FREERTOS_SYSTEM_CALL */
1248:Source\bsw\FreeRTOS\src/mpu_wrappers.c **** {
 2440              		.loc 1 1248 0
 2441              		.cfi_startproc
 2442              		@ args = 0, pretend = 0, frame = 0
 2443              		@ frame_needed = 0, uses_anonymous_args = 0
 2444              	.LVL393:
 2445 0000 38B5     		push	{r3, r4, r5, lr}
 2446              		.cfi_def_cfa_offset 16
 2447              		.cfi_offset 3, -16
 2448              		.cfi_offset 4, -12
 2449              		.cfi_offset 5, -8
 2450              		.cfi_offset 14, -4
 2451 0002 0546     		mov	r5, r0
1249:Source\bsw\FreeRTOS\src/mpu_wrappers.c **** BaseType_t xRunningPrivileged = xPortRaisePrivilege();
 2452              		.loc 1 1249 0
 2453 0004 FFF7FEFF 		bl	xPortRaisePrivilege
 2454              	.LVL394:
 2455 0008 0446     		mov	r4, r0
ARM GAS  C:\Users\Reza\AppData\Local\Temp\cckOPwM0.s 			page 66


 2456              	.LVL395:
1250:Source\bsw\FreeRTOS\src/mpu_wrappers.c **** 
1251:Source\bsw\FreeRTOS\src/mpu_wrappers.c **** 	vStreamBufferDelete( xStreamBuffer );
 2457              		.loc 1 1251 0
 2458 000a 2846     		mov	r0, r5
 2459              	.LVL396:
 2460 000c FFF7FEFF 		bl	vStreamBufferDelete
 2461              	.LVL397:
1252:Source\bsw\FreeRTOS\src/mpu_wrappers.c **** 	vPortResetPrivilege( xRunningPrivileged );
 2462              		.loc 1 1252 0
 2463 0010 2046     		mov	r0, r4
 2464 0012 FFF7FEFF 		bl	vPortResetPrivilege
 2465              	.LVL398:
 2466 0016 38BD     		pop	{r3, r4, r5, pc}
 2467              		.cfi_endproc
 2468              	.LFE124:
 2469              		.size	MPU_vStreamBufferDelete, .-MPU_vStreamBufferDelete
 2470              		.section	.text.MPU_xStreamBufferIsFull,"ax",%progbits
 2471              		.align	2
 2472              		.global	MPU_xStreamBufferIsFull
 2473              		.thumb
 2474              		.thumb_func
 2475              		.type	MPU_xStreamBufferIsFull, %function
 2476              	MPU_xStreamBufferIsFull:
 2477              	.LFB125:
1253:Source\bsw\FreeRTOS\src/mpu_wrappers.c **** }
1254:Source\bsw\FreeRTOS\src/mpu_wrappers.c **** /*-----------------------------------------------------------*/
1255:Source\bsw\FreeRTOS\src/mpu_wrappers.c **** 
1256:Source\bsw\FreeRTOS\src/mpu_wrappers.c **** BaseType_t MPU_xStreamBufferIsFull( StreamBufferHandle_t xStreamBuffer ) /* FREERTOS_SYSTEM_CALL */
1257:Source\bsw\FreeRTOS\src/mpu_wrappers.c **** {
 2478              		.loc 1 1257 0
 2479              		.cfi_startproc
 2480              		@ args = 0, pretend = 0, frame = 0
 2481              		@ frame_needed = 0, uses_anonymous_args = 0
 2482              	.LVL399:
 2483 0000 38B5     		push	{r3, r4, r5, lr}
 2484              		.cfi_def_cfa_offset 16
 2485              		.cfi_offset 3, -16
 2486              		.cfi_offset 4, -12
 2487              		.cfi_offset 5, -8
 2488              		.cfi_offset 14, -4
 2489 0002 0446     		mov	r4, r0
1258:Source\bsw\FreeRTOS\src/mpu_wrappers.c **** BaseType_t xReturn;
1259:Source\bsw\FreeRTOS\src/mpu_wrappers.c **** BaseType_t xRunningPrivileged = xPortRaisePrivilege();
 2490              		.loc 1 1259 0
 2491 0004 FFF7FEFF 		bl	xPortRaisePrivilege
 2492              	.LVL400:
 2493 0008 0546     		mov	r5, r0
 2494              	.LVL401:
1260:Source\bsw\FreeRTOS\src/mpu_wrappers.c **** 
1261:Source\bsw\FreeRTOS\src/mpu_wrappers.c **** 	xReturn = xStreamBufferIsFull( xStreamBuffer );
 2495              		.loc 1 1261 0
 2496 000a 2046     		mov	r0, r4
 2497              	.LVL402:
 2498 000c FFF7FEFF 		bl	xStreamBufferIsFull
 2499              	.LVL403:
 2500 0010 0446     		mov	r4, r0
ARM GAS  C:\Users\Reza\AppData\Local\Temp\cckOPwM0.s 			page 67


 2501              	.LVL404:
1262:Source\bsw\FreeRTOS\src/mpu_wrappers.c **** 	vPortResetPrivilege( xRunningPrivileged );
 2502              		.loc 1 1262 0
 2503 0012 2846     		mov	r0, r5
 2504              	.LVL405:
 2505 0014 FFF7FEFF 		bl	vPortResetPrivilege
 2506              	.LVL406:
1263:Source\bsw\FreeRTOS\src/mpu_wrappers.c **** 
1264:Source\bsw\FreeRTOS\src/mpu_wrappers.c **** 	return xReturn;
1265:Source\bsw\FreeRTOS\src/mpu_wrappers.c **** }
 2507              		.loc 1 1265 0
 2508 0018 2046     		mov	r0, r4
 2509 001a 38BD     		pop	{r3, r4, r5, pc}
 2510              		.cfi_endproc
 2511              	.LFE125:
 2512              		.size	MPU_xStreamBufferIsFull, .-MPU_xStreamBufferIsFull
 2513              		.section	.text.MPU_xStreamBufferIsEmpty,"ax",%progbits
 2514              		.align	2
 2515              		.global	MPU_xStreamBufferIsEmpty
 2516              		.thumb
 2517              		.thumb_func
 2518              		.type	MPU_xStreamBufferIsEmpty, %function
 2519              	MPU_xStreamBufferIsEmpty:
 2520              	.LFB126:
1266:Source\bsw\FreeRTOS\src/mpu_wrappers.c **** /*-----------------------------------------------------------*/
1267:Source\bsw\FreeRTOS\src/mpu_wrappers.c **** 
1268:Source\bsw\FreeRTOS\src/mpu_wrappers.c **** BaseType_t MPU_xStreamBufferIsEmpty( StreamBufferHandle_t xStreamBuffer ) /* FREERTOS_SYSTEM_CALL *
1269:Source\bsw\FreeRTOS\src/mpu_wrappers.c **** {
 2521              		.loc 1 1269 0
 2522              		.cfi_startproc
 2523              		@ args = 0, pretend = 0, frame = 0
 2524              		@ frame_needed = 0, uses_anonymous_args = 0
 2525              	.LVL407:
 2526 0000 38B5     		push	{r3, r4, r5, lr}
 2527              		.cfi_def_cfa_offset 16
 2528              		.cfi_offset 3, -16
 2529              		.cfi_offset 4, -12
 2530              		.cfi_offset 5, -8
 2531              		.cfi_offset 14, -4
 2532 0002 0446     		mov	r4, r0
1270:Source\bsw\FreeRTOS\src/mpu_wrappers.c **** BaseType_t xReturn;
1271:Source\bsw\FreeRTOS\src/mpu_wrappers.c **** BaseType_t xRunningPrivileged = xPortRaisePrivilege();
 2533              		.loc 1 1271 0
 2534 0004 FFF7FEFF 		bl	xPortRaisePrivilege
 2535              	.LVL408:
 2536 0008 0546     		mov	r5, r0
 2537              	.LVL409:
1272:Source\bsw\FreeRTOS\src/mpu_wrappers.c **** 
1273:Source\bsw\FreeRTOS\src/mpu_wrappers.c **** 	xReturn = xStreamBufferIsEmpty( xStreamBuffer );
 2538              		.loc 1 1273 0
 2539 000a 2046     		mov	r0, r4
 2540              	.LVL410:
 2541 000c FFF7FEFF 		bl	xStreamBufferIsEmpty
 2542              	.LVL411:
 2543 0010 0446     		mov	r4, r0
 2544              	.LVL412:
1274:Source\bsw\FreeRTOS\src/mpu_wrappers.c **** 	vPortResetPrivilege( xRunningPrivileged );
ARM GAS  C:\Users\Reza\AppData\Local\Temp\cckOPwM0.s 			page 68


 2545              		.loc 1 1274 0
 2546 0012 2846     		mov	r0, r5
 2547              	.LVL413:
 2548 0014 FFF7FEFF 		bl	vPortResetPrivilege
 2549              	.LVL414:
1275:Source\bsw\FreeRTOS\src/mpu_wrappers.c **** 
1276:Source\bsw\FreeRTOS\src/mpu_wrappers.c **** 	return xReturn;
1277:Source\bsw\FreeRTOS\src/mpu_wrappers.c **** }
 2550              		.loc 1 1277 0
 2551 0018 2046     		mov	r0, r4
 2552 001a 38BD     		pop	{r3, r4, r5, pc}
 2553              		.cfi_endproc
 2554              	.LFE126:
 2555              		.size	MPU_xStreamBufferIsEmpty, .-MPU_xStreamBufferIsEmpty
 2556              		.section	.text.MPU_xStreamBufferReset,"ax",%progbits
 2557              		.align	2
 2558              		.global	MPU_xStreamBufferReset
 2559              		.thumb
 2560              		.thumb_func
 2561              		.type	MPU_xStreamBufferReset, %function
 2562              	MPU_xStreamBufferReset:
 2563              	.LFB127:
1278:Source\bsw\FreeRTOS\src/mpu_wrappers.c **** /*-----------------------------------------------------------*/
1279:Source\bsw\FreeRTOS\src/mpu_wrappers.c **** 
1280:Source\bsw\FreeRTOS\src/mpu_wrappers.c **** BaseType_t MPU_xStreamBufferReset( StreamBufferHandle_t xStreamBuffer ) /* FREERTOS_SYSTEM_CALL */
1281:Source\bsw\FreeRTOS\src/mpu_wrappers.c **** {
 2564              		.loc 1 1281 0
 2565              		.cfi_startproc
 2566              		@ args = 0, pretend = 0, frame = 0
 2567              		@ frame_needed = 0, uses_anonymous_args = 0
 2568              	.LVL415:
 2569 0000 38B5     		push	{r3, r4, r5, lr}
 2570              		.cfi_def_cfa_offset 16
 2571              		.cfi_offset 3, -16
 2572              		.cfi_offset 4, -12
 2573              		.cfi_offset 5, -8
 2574              		.cfi_offset 14, -4
 2575 0002 0446     		mov	r4, r0
1282:Source\bsw\FreeRTOS\src/mpu_wrappers.c **** BaseType_t xReturn;
1283:Source\bsw\FreeRTOS\src/mpu_wrappers.c **** BaseType_t xRunningPrivileged = xPortRaisePrivilege();
 2576              		.loc 1 1283 0
 2577 0004 FFF7FEFF 		bl	xPortRaisePrivilege
 2578              	.LVL416:
 2579 0008 0546     		mov	r5, r0
 2580              	.LVL417:
1284:Source\bsw\FreeRTOS\src/mpu_wrappers.c **** 
1285:Source\bsw\FreeRTOS\src/mpu_wrappers.c **** 	xReturn = xStreamBufferReset( xStreamBuffer );
 2581              		.loc 1 1285 0
 2582 000a 2046     		mov	r0, r4
 2583              	.LVL418:
 2584 000c FFF7FEFF 		bl	xStreamBufferReset
 2585              	.LVL419:
 2586 0010 0446     		mov	r4, r0
 2587              	.LVL420:
1286:Source\bsw\FreeRTOS\src/mpu_wrappers.c **** 	vPortResetPrivilege( xRunningPrivileged );
 2588              		.loc 1 1286 0
 2589 0012 2846     		mov	r0, r5
ARM GAS  C:\Users\Reza\AppData\Local\Temp\cckOPwM0.s 			page 69


 2590              	.LVL421:
 2591 0014 FFF7FEFF 		bl	vPortResetPrivilege
 2592              	.LVL422:
1287:Source\bsw\FreeRTOS\src/mpu_wrappers.c **** 
1288:Source\bsw\FreeRTOS\src/mpu_wrappers.c **** 	return xReturn;
1289:Source\bsw\FreeRTOS\src/mpu_wrappers.c **** }
 2593              		.loc 1 1289 0
 2594 0018 2046     		mov	r0, r4
 2595 001a 38BD     		pop	{r3, r4, r5, pc}
 2596              		.cfi_endproc
 2597              	.LFE127:
 2598              		.size	MPU_xStreamBufferReset, .-MPU_xStreamBufferReset
 2599              		.section	.text.MPU_xStreamBufferSpacesAvailable,"ax",%progbits
 2600              		.align	2
 2601              		.global	MPU_xStreamBufferSpacesAvailable
 2602              		.thumb
 2603              		.thumb_func
 2604              		.type	MPU_xStreamBufferSpacesAvailable, %function
 2605              	MPU_xStreamBufferSpacesAvailable:
 2606              	.LFB128:
1290:Source\bsw\FreeRTOS\src/mpu_wrappers.c **** /*-----------------------------------------------------------*/
1291:Source\bsw\FreeRTOS\src/mpu_wrappers.c **** 
1292:Source\bsw\FreeRTOS\src/mpu_wrappers.c **** size_t MPU_xStreamBufferSpacesAvailable( StreamBufferHandle_t xStreamBuffer ) /* FREERTOS_SYSTEM_CA
1293:Source\bsw\FreeRTOS\src/mpu_wrappers.c **** {
 2607              		.loc 1 1293 0
 2608              		.cfi_startproc
 2609              		@ args = 0, pretend = 0, frame = 0
 2610              		@ frame_needed = 0, uses_anonymous_args = 0
 2611              	.LVL423:
 2612 0000 38B5     		push	{r3, r4, r5, lr}
 2613              		.cfi_def_cfa_offset 16
 2614              		.cfi_offset 3, -16
 2615              		.cfi_offset 4, -12
 2616              		.cfi_offset 5, -8
 2617              		.cfi_offset 14, -4
 2618 0002 0446     		mov	r4, r0
1294:Source\bsw\FreeRTOS\src/mpu_wrappers.c **** size_t xReturn;
1295:Source\bsw\FreeRTOS\src/mpu_wrappers.c **** BaseType_t xRunningPrivileged = xPortRaisePrivilege();
 2619              		.loc 1 1295 0
 2620 0004 FFF7FEFF 		bl	xPortRaisePrivilege
 2621              	.LVL424:
 2622 0008 0546     		mov	r5, r0
 2623              	.LVL425:
1296:Source\bsw\FreeRTOS\src/mpu_wrappers.c **** 
1297:Source\bsw\FreeRTOS\src/mpu_wrappers.c **** 	xReturn = xStreamBufferSpacesAvailable( xStreamBuffer );
 2624              		.loc 1 1297 0
 2625 000a 2046     		mov	r0, r4
 2626              	.LVL426:
 2627 000c FFF7FEFF 		bl	xStreamBufferSpacesAvailable
 2628              	.LVL427:
 2629 0010 0446     		mov	r4, r0
 2630              	.LVL428:
1298:Source\bsw\FreeRTOS\src/mpu_wrappers.c **** 	vPortResetPrivilege( xRunningPrivileged );
 2631              		.loc 1 1298 0
 2632 0012 2846     		mov	r0, r5
 2633              	.LVL429:
 2634 0014 FFF7FEFF 		bl	vPortResetPrivilege
ARM GAS  C:\Users\Reza\AppData\Local\Temp\cckOPwM0.s 			page 70


 2635              	.LVL430:
1299:Source\bsw\FreeRTOS\src/mpu_wrappers.c **** 
1300:Source\bsw\FreeRTOS\src/mpu_wrappers.c **** 	return xReturn;
1301:Source\bsw\FreeRTOS\src/mpu_wrappers.c **** }
 2636              		.loc 1 1301 0
 2637 0018 2046     		mov	r0, r4
 2638 001a 38BD     		pop	{r3, r4, r5, pc}
 2639              		.cfi_endproc
 2640              	.LFE128:
 2641              		.size	MPU_xStreamBufferSpacesAvailable, .-MPU_xStreamBufferSpacesAvailable
 2642              		.section	.text.MPU_xStreamBufferBytesAvailable,"ax",%progbits
 2643              		.align	2
 2644              		.global	MPU_xStreamBufferBytesAvailable
 2645              		.thumb
 2646              		.thumb_func
 2647              		.type	MPU_xStreamBufferBytesAvailable, %function
 2648              	MPU_xStreamBufferBytesAvailable:
 2649              	.LFB129:
1302:Source\bsw\FreeRTOS\src/mpu_wrappers.c **** /*-----------------------------------------------------------*/
1303:Source\bsw\FreeRTOS\src/mpu_wrappers.c **** 
1304:Source\bsw\FreeRTOS\src/mpu_wrappers.c **** size_t MPU_xStreamBufferBytesAvailable( StreamBufferHandle_t xStreamBuffer ) /* FREERTOS_SYSTEM_CAL
1305:Source\bsw\FreeRTOS\src/mpu_wrappers.c **** {
 2650              		.loc 1 1305 0
 2651              		.cfi_startproc
 2652              		@ args = 0, pretend = 0, frame = 0
 2653              		@ frame_needed = 0, uses_anonymous_args = 0
 2654              	.LVL431:
 2655 0000 38B5     		push	{r3, r4, r5, lr}
 2656              		.cfi_def_cfa_offset 16
 2657              		.cfi_offset 3, -16
 2658              		.cfi_offset 4, -12
 2659              		.cfi_offset 5, -8
 2660              		.cfi_offset 14, -4
 2661 0002 0446     		mov	r4, r0
1306:Source\bsw\FreeRTOS\src/mpu_wrappers.c **** size_t xReturn;
1307:Source\bsw\FreeRTOS\src/mpu_wrappers.c **** BaseType_t xRunningPrivileged = xPortRaisePrivilege();
 2662              		.loc 1 1307 0
 2663 0004 FFF7FEFF 		bl	xPortRaisePrivilege
 2664              	.LVL432:
 2665 0008 0546     		mov	r5, r0
 2666              	.LVL433:
1308:Source\bsw\FreeRTOS\src/mpu_wrappers.c **** 
1309:Source\bsw\FreeRTOS\src/mpu_wrappers.c **** 	xReturn = xStreamBufferBytesAvailable( xStreamBuffer );
 2667              		.loc 1 1309 0
 2668 000a 2046     		mov	r0, r4
 2669              	.LVL434:
 2670 000c FFF7FEFF 		bl	xStreamBufferBytesAvailable
 2671              	.LVL435:
 2672 0010 0446     		mov	r4, r0
 2673              	.LVL436:
1310:Source\bsw\FreeRTOS\src/mpu_wrappers.c **** 	vPortResetPrivilege( xRunningPrivileged );
 2674              		.loc 1 1310 0
 2675 0012 2846     		mov	r0, r5
 2676              	.LVL437:
 2677 0014 FFF7FEFF 		bl	vPortResetPrivilege
 2678              	.LVL438:
1311:Source\bsw\FreeRTOS\src/mpu_wrappers.c **** 
ARM GAS  C:\Users\Reza\AppData\Local\Temp\cckOPwM0.s 			page 71


1312:Source\bsw\FreeRTOS\src/mpu_wrappers.c **** 	return xReturn;
1313:Source\bsw\FreeRTOS\src/mpu_wrappers.c **** }
 2679              		.loc 1 1313 0
 2680 0018 2046     		mov	r0, r4
 2681 001a 38BD     		pop	{r3, r4, r5, pc}
 2682              		.cfi_endproc
 2683              	.LFE129:
 2684              		.size	MPU_xStreamBufferBytesAvailable, .-MPU_xStreamBufferBytesAvailable
 2685              		.section	.text.MPU_xStreamBufferSetTriggerLevel,"ax",%progbits
 2686              		.align	2
 2687              		.global	MPU_xStreamBufferSetTriggerLevel
 2688              		.thumb
 2689              		.thumb_func
 2690              		.type	MPU_xStreamBufferSetTriggerLevel, %function
 2691              	MPU_xStreamBufferSetTriggerLevel:
 2692              	.LFB130:
1314:Source\bsw\FreeRTOS\src/mpu_wrappers.c **** /*-----------------------------------------------------------*/
1315:Source\bsw\FreeRTOS\src/mpu_wrappers.c **** 
1316:Source\bsw\FreeRTOS\src/mpu_wrappers.c **** BaseType_t MPU_xStreamBufferSetTriggerLevel( StreamBufferHandle_t xStreamBuffer, size_t xTriggerLev
1317:Source\bsw\FreeRTOS\src/mpu_wrappers.c **** {
 2693              		.loc 1 1317 0
 2694              		.cfi_startproc
 2695              		@ args = 0, pretend = 0, frame = 0
 2696              		@ frame_needed = 0, uses_anonymous_args = 0
 2697              	.LVL439:
 2698 0000 70B5     		push	{r4, r5, r6, lr}
 2699              		.cfi_def_cfa_offset 16
 2700              		.cfi_offset 4, -16
 2701              		.cfi_offset 5, -12
 2702              		.cfi_offset 6, -8
 2703              		.cfi_offset 14, -4
 2704 0002 0446     		mov	r4, r0
 2705 0004 0E46     		mov	r6, r1
1318:Source\bsw\FreeRTOS\src/mpu_wrappers.c **** BaseType_t xReturn;
1319:Source\bsw\FreeRTOS\src/mpu_wrappers.c **** BaseType_t xRunningPrivileged = xPortRaisePrivilege();
 2706              		.loc 1 1319 0
 2707 0006 FFF7FEFF 		bl	xPortRaisePrivilege
 2708              	.LVL440:
 2709 000a 0546     		mov	r5, r0
 2710              	.LVL441:
1320:Source\bsw\FreeRTOS\src/mpu_wrappers.c **** 
1321:Source\bsw\FreeRTOS\src/mpu_wrappers.c **** 	xReturn = xStreamBufferSetTriggerLevel( xStreamBuffer, xTriggerLevel );
 2711              		.loc 1 1321 0
 2712 000c 3146     		mov	r1, r6
 2713 000e 2046     		mov	r0, r4
 2714              	.LVL442:
 2715 0010 FFF7FEFF 		bl	xStreamBufferSetTriggerLevel
 2716              	.LVL443:
 2717 0014 0446     		mov	r4, r0
 2718              	.LVL444:
1322:Source\bsw\FreeRTOS\src/mpu_wrappers.c **** 	vPortResetPrivilege( xRunningPrivileged );
 2719              		.loc 1 1322 0
 2720 0016 2846     		mov	r0, r5
 2721              	.LVL445:
 2722 0018 FFF7FEFF 		bl	vPortResetPrivilege
 2723              	.LVL446:
1323:Source\bsw\FreeRTOS\src/mpu_wrappers.c **** 
ARM GAS  C:\Users\Reza\AppData\Local\Temp\cckOPwM0.s 			page 72


1324:Source\bsw\FreeRTOS\src/mpu_wrappers.c **** 	return xReturn;
1325:Source\bsw\FreeRTOS\src/mpu_wrappers.c **** }
 2724              		.loc 1 1325 0
 2725 001c 2046     		mov	r0, r4
 2726 001e 70BD     		pop	{r4, r5, r6, pc}
 2727              		.cfi_endproc
 2728              	.LFE130:
 2729              		.size	MPU_xStreamBufferSetTriggerLevel, .-MPU_xStreamBufferSetTriggerLevel
 2730              		.section	.text.MPU_xStreamBufferGenericCreate,"ax",%progbits
 2731              		.align	2
 2732              		.global	MPU_xStreamBufferGenericCreate
 2733              		.thumb
 2734              		.thumb_func
 2735              		.type	MPU_xStreamBufferGenericCreate, %function
 2736              	MPU_xStreamBufferGenericCreate:
 2737              	.LFB131:
1326:Source\bsw\FreeRTOS\src/mpu_wrappers.c **** /*-----------------------------------------------------------*/
1327:Source\bsw\FreeRTOS\src/mpu_wrappers.c **** 
1328:Source\bsw\FreeRTOS\src/mpu_wrappers.c **** #if( configSUPPORT_DYNAMIC_ALLOCATION == 1 )
1329:Source\bsw\FreeRTOS\src/mpu_wrappers.c **** 	StreamBufferHandle_t MPU_xStreamBufferGenericCreate( size_t xBufferSizeBytes, size_t xTriggerLevel
1330:Source\bsw\FreeRTOS\src/mpu_wrappers.c **** 	{
 2738              		.loc 1 1330 0
 2739              		.cfi_startproc
 2740              		@ args = 0, pretend = 0, frame = 0
 2741              		@ frame_needed = 0, uses_anonymous_args = 0
 2742              	.LVL447:
 2743 0000 F8B5     		push	{r3, r4, r5, r6, r7, lr}
 2744              		.cfi_def_cfa_offset 24
 2745              		.cfi_offset 3, -24
 2746              		.cfi_offset 4, -20
 2747              		.cfi_offset 5, -16
 2748              		.cfi_offset 6, -12
 2749              		.cfi_offset 7, -8
 2750              		.cfi_offset 14, -4
 2751 0002 0446     		mov	r4, r0
 2752 0004 0E46     		mov	r6, r1
 2753 0006 1746     		mov	r7, r2
1331:Source\bsw\FreeRTOS\src/mpu_wrappers.c **** 	StreamBufferHandle_t xReturn;
1332:Source\bsw\FreeRTOS\src/mpu_wrappers.c **** 	BaseType_t xRunningPrivileged = xPortRaisePrivilege();
 2754              		.loc 1 1332 0
 2755 0008 FFF7FEFF 		bl	xPortRaisePrivilege
 2756              	.LVL448:
 2757 000c 0546     		mov	r5, r0
 2758              	.LVL449:
1333:Source\bsw\FreeRTOS\src/mpu_wrappers.c **** 
1334:Source\bsw\FreeRTOS\src/mpu_wrappers.c **** 		xReturn = xStreamBufferGenericCreate( xBufferSizeBytes, xTriggerLevelBytes, xIsMessageBuffer );
 2759              		.loc 1 1334 0
 2760 000e 3A46     		mov	r2, r7
 2761 0010 3146     		mov	r1, r6
 2762 0012 2046     		mov	r0, r4
 2763              	.LVL450:
 2764 0014 FFF7FEFF 		bl	xStreamBufferGenericCreate
 2765              	.LVL451:
 2766 0018 0446     		mov	r4, r0
 2767              	.LVL452:
1335:Source\bsw\FreeRTOS\src/mpu_wrappers.c **** 		vPortResetPrivilege( xRunningPrivileged );
 2768              		.loc 1 1335 0
ARM GAS  C:\Users\Reza\AppData\Local\Temp\cckOPwM0.s 			page 73


 2769 001a 2846     		mov	r0, r5
 2770              	.LVL453:
 2771 001c FFF7FEFF 		bl	vPortResetPrivilege
 2772              	.LVL454:
1336:Source\bsw\FreeRTOS\src/mpu_wrappers.c **** 
1337:Source\bsw\FreeRTOS\src/mpu_wrappers.c **** 		return xReturn;
1338:Source\bsw\FreeRTOS\src/mpu_wrappers.c **** 	}
 2773              		.loc 1 1338 0
 2774 0020 2046     		mov	r0, r4
 2775 0022 F8BD     		pop	{r3, r4, r5, r6, r7, pc}
 2776              		.cfi_endproc
 2777              	.LFE131:
 2778              		.size	MPU_xStreamBufferGenericCreate, .-MPU_xStreamBufferGenericCreate
 2779              		.text
 2780              	.Letext0:
 2781              		.file 2 "c:\\program files (x86)\\cypress\\psoc creator\\4.2\\psoc creator\\import\\gnu\\arm\\5.4.
 2782              		.file 3 "c:\\program files (x86)\\cypress\\psoc creator\\4.2\\psoc creator\\import\\gnu\\arm\\5.4.
 2783              		.file 4 "c:\\program files (x86)\\cypress\\psoc creator\\4.2\\psoc creator\\import\\gnu\\arm\\5.4.
 2784              		.file 5 ".\\Source\\bsw\\FreeRTOS\\include/projdefs.h"
 2785              		.file 6 ".\\Source\\bsw\\FreeRTOS\\include/portmacro.h"
 2786              		.file 7 ".\\Source\\bsw\\FreeRTOS\\include/task.h"
 2787              		.file 8 ".\\Source\\bsw\\FreeRTOS\\include/queue.h"
 2788              		.file 9 ".\\Source\\bsw\\FreeRTOS\\include/event_groups.h"
 2789              		.file 10 ".\\Source\\bsw\\FreeRTOS\\include/stream_buffer.h"
 2790              		.file 11 ".\\Source\\bsw\\FreeRTOS\\include/portable.h"
 2791              		.file 12 "Generated_Source\\PSoC5/core_cm3.h"
 2792              		.section	.debug_info,"",%progbits
 2793              	.Ldebug_info0:
 2794 0000 8D260000 		.4byte	0x268d
 2795 0004 0400     		.2byte	0x4
 2796 0006 00000000 		.4byte	.Ldebug_abbrev0
 2797 000a 04       		.byte	0x4
 2798 000b 01       		.uleb128 0x1
 2799 000c 04030000 		.4byte	.LASF258
 2800 0010 0C       		.byte	0xc
 2801 0011 96040000 		.4byte	.LASF259
 2802 0015 C60B0000 		.4byte	.LASF260
 2803 0019 00000000 		.4byte	.Ldebug_ranges0+0
 2804 001d 00000000 		.4byte	0
 2805 0021 00000000 		.4byte	.Ldebug_line0
 2806 0025 02       		.uleb128 0x2
 2807 0026 04       		.byte	0x4
 2808 0027 05       		.byte	0x5
 2809 0028 696E7400 		.ascii	"int\000"
 2810 002c 03       		.uleb128 0x3
 2811 002d 1E000000 		.4byte	.LASF4
 2812 0031 02       		.byte	0x2
 2813 0032 D8       		.byte	0xd8
 2814 0033 37000000 		.4byte	0x37
 2815 0037 04       		.uleb128 0x4
 2816 0038 04       		.byte	0x4
 2817 0039 07       		.byte	0x7
 2818 003a 560B0000 		.4byte	.LASF0
 2819 003e 04       		.uleb128 0x4
 2820 003f 08       		.byte	0x8
 2821 0040 05       		.byte	0x5
 2822 0041 96090000 		.4byte	.LASF1
ARM GAS  C:\Users\Reza\AppData\Local\Temp\cckOPwM0.s 			page 74


 2823 0045 04       		.uleb128 0x4
 2824 0046 08       		.byte	0x8
 2825 0047 04       		.byte	0x4
 2826 0048 060D0000 		.4byte	.LASF2
 2827 004c 04       		.uleb128 0x4
 2828 004d 01       		.byte	0x1
 2829 004e 06       		.byte	0x6
 2830 004f 0E040000 		.4byte	.LASF3
 2831 0053 03       		.uleb128 0x3
 2832 0054 3B020000 		.4byte	.LASF5
 2833 0058 03       		.byte	0x3
 2834 0059 1D       		.byte	0x1d
 2835 005a 5E000000 		.4byte	0x5e
 2836 005e 04       		.uleb128 0x4
 2837 005f 01       		.byte	0x1
 2838 0060 08       		.byte	0x8
 2839 0061 77040000 		.4byte	.LASF6
 2840 0065 04       		.uleb128 0x4
 2841 0066 02       		.byte	0x2
 2842 0067 05       		.byte	0x5
 2843 0068 D80F0000 		.4byte	.LASF7
 2844 006c 03       		.uleb128 0x3
 2845 006d B3050000 		.4byte	.LASF8
 2846 0071 03       		.byte	0x3
 2847 0072 2B       		.byte	0x2b
 2848 0073 77000000 		.4byte	0x77
 2849 0077 04       		.uleb128 0x4
 2850 0078 02       		.byte	0x2
 2851 0079 07       		.byte	0x7
 2852 007a 38110000 		.4byte	.LASF9
 2853 007e 03       		.uleb128 0x3
 2854 007f 84110000 		.4byte	.LASF10
 2855 0083 03       		.byte	0x3
 2856 0084 3F       		.byte	0x3f
 2857 0085 89000000 		.4byte	0x89
 2858 0089 04       		.uleb128 0x4
 2859 008a 04       		.byte	0x4
 2860 008b 05       		.byte	0x5
 2861 008c 76020000 		.4byte	.LASF11
 2862 0090 03       		.uleb128 0x3
 2863 0091 79090000 		.4byte	.LASF12
 2864 0095 03       		.byte	0x3
 2865 0096 41       		.byte	0x41
 2866 0097 9B000000 		.4byte	0x9b
 2867 009b 04       		.uleb128 0x4
 2868 009c 04       		.byte	0x4
 2869 009d 07       		.byte	0x7
 2870 009e 12080000 		.4byte	.LASF13
 2871 00a2 04       		.uleb128 0x4
 2872 00a3 08       		.byte	0x8
 2873 00a4 07       		.byte	0x7
 2874 00a5 C30D0000 		.4byte	.LASF14
 2875 00a9 03       		.uleb128 0x3
 2876 00aa 25040000 		.4byte	.LASF15
 2877 00ae 04       		.byte	0x4
 2878 00af 18       		.byte	0x18
 2879 00b0 53000000 		.4byte	0x53
ARM GAS  C:\Users\Reza\AppData\Local\Temp\cckOPwM0.s 			page 75


 2880 00b4 03       		.uleb128 0x3
 2881 00b5 E20D0000 		.4byte	.LASF16
 2882 00b9 04       		.byte	0x4
 2883 00ba 24       		.byte	0x24
 2884 00bb 6C000000 		.4byte	0x6c
 2885 00bf 03       		.uleb128 0x3
 2886 00c0 DF000000 		.4byte	.LASF17
 2887 00c4 04       		.byte	0x4
 2888 00c5 2C       		.byte	0x2c
 2889 00c6 7E000000 		.4byte	0x7e
 2890 00ca 03       		.uleb128 0x3
 2891 00cb C8100000 		.4byte	.LASF18
 2892 00cf 04       		.byte	0x4
 2893 00d0 30       		.byte	0x30
 2894 00d1 90000000 		.4byte	0x90
 2895 00d5 04       		.uleb128 0x4
 2896 00d6 04       		.byte	0x4
 2897 00d7 04       		.byte	0x4
 2898 00d8 B90A0000 		.4byte	.LASF19
 2899 00dc 04       		.uleb128 0x4
 2900 00dd 08       		.byte	0x8
 2901 00de 04       		.byte	0x4
 2902 00df F4090000 		.4byte	.LASF20
 2903 00e3 04       		.uleb128 0x4
 2904 00e4 01       		.byte	0x1
 2905 00e5 08       		.byte	0x8
 2906 00e6 46050000 		.4byte	.LASF21
 2907 00ea 04       		.uleb128 0x4
 2908 00eb 04       		.byte	0x4
 2909 00ec 07       		.byte	0x7
 2910 00ed 25000000 		.4byte	.LASF22
 2911 00f1 05       		.uleb128 0x5
 2912 00f2 04       		.byte	0x4
 2913 00f3 06       		.uleb128 0x6
 2914 00f4 04       		.byte	0x4
 2915 00f5 E3000000 		.4byte	0xe3
 2916 00f9 06       		.uleb128 0x6
 2917 00fa 04       		.byte	0x4
 2918 00fb FF000000 		.4byte	0xff
 2919 00ff 07       		.uleb128 0x7
 2920 0100 E3000000 		.4byte	0xe3
 2921 0104 03       		.uleb128 0x3
 2922 0105 DC0A0000 		.4byte	.LASF23
 2923 0109 05       		.byte	0x5
 2924 010a 23       		.byte	0x23
 2925 010b 0F010000 		.4byte	0x10f
 2926 010f 06       		.uleb128 0x6
 2927 0110 04       		.byte	0x4
 2928 0111 15010000 		.4byte	0x115
 2929 0115 08       		.uleb128 0x8
 2930 0116 20010000 		.4byte	0x120
 2931 011a 09       		.uleb128 0x9
 2932 011b F1000000 		.4byte	0xf1
 2933 011f 00       		.byte	0
 2934 0120 03       		.uleb128 0x3
 2935 0121 0B110000 		.4byte	.LASF24
 2936 0125 06       		.byte	0x6
ARM GAS  C:\Users\Reza\AppData\Local\Temp\cckOPwM0.s 			page 76


 2937 0126 37       		.byte	0x37
 2938 0127 CA000000 		.4byte	0xca
 2939 012b 03       		.uleb128 0x3
 2940 012c 4B010000 		.4byte	.LASF25
 2941 0130 06       		.byte	0x6
 2942 0131 38       		.byte	0x38
 2943 0132 89000000 		.4byte	0x89
 2944 0136 03       		.uleb128 0x3
 2945 0137 040E0000 		.4byte	.LASF26
 2946 013b 06       		.byte	0x6
 2947 013c 39       		.byte	0x39
 2948 013d 9B000000 		.4byte	0x9b
 2949 0141 03       		.uleb128 0x3
 2950 0142 370E0000 		.4byte	.LASF27
 2951 0146 06       		.byte	0x6
 2952 0147 3F       		.byte	0x3f
 2953 0148 CA000000 		.4byte	0xca
 2954 014c 03       		.uleb128 0x3
 2955 014d 100C0000 		.4byte	.LASF28
 2956 0151 07       		.byte	0x7
 2957 0152 46       		.byte	0x46
 2958 0153 57010000 		.4byte	0x157
 2959 0157 06       		.uleb128 0x6
 2960 0158 04       		.byte	0x4
 2961 0159 5D010000 		.4byte	0x15d
 2962 015d 0A       		.uleb128 0xa
 2963 015e 560D0000 		.4byte	.LASF61
 2964 0162 0B       		.uleb128 0xb
 2965 0163 01       		.byte	0x1
 2966 0164 5E000000 		.4byte	0x5e
 2967 0168 07       		.byte	0x7
 2968 0169 50       		.byte	0x50
 2969 016a 93010000 		.4byte	0x193
 2970 016e 0C       		.uleb128 0xc
 2971 016f D30A0000 		.4byte	.LASF29
 2972 0173 00       		.byte	0
 2973 0174 0C       		.uleb128 0xc
 2974 0175 0B080000 		.4byte	.LASF30
 2975 0179 01       		.byte	0x1
 2976 017a 0C       		.uleb128 0xc
 2977 017b CA0C0000 		.4byte	.LASF31
 2978 017f 02       		.byte	0x2
 2979 0180 0C       		.uleb128 0xc
 2980 0181 1A040000 		.4byte	.LASF32
 2981 0185 03       		.byte	0x3
 2982 0186 0C       		.uleb128 0xc
 2983 0187 56010000 		.4byte	.LASF33
 2984 018b 04       		.byte	0x4
 2985 018c 0C       		.uleb128 0xc
 2986 018d 440F0000 		.4byte	.LASF34
 2987 0191 05       		.byte	0x5
 2988 0192 00       		.byte	0
 2989 0193 03       		.uleb128 0x3
 2990 0194 E7000000 		.4byte	.LASF35
 2991 0198 07       		.byte	0x7
 2992 0199 57       		.byte	0x57
 2993 019a 62010000 		.4byte	0x162
ARM GAS  C:\Users\Reza\AppData\Local\Temp\cckOPwM0.s 			page 77


 2994 019e 0B       		.uleb128 0xb
 2995 019f 01       		.byte	0x1
 2996 01a0 5E000000 		.4byte	0x5e
 2997 01a4 07       		.byte	0x7
 2998 01a5 5B       		.byte	0x5b
 2999 01a6 C9010000 		.4byte	0x1c9
 3000 01aa 0C       		.uleb128 0xc
 3001 01ab 8E110000 		.4byte	.LASF36
 3002 01af 00       		.byte	0
 3003 01b0 0C       		.uleb128 0xc
 3004 01b1 D2020000 		.4byte	.LASF37
 3005 01b5 01       		.byte	0x1
 3006 01b6 0C       		.uleb128 0xc
 3007 01b7 120D0000 		.4byte	.LASF38
 3008 01bb 02       		.byte	0x2
 3009 01bc 0C       		.uleb128 0xc
 3010 01bd 3F0D0000 		.4byte	.LASF39
 3011 01c1 03       		.byte	0x3
 3012 01c2 0C       		.uleb128 0xc
 3013 01c3 D2050000 		.4byte	.LASF40
 3014 01c7 04       		.byte	0x4
 3015 01c8 00       		.byte	0
 3016 01c9 03       		.uleb128 0x3
 3017 01ca E8100000 		.4byte	.LASF41
 3018 01ce 07       		.byte	0x7
 3019 01cf 61       		.byte	0x61
 3020 01d0 9E010000 		.4byte	0x19e
 3021 01d4 0D       		.uleb128 0xd
 3022 01d5 07010000 		.4byte	.LASF45
 3023 01d9 08       		.byte	0x8
 3024 01da 07       		.byte	0x7
 3025 01db 66       		.byte	0x66
 3026 01dc F9010000 		.4byte	0x1f9
 3027 01e0 0E       		.uleb128 0xe
 3028 01e1 DF070000 		.4byte	.LASF42
 3029 01e5 07       		.byte	0x7
 3030 01e6 68       		.byte	0x68
 3031 01e7 2B010000 		.4byte	0x12b
 3032 01eb 00       		.byte	0
 3033 01ec 0E       		.uleb128 0xe
 3034 01ed EF040000 		.4byte	.LASF43
 3035 01f1 07       		.byte	0x7
 3036 01f2 69       		.byte	0x69
 3037 01f3 41010000 		.4byte	0x141
 3038 01f7 04       		.byte	0x4
 3039 01f8 00       		.byte	0
 3040 01f9 03       		.uleb128 0x3
 3041 01fa 70050000 		.4byte	.LASF44
 3042 01fe 07       		.byte	0x7
 3043 01ff 6A       		.byte	0x6a
 3044 0200 D4010000 		.4byte	0x1d4
 3045 0204 0D       		.uleb128 0xd
 3046 0205 5E080000 		.4byte	.LASF46
 3047 0209 0C       		.byte	0xc
 3048 020a 07       		.byte	0x7
 3049 020b 6F       		.byte	0x6f
 3050 020c 35020000 		.4byte	0x235
ARM GAS  C:\Users\Reza\AppData\Local\Temp\cckOPwM0.s 			page 78


 3051 0210 0E       		.uleb128 0xe
 3052 0211 AE070000 		.4byte	.LASF47
 3053 0215 07       		.byte	0x7
 3054 0216 71       		.byte	0x71
 3055 0217 F1000000 		.4byte	0xf1
 3056 021b 00       		.byte	0
 3057 021c 0E       		.uleb128 0xe
 3058 021d 8E0A0000 		.4byte	.LASF48
 3059 0221 07       		.byte	0x7
 3060 0222 72       		.byte	0x72
 3061 0223 CA000000 		.4byte	0xca
 3062 0227 04       		.byte	0x4
 3063 0228 0E       		.uleb128 0xe
 3064 0229 98110000 		.4byte	.LASF49
 3065 022d 07       		.byte	0x7
 3066 022e 73       		.byte	0x73
 3067 022f CA000000 		.4byte	0xca
 3068 0233 08       		.byte	0x8
 3069 0234 00       		.byte	0
 3070 0235 03       		.uleb128 0x3
 3071 0236 D0000000 		.4byte	.LASF50
 3072 023a 07       		.byte	0x7
 3073 023b 74       		.byte	0x74
 3074 023c 04020000 		.4byte	0x204
 3075 0240 0D       		.uleb128 0xd
 3076 0241 B20D0000 		.4byte	.LASF51
 3077 0245 24       		.byte	0x24
 3078 0246 07       		.byte	0x7
 3079 0247 79       		.byte	0x79
 3080 0248 A1020000 		.4byte	0x2a1
 3081 024c 0E       		.uleb128 0xe
 3082 024d F70F0000 		.4byte	.LASF52
 3083 0251 07       		.byte	0x7
 3084 0252 7B       		.byte	0x7b
 3085 0253 04010000 		.4byte	0x104
 3086 0257 00       		.byte	0
 3087 0258 0E       		.uleb128 0xe
 3088 0259 DA030000 		.4byte	.LASF53
 3089 025d 07       		.byte	0x7
 3090 025e 7C       		.byte	0x7c
 3091 025f A1020000 		.4byte	0x2a1
 3092 0263 04       		.byte	0x4
 3093 0264 0E       		.uleb128 0xe
 3094 0265 87000000 		.4byte	.LASF54
 3095 0269 07       		.byte	0x7
 3096 026a 7D       		.byte	0x7d
 3097 026b B4000000 		.4byte	0xb4
 3098 026f 08       		.byte	0x8
 3099 0270 0E       		.uleb128 0xe
 3100 0271 B2100000 		.4byte	.LASF55
 3101 0275 07       		.byte	0x7
 3102 0276 7E       		.byte	0x7e
 3103 0277 F1000000 		.4byte	0xf1
 3104 027b 0C       		.byte	0xc
 3105 027c 0E       		.uleb128 0xe
 3106 027d 49120000 		.4byte	.LASF56
 3107 0281 07       		.byte	0x7
ARM GAS  C:\Users\Reza\AppData\Local\Temp\cckOPwM0.s 			page 79


 3108 0282 7F       		.byte	0x7f
 3109 0283 36010000 		.4byte	0x136
 3110 0287 10       		.byte	0x10
 3111 0288 0E       		.uleb128 0xe
 3112 0289 950F0000 		.4byte	.LASF57
 3113 028d 07       		.byte	0x7
 3114 028e 80       		.byte	0x80
 3115 028f A6020000 		.4byte	0x2a6
 3116 0293 14       		.byte	0x14
 3117 0294 0E       		.uleb128 0xe
 3118 0295 DF100000 		.4byte	.LASF58
 3119 0299 07       		.byte	0x7
 3120 029a 81       		.byte	0x81
 3121 029b AC020000 		.4byte	0x2ac
 3122 029f 18       		.byte	0x18
 3123 02a0 00       		.byte	0
 3124 02a1 07       		.uleb128 0x7
 3125 02a2 F9000000 		.4byte	0xf9
 3126 02a6 06       		.uleb128 0x6
 3127 02a7 04       		.byte	0x4
 3128 02a8 20010000 		.4byte	0x120
 3129 02ac 0F       		.uleb128 0xf
 3130 02ad 35020000 		.4byte	0x235
 3131 02b1 BC020000 		.4byte	0x2bc
 3132 02b5 10       		.uleb128 0x10
 3133 02b6 EA000000 		.4byte	0xea
 3134 02ba 00       		.byte	0
 3135 02bb 00       		.byte	0
 3136 02bc 03       		.uleb128 0x3
 3137 02bd 2D040000 		.4byte	.LASF59
 3138 02c1 07       		.byte	0x7
 3139 02c2 85       		.byte	0x85
 3140 02c3 40020000 		.4byte	0x240
 3141 02c7 03       		.uleb128 0x3
 3142 02c8 00040000 		.4byte	.LASF60
 3143 02cc 08       		.byte	0x8
 3144 02cd 30       		.byte	0x30
 3145 02ce D2020000 		.4byte	0x2d2
 3146 02d2 06       		.uleb128 0x6
 3147 02d3 04       		.byte	0x4
 3148 02d4 D8020000 		.4byte	0x2d8
 3149 02d8 0A       		.uleb128 0xa
 3150 02d9 9A020000 		.4byte	.LASF62
 3151 02dd 03       		.uleb128 0x3
 3152 02de 94000000 		.4byte	.LASF63
 3153 02e2 09       		.byte	0x9
 3154 02e3 52       		.byte	0x52
 3155 02e4 E8020000 		.4byte	0x2e8
 3156 02e8 06       		.uleb128 0x6
 3157 02e9 04       		.byte	0x4
 3158 02ea EE020000 		.4byte	0x2ee
 3159 02ee 0A       		.uleb128 0xa
 3160 02ef 52040000 		.4byte	.LASF64
 3161 02f3 03       		.uleb128 0x3
 3162 02f4 C3090000 		.4byte	.LASF65
 3163 02f8 09       		.byte	0x9
 3164 02f9 5C       		.byte	0x5c
ARM GAS  C:\Users\Reza\AppData\Local\Temp\cckOPwM0.s 			page 80


 3165 02fa 41010000 		.4byte	0x141
 3166 02fe 03       		.uleb128 0x3
 3167 02ff E20F0000 		.4byte	.LASF66
 3168 0303 0A       		.byte	0xa
 3169 0304 45       		.byte	0x45
 3170 0305 09030000 		.4byte	0x309
 3171 0309 06       		.uleb128 0x6
 3172 030a 04       		.byte	0x4
 3173 030b 0F030000 		.4byte	0x30f
 3174 030f 0A       		.uleb128 0xa
 3175 0310 17110000 		.4byte	.LASF67
 3176 0314 11       		.uleb128 0x11
 3177 0315 6C0B0000 		.4byte	.LASF71
 3178 0319 01       		.byte	0x1
 3179 031a 3F       		.byte	0x3f
 3180 031b 2B010000 		.4byte	0x12b
 3181 031f 00000000 		.4byte	.LFB68
 3182 0323 14000000 		.4byte	.LFE68-.LFB68
 3183 0327 01       		.uleb128 0x1
 3184 0328 9C       		.byte	0x9c
 3185 0329 7F030000 		.4byte	0x37f
 3186 032d 12       		.uleb128 0x12
 3187 032e C60E0000 		.4byte	.LASF73
 3188 0332 01       		.byte	0x1
 3189 0333 41       		.byte	0x41
 3190 0334 2B010000 		.4byte	0x12b
 3191 0338 00000000 		.4byte	.LLST0
 3192 033c 13       		.uleb128 0x13
 3193 033d 5E050000 		.4byte	.LASF68
 3194 0341 01       		.byte	0x1
 3195 0342 44       		.byte	0x44
 3196 0343 25000000 		.4byte	0x25
 3197 0347 4D030000 		.4byte	0x34d
 3198 034b 14       		.uleb128 0x14
 3199 034c 00       		.byte	0
 3200 034d 15       		.uleb128 0x15
 3201 034e 0C000000 		.4byte	.LBB2
 3202 0352 04000000 		.4byte	.LBE2-.LBB2
 3203 0356 75030000 		.4byte	0x375
 3204 035a 13       		.uleb128 0x13
 3205 035b 3E040000 		.4byte	.LASF69
 3206 035f 01       		.byte	0x1
 3207 0360 49       		.byte	0x49
 3208 0361 25000000 		.4byte	0x25
 3209 0365 6B030000 		.4byte	0x36b
 3210 0369 14       		.uleb128 0x14
 3211 036a 00       		.byte	0
 3212 036b 16       		.uleb128 0x16
 3213 036c 10000000 		.4byte	.LVL2
 3214 0370 8D230000 		.4byte	0x238d
 3215 0374 00       		.byte	0
 3216 0375 16       		.uleb128 0x16
 3217 0376 06000000 		.4byte	.LVL0
 3218 037a 98230000 		.4byte	0x2398
 3219 037e 00       		.byte	0
 3220 037f 17       		.uleb128 0x17
 3221 0380 BE050000 		.4byte	.LASF79
ARM GAS  C:\Users\Reza\AppData\Local\Temp\cckOPwM0.s 			page 81


 3222 0384 01       		.byte	0x1
 3223 0385 50       		.byte	0x50
 3224 0386 00000000 		.4byte	.LFB69
 3225 038a 0E000000 		.4byte	.LFE69-.LFB69
 3226 038e 01       		.uleb128 0x1
 3227 038f 9C       		.byte	0x9c
 3228 0390 C8030000 		.4byte	0x3c8
 3229 0394 18       		.uleb128 0x18
 3230 0395 C60E0000 		.4byte	.LASF73
 3231 0399 01       		.byte	0x1
 3232 039a 50       		.byte	0x50
 3233 039b 2B010000 		.4byte	0x12b
 3234 039f 1E000000 		.4byte	.LLST1
 3235 03a3 19       		.uleb128 0x19
 3236 03a4 06000000 		.4byte	.LBB3
 3237 03a8 08000000 		.4byte	.LBE3-.LBB3
 3238 03ac 13       		.uleb128 0x13
 3239 03ad 0B070000 		.4byte	.LASF70
 3240 03b1 01       		.byte	0x1
 3241 03b2 54       		.byte	0x54
 3242 03b3 25000000 		.4byte	0x25
 3243 03b7 BD030000 		.4byte	0x3bd
 3244 03bb 14       		.uleb128 0x14
 3245 03bc 00       		.byte	0
 3246 03bd 16       		.uleb128 0x16
 3247 03be 0A000000 		.4byte	.LVL4
 3248 03c2 A3230000 		.4byte	0x23a3
 3249 03c6 00       		.byte	0
 3250 03c7 00       		.byte	0
 3251 03c8 11       		.uleb128 0x11
 3252 03c9 800B0000 		.4byte	.LASF72
 3253 03cd 01       		.byte	0x1
 3254 03ce 5A       		.byte	0x5a
 3255 03cf 2B010000 		.4byte	0x12b
 3256 03d3 00000000 		.4byte	.LFB70
 3257 03d7 20000000 		.4byte	.LFE70-.LFB70
 3258 03db 01       		.uleb128 0x1
 3259 03dc 9C       		.byte	0x9c
 3260 03dd 62040000 		.4byte	0x462
 3261 03e1 18       		.uleb128 0x18
 3262 03e2 39080000 		.4byte	.LASF74
 3263 03e6 01       		.byte	0x1
 3264 03e7 5A       		.byte	0x5a
 3265 03e8 6D040000 		.4byte	0x46d
 3266 03ec 4A000000 		.4byte	.LLST2
 3267 03f0 18       		.uleb128 0x18
 3268 03f1 63070000 		.4byte	.LASF75
 3269 03f5 01       		.byte	0x1
 3270 03f6 5A       		.byte	0x5a
 3271 03f7 72040000 		.4byte	0x472
 3272 03fb 76000000 		.4byte	.LLST3
 3273 03ff 12       		.uleb128 0x12
 3274 0400 8E040000 		.4byte	.LASF76
 3275 0404 01       		.byte	0x1
 3276 0405 5C       		.byte	0x5c
 3277 0406 2B010000 		.4byte	0x12b
 3278 040a 94000000 		.4byte	.LLST4
ARM GAS  C:\Users\Reza\AppData\Local\Temp\cckOPwM0.s 			page 82


 3279 040e 12       		.uleb128 0x12
 3280 040f C60E0000 		.4byte	.LASF73
 3281 0413 01       		.byte	0x1
 3282 0414 5D       		.byte	0x5d
 3283 0415 2B010000 		.4byte	0x12b
 3284 0419 B2000000 		.4byte	.LLST5
 3285 041d 13       		.uleb128 0x13
 3286 041e 2F060000 		.4byte	.LASF77
 3287 0422 01       		.byte	0x1
 3288 0423 5F       		.byte	0x5f
 3289 0424 25000000 		.4byte	0x25
 3290 0428 2E040000 		.4byte	0x42e
 3291 042c 14       		.uleb128 0x14
 3292 042d 00       		.byte	0
 3293 042e 16       		.uleb128 0x16
 3294 042f 0A000000 		.4byte	.LVL7
 3295 0433 14030000 		.4byte	0x314
 3296 0437 1A       		.uleb128 0x1a
 3297 0438 14000000 		.4byte	.LVL10
 3298 043c AE230000 		.4byte	0x23ae
 3299 0440 51040000 		.4byte	0x451
 3300 0444 1B       		.uleb128 0x1b
 3301 0445 01       		.uleb128 0x1
 3302 0446 50       		.byte	0x50
 3303 0447 02       		.uleb128 0x2
 3304 0448 74       		.byte	0x74
 3305 0449 00       		.sleb128 0
 3306 044a 1B       		.uleb128 0x1b
 3307 044b 01       		.uleb128 0x1
 3308 044c 51       		.byte	0x51
 3309 044d 02       		.uleb128 0x2
 3310 044e 76       		.byte	0x76
 3311 044f 00       		.sleb128 0
 3312 0450 00       		.byte	0
 3313 0451 1C       		.uleb128 0x1c
 3314 0452 1C000000 		.4byte	.LVL13
 3315 0456 7F030000 		.4byte	0x37f
 3316 045a 1B       		.uleb128 0x1b
 3317 045b 01       		.uleb128 0x1
 3318 045c 50       		.byte	0x50
 3319 045d 02       		.uleb128 0x2
 3320 045e 75       		.byte	0x75
 3321 045f 00       		.sleb128 0
 3322 0460 00       		.byte	0
 3323 0461 00       		.byte	0
 3324 0462 06       		.uleb128 0x6
 3325 0463 04       		.byte	0x4
 3326 0464 68040000 		.4byte	0x468
 3327 0468 07       		.uleb128 0x7
 3328 0469 BC020000 		.4byte	0x2bc
 3329 046d 07       		.uleb128 0x7
 3330 046e 62040000 		.4byte	0x462
 3331 0472 06       		.uleb128 0x6
 3332 0473 04       		.byte	0x4
 3333 0474 4C010000 		.4byte	0x14c
 3334 0478 11       		.uleb128 0x11
 3335 0479 28120000 		.4byte	.LASF78
ARM GAS  C:\Users\Reza\AppData\Local\Temp\cckOPwM0.s 			page 83


 3336 047d 01       		.byte	0x1
 3337 047e 74       		.byte	0x74
 3338 047f 2B010000 		.4byte	0x12b
 3339 0483 00000000 		.4byte	.LFB71
 3340 0487 38000000 		.4byte	.LFE71-.LFB71
 3341 048b 01       		.uleb128 0x1
 3342 048c 9C       		.byte	0x9c
 3343 048d 57050000 		.4byte	0x557
 3344 0491 18       		.uleb128 0x18
 3345 0492 F70F0000 		.4byte	.LASF52
 3346 0496 01       		.byte	0x1
 3347 0497 74       		.byte	0x74
 3348 0498 04010000 		.4byte	0x104
 3349 049c D0000000 		.4byte	.LLST6
 3350 04a0 18       		.uleb128 0x18
 3351 04a1 DA030000 		.4byte	.LASF53
 3352 04a5 01       		.byte	0x1
 3353 04a6 74       		.byte	0x74
 3354 04a7 A1020000 		.4byte	0x2a1
 3355 04ab FC000000 		.4byte	.LLST7
 3356 04af 18       		.uleb128 0x18
 3357 04b0 87000000 		.4byte	.LASF54
 3358 04b4 01       		.byte	0x1
 3359 04b5 74       		.byte	0x74
 3360 04b6 B4000000 		.4byte	0xb4
 3361 04ba 1A010000 		.4byte	.LLST8
 3362 04be 18       		.uleb128 0x18
 3363 04bf B2100000 		.4byte	.LASF55
 3364 04c3 01       		.byte	0x1
 3365 04c4 74       		.byte	0x74
 3366 04c5 F1000000 		.4byte	0xf1
 3367 04c9 3B010000 		.4byte	.LLST9
 3368 04cd 1D       		.uleb128 0x1d
 3369 04ce 49120000 		.4byte	.LASF56
 3370 04d2 01       		.byte	0x1
 3371 04d3 74       		.byte	0x74
 3372 04d4 36010000 		.4byte	0x136
 3373 04d8 02       		.uleb128 0x2
 3374 04d9 91       		.byte	0x91
 3375 04da 00       		.sleb128 0
 3376 04db 1D       		.uleb128 0x1d
 3377 04dc 63070000 		.4byte	.LASF75
 3378 04e0 01       		.byte	0x1
 3379 04e1 74       		.byte	0x74
 3380 04e2 72040000 		.4byte	0x472
 3381 04e6 02       		.uleb128 0x2
 3382 04e7 91       		.byte	0x91
 3383 04e8 04       		.sleb128 4
 3384 04e9 12       		.uleb128 0x12
 3385 04ea 8E040000 		.4byte	.LASF76
 3386 04ee 01       		.byte	0x1
 3387 04ef 76       		.byte	0x76
 3388 04f0 2B010000 		.4byte	0x12b
 3389 04f4 59010000 		.4byte	.LLST10
 3390 04f8 12       		.uleb128 0x12
 3391 04f9 C60E0000 		.4byte	.LASF73
 3392 04fd 01       		.byte	0x1
ARM GAS  C:\Users\Reza\AppData\Local\Temp\cckOPwM0.s 			page 84


 3393 04fe 77       		.byte	0x77
 3394 04ff 2B010000 		.4byte	0x12b
 3395 0503 77010000 		.4byte	.LLST11
 3396 0507 16       		.uleb128 0x16
 3397 0508 12000000 		.4byte	.LVL15
 3398 050c 14030000 		.4byte	0x314
 3399 0510 1A       		.uleb128 0x1a
 3400 0511 28000000 		.4byte	.LVL18
 3401 0515 B9230000 		.4byte	0x23b9
 3402 0519 46050000 		.4byte	0x546
 3403 051d 1B       		.uleb128 0x1b
 3404 051e 01       		.uleb128 0x1
 3405 051f 50       		.byte	0x50
 3406 0520 02       		.uleb128 0x2
 3407 0521 74       		.byte	0x74
 3408 0522 00       		.sleb128 0
 3409 0523 1B       		.uleb128 0x1b
 3410 0524 01       		.uleb128 0x1
 3411 0525 51       		.byte	0x51
 3412 0526 02       		.uleb128 0x2
 3413 0527 76       		.byte	0x76
 3414 0528 00       		.sleb128 0
 3415 0529 1B       		.uleb128 0x1b
 3416 052a 01       		.uleb128 0x1
 3417 052b 52       		.byte	0x52
 3418 052c 02       		.uleb128 0x2
 3419 052d 77       		.byte	0x77
 3420 052e 00       		.sleb128 0
 3421 052f 1B       		.uleb128 0x1b
 3422 0530 01       		.uleb128 0x1
 3423 0531 53       		.byte	0x53
 3424 0532 02       		.uleb128 0x2
 3425 0533 78       		.byte	0x78
 3426 0534 00       		.sleb128 0
 3427 0535 1B       		.uleb128 0x1b
 3428 0536 02       		.uleb128 0x2
 3429 0537 7D       		.byte	0x7d
 3430 0538 00       		.sleb128 0
 3431 0539 03       		.uleb128 0x3
 3432 053a 91       		.byte	0x91
 3433 053b 00       		.sleb128 0
 3434 053c 06       		.byte	0x6
 3435 053d 1B       		.uleb128 0x1b
 3436 053e 02       		.uleb128 0x2
 3437 053f 7D       		.byte	0x7d
 3438 0540 04       		.sleb128 4
 3439 0541 03       		.uleb128 0x3
 3440 0542 91       		.byte	0x91
 3441 0543 04       		.sleb128 4
 3442 0544 06       		.byte	0x6
 3443 0545 00       		.byte	0
 3444 0546 1C       		.uleb128 0x1c
 3445 0547 30000000 		.4byte	.LVL21
 3446 054b 7F030000 		.4byte	0x37f
 3447 054f 1B       		.uleb128 0x1b
 3448 0550 01       		.uleb128 0x1
 3449 0551 50       		.byte	0x50
ARM GAS  C:\Users\Reza\AppData\Local\Temp\cckOPwM0.s 			page 85


 3450 0552 02       		.uleb128 0x2
 3451 0553 75       		.byte	0x75
 3452 0554 00       		.sleb128 0
 3453 0555 00       		.byte	0
 3454 0556 00       		.byte	0
 3455 0557 17       		.uleb128 0x17
 3456 0558 480A0000 		.4byte	.LASF80
 3457 055c 01       		.byte	0x1
 3458 055d 8D       		.byte	0x8d
 3459 055e 00000000 		.4byte	.LFB72
 3460 0562 1C000000 		.4byte	.LFE72-.LFB72
 3461 0566 01       		.uleb128 0x1
 3462 0567 9C       		.byte	0x9c
 3463 0568 CD050000 		.4byte	0x5cd
 3464 056c 18       		.uleb128 0x18
 3465 056d C3010000 		.4byte	.LASF81
 3466 0571 01       		.byte	0x1
 3467 0572 8D       		.byte	0x8d
 3468 0573 4C010000 		.4byte	0x14c
 3469 0577 95010000 		.4byte	.LLST12
 3470 057b 18       		.uleb128 0x18
 3471 057c DF100000 		.4byte	.LASF58
 3472 0580 01       		.byte	0x1
 3473 0581 8D       		.byte	0x8d
 3474 0582 D8050000 		.4byte	0x5d8
 3475 0586 B3010000 		.4byte	.LLST13
 3476 058a 12       		.uleb128 0x12
 3477 058b C60E0000 		.4byte	.LASF73
 3478 058f 01       		.byte	0x1
 3479 0590 8F       		.byte	0x8f
 3480 0591 2B010000 		.4byte	0x12b
 3481 0595 D1010000 		.4byte	.LLST14
 3482 0599 16       		.uleb128 0x16
 3483 059a 0A000000 		.4byte	.LVL23
 3484 059e 14030000 		.4byte	0x314
 3485 05a2 1A       		.uleb128 0x1a
 3486 05a3 14000000 		.4byte	.LVL26
 3487 05a7 C5230000 		.4byte	0x23c5
 3488 05ab BC050000 		.4byte	0x5bc
 3489 05af 1B       		.uleb128 0x1b
 3490 05b0 01       		.uleb128 0x1
 3491 05b1 50       		.byte	0x50
 3492 05b2 02       		.uleb128 0x2
 3493 05b3 75       		.byte	0x75
 3494 05b4 00       		.sleb128 0
 3495 05b5 1B       		.uleb128 0x1b
 3496 05b6 01       		.uleb128 0x1
 3497 05b7 51       		.byte	0x51
 3498 05b8 02       		.uleb128 0x2
 3499 05b9 76       		.byte	0x76
 3500 05ba 00       		.sleb128 0
 3501 05bb 00       		.byte	0
 3502 05bc 1C       		.uleb128 0x1c
 3503 05bd 1A000000 		.4byte	.LVL27
 3504 05c1 7F030000 		.4byte	0x37f
 3505 05c5 1B       		.uleb128 0x1b
 3506 05c6 01       		.uleb128 0x1
ARM GAS  C:\Users\Reza\AppData\Local\Temp\cckOPwM0.s 			page 86


 3507 05c7 50       		.byte	0x50
 3508 05c8 02       		.uleb128 0x2
 3509 05c9 74       		.byte	0x74
 3510 05ca 00       		.sleb128 0
 3511 05cb 00       		.byte	0
 3512 05cc 00       		.byte	0
 3513 05cd 06       		.uleb128 0x6
 3514 05ce 04       		.byte	0x4
 3515 05cf D3050000 		.4byte	0x5d3
 3516 05d3 07       		.uleb128 0x7
 3517 05d4 35020000 		.4byte	0x235
 3518 05d8 07       		.uleb128 0x7
 3519 05d9 CD050000 		.4byte	0x5cd
 3520 05dd 17       		.uleb128 0x17
 3521 05de 00000000 		.4byte	.LASF82
 3522 05e2 01       		.byte	0x1
 3523 05e3 97       		.byte	0x97
 3524 05e4 00000000 		.4byte	.LFB73
 3525 05e8 18000000 		.4byte	.LFE73-.LFB73
 3526 05ec 01       		.uleb128 0x1
 3527 05ed 9C       		.byte	0x9c
 3528 05ee 3E060000 		.4byte	0x63e
 3529 05f2 18       		.uleb128 0x18
 3530 05f3 AA020000 		.4byte	.LASF83
 3531 05f7 01       		.byte	0x1
 3532 05f8 97       		.byte	0x97
 3533 05f9 4C010000 		.4byte	0x14c
 3534 05fd EF010000 		.4byte	.LLST15
 3535 0601 12       		.uleb128 0x12
 3536 0602 C60E0000 		.4byte	.LASF73
 3537 0606 01       		.byte	0x1
 3538 0607 99       		.byte	0x99
 3539 0608 2B010000 		.4byte	0x12b
 3540 060c 0D020000 		.4byte	.LLST16
 3541 0610 16       		.uleb128 0x16
 3542 0611 08000000 		.4byte	.LVL29
 3543 0615 14030000 		.4byte	0x314
 3544 0619 1A       		.uleb128 0x1a
 3545 061a 10000000 		.4byte	.LVL32
 3546 061e D1230000 		.4byte	0x23d1
 3547 0622 2D060000 		.4byte	0x62d
 3548 0626 1B       		.uleb128 0x1b
 3549 0627 01       		.uleb128 0x1
 3550 0628 50       		.byte	0x50
 3551 0629 02       		.uleb128 0x2
 3552 062a 75       		.byte	0x75
 3553 062b 00       		.sleb128 0
 3554 062c 00       		.byte	0
 3555 062d 1C       		.uleb128 0x1c
 3556 062e 16000000 		.4byte	.LVL33
 3557 0632 7F030000 		.4byte	0x37f
 3558 0636 1B       		.uleb128 0x1b
 3559 0637 01       		.uleb128 0x1
 3560 0638 50       		.byte	0x50
 3561 0639 02       		.uleb128 0x2
 3562 063a 74       		.byte	0x74
 3563 063b 00       		.sleb128 0
ARM GAS  C:\Users\Reza\AppData\Local\Temp\cckOPwM0.s 			page 87


 3564 063c 00       		.byte	0
 3565 063d 00       		.byte	0
 3566 063e 17       		.uleb128 0x17
 3567 063f 8C100000 		.4byte	.LASF84
 3568 0643 01       		.byte	0x1
 3569 0644 A2       		.byte	0xa2
 3570 0645 00000000 		.4byte	.LFB74
 3571 0649 1C000000 		.4byte	.LFE74-.LFB74
 3572 064d 01       		.uleb128 0x1
 3573 064e 9C       		.byte	0x9c
 3574 064f B4060000 		.4byte	0x6b4
 3575 0653 18       		.uleb128 0x18
 3576 0654 860E0000 		.4byte	.LASF85
 3577 0658 01       		.byte	0x1
 3578 0659 A2       		.byte	0xa2
 3579 065a BA060000 		.4byte	0x6ba
 3580 065e 2B020000 		.4byte	.LLST17
 3581 0662 18       		.uleb128 0x18
 3582 0663 6A0D0000 		.4byte	.LASF86
 3583 0667 01       		.byte	0x1
 3584 0668 A2       		.byte	0xa2
 3585 0669 41010000 		.4byte	0x141
 3586 066d 49020000 		.4byte	.LLST18
 3587 0671 12       		.uleb128 0x12
 3588 0672 C60E0000 		.4byte	.LASF73
 3589 0676 01       		.byte	0x1
 3590 0677 A4       		.byte	0xa4
 3591 0678 2B010000 		.4byte	0x12b
 3592 067c 67020000 		.4byte	.LLST19
 3593 0680 16       		.uleb128 0x16
 3594 0681 0A000000 		.4byte	.LVL35
 3595 0685 14030000 		.4byte	0x314
 3596 0689 1A       		.uleb128 0x1a
 3597 068a 14000000 		.4byte	.LVL38
 3598 068e DD230000 		.4byte	0x23dd
 3599 0692 A3060000 		.4byte	0x6a3
 3600 0696 1B       		.uleb128 0x1b
 3601 0697 01       		.uleb128 0x1
 3602 0698 50       		.byte	0x50
 3603 0699 02       		.uleb128 0x2
 3604 069a 75       		.byte	0x75
 3605 069b 00       		.sleb128 0
 3606 069c 1B       		.uleb128 0x1b
 3607 069d 01       		.uleb128 0x1
 3608 069e 51       		.byte	0x51
 3609 069f 02       		.uleb128 0x2
 3610 06a0 76       		.byte	0x76
 3611 06a1 00       		.sleb128 0
 3612 06a2 00       		.byte	0
 3613 06a3 1C       		.uleb128 0x1c
 3614 06a4 1A000000 		.4byte	.LVL39
 3615 06a8 7F030000 		.4byte	0x37f
 3616 06ac 1B       		.uleb128 0x1b
 3617 06ad 01       		.uleb128 0x1
 3618 06ae 50       		.byte	0x50
 3619 06af 02       		.uleb128 0x2
 3620 06b0 74       		.byte	0x74
ARM GAS  C:\Users\Reza\AppData\Local\Temp\cckOPwM0.s 			page 88


 3621 06b1 00       		.sleb128 0
 3622 06b2 00       		.byte	0
 3623 06b3 00       		.byte	0
 3624 06b4 06       		.uleb128 0x6
 3625 06b5 04       		.byte	0x4
 3626 06b6 41010000 		.4byte	0x141
 3627 06ba 07       		.uleb128 0x7
 3628 06bb B4060000 		.4byte	0x6b4
 3629 06bf 17       		.uleb128 0x17
 3630 06c0 75010000 		.4byte	.LASF87
 3631 06c4 01       		.byte	0x1
 3632 06c5 BA       		.byte	0xba
 3633 06c6 00000000 		.4byte	.LFB75
 3634 06ca 18000000 		.4byte	.LFE75-.LFB75
 3635 06ce 01       		.uleb128 0x1
 3636 06cf 9C       		.byte	0x9c
 3637 06d0 20070000 		.4byte	0x720
 3638 06d4 18       		.uleb128 0x18
 3639 06d5 B7000000 		.4byte	.LASF88
 3640 06d9 01       		.byte	0x1
 3641 06da BA       		.byte	0xba
 3642 06db 41010000 		.4byte	0x141
 3643 06df 85020000 		.4byte	.LLST20
 3644 06e3 12       		.uleb128 0x12
 3645 06e4 C60E0000 		.4byte	.LASF73
 3646 06e8 01       		.byte	0x1
 3647 06e9 BC       		.byte	0xbc
 3648 06ea 2B010000 		.4byte	0x12b
 3649 06ee A3020000 		.4byte	.LLST21
 3650 06f2 16       		.uleb128 0x16
 3651 06f3 08000000 		.4byte	.LVL41
 3652 06f7 14030000 		.4byte	0x314
 3653 06fb 1A       		.uleb128 0x1a
 3654 06fc 10000000 		.4byte	.LVL44
 3655 0700 E9230000 		.4byte	0x23e9
 3656 0704 0F070000 		.4byte	0x70f
 3657 0708 1B       		.uleb128 0x1b
 3658 0709 01       		.uleb128 0x1
 3659 070a 50       		.byte	0x50
 3660 070b 02       		.uleb128 0x2
 3661 070c 75       		.byte	0x75
 3662 070d 00       		.sleb128 0
 3663 070e 00       		.byte	0
 3664 070f 1C       		.uleb128 0x1c
 3665 0710 16000000 		.4byte	.LVL45
 3666 0714 7F030000 		.4byte	0x37f
 3667 0718 1B       		.uleb128 0x1b
 3668 0719 01       		.uleb128 0x1
 3669 071a 50       		.byte	0x50
 3670 071b 02       		.uleb128 0x2
 3671 071c 74       		.byte	0x74
 3672 071d 00       		.sleb128 0
 3673 071e 00       		.byte	0
 3674 071f 00       		.byte	0
 3675 0720 11       		.uleb128 0x11
 3676 0721 5F010000 		.4byte	.LASF89
 3677 0725 01       		.byte	0x1
ARM GAS  C:\Users\Reza\AppData\Local\Temp\cckOPwM0.s 			page 89


 3678 0726 C5       		.byte	0xc5
 3679 0727 36010000 		.4byte	0x136
 3680 072b 00000000 		.4byte	.LFB76
 3681 072f 1C000000 		.4byte	.LFE76-.LFB76
 3682 0733 01       		.uleb128 0x1
 3683 0734 9C       		.byte	0x9c
 3684 0735 94070000 		.4byte	0x794
 3685 0739 18       		.uleb128 0x18
 3686 073a CB020000 		.4byte	.LASF90
 3687 073e 01       		.byte	0x1
 3688 073f C5       		.byte	0xc5
 3689 0740 94070000 		.4byte	0x794
 3690 0744 C1020000 		.4byte	.LLST22
 3691 0748 12       		.uleb128 0x12
 3692 0749 C9010000 		.4byte	.LASF91
 3693 074d 01       		.byte	0x1
 3694 074e C7       		.byte	0xc7
 3695 074f 36010000 		.4byte	0x136
 3696 0753 ED020000 		.4byte	.LLST23
 3697 0757 12       		.uleb128 0x12
 3698 0758 C60E0000 		.4byte	.LASF73
 3699 075c 01       		.byte	0x1
 3700 075d C8       		.byte	0xc8
 3701 075e 2B010000 		.4byte	0x12b
 3702 0762 0B030000 		.4byte	.LLST24
 3703 0766 16       		.uleb128 0x16
 3704 0767 08000000 		.4byte	.LVL47
 3705 076b 14030000 		.4byte	0x314
 3706 076f 1A       		.uleb128 0x1a
 3707 0770 10000000 		.4byte	.LVL50
 3708 0774 F5230000 		.4byte	0x23f5
 3709 0778 83070000 		.4byte	0x783
 3710 077c 1B       		.uleb128 0x1b
 3711 077d 01       		.uleb128 0x1
 3712 077e 50       		.byte	0x50
 3713 077f 02       		.uleb128 0x2
 3714 0780 74       		.byte	0x74
 3715 0781 00       		.sleb128 0
 3716 0782 00       		.byte	0
 3717 0783 1C       		.uleb128 0x1c
 3718 0784 18000000 		.4byte	.LVL53
 3719 0788 7F030000 		.4byte	0x37f
 3720 078c 1B       		.uleb128 0x1b
 3721 078d 01       		.uleb128 0x1
 3722 078e 50       		.byte	0x50
 3723 078f 02       		.uleb128 0x2
 3724 0790 75       		.byte	0x75
 3725 0791 00       		.sleb128 0
 3726 0792 00       		.byte	0
 3727 0793 00       		.byte	0
 3728 0794 07       		.uleb128 0x7
 3729 0795 4C010000 		.4byte	0x14c
 3730 0799 17       		.uleb128 0x17
 3731 079a 800F0000 		.4byte	.LASF92
 3732 079e 01       		.byte	0x1
 3733 079f D2       		.byte	0xd2
 3734 07a0 00000000 		.4byte	.LFB77
ARM GAS  C:\Users\Reza\AppData\Local\Temp\cckOPwM0.s 			page 90


 3735 07a4 1C000000 		.4byte	.LFE77-.LFB77
 3736 07a8 01       		.uleb128 0x1
 3737 07a9 9C       		.byte	0x9c
 3738 07aa 0F080000 		.4byte	0x80f
 3739 07ae 18       		.uleb128 0x18
 3740 07af CB020000 		.4byte	.LASF90
 3741 07b3 01       		.byte	0x1
 3742 07b4 D2       		.byte	0xd2
 3743 07b5 4C010000 		.4byte	0x14c
 3744 07b9 29030000 		.4byte	.LLST25
 3745 07bd 18       		.uleb128 0x18
 3746 07be 02100000 		.4byte	.LASF93
 3747 07c2 01       		.byte	0x1
 3748 07c3 D2       		.byte	0xd2
 3749 07c4 36010000 		.4byte	0x136
 3750 07c8 47030000 		.4byte	.LLST26
 3751 07cc 12       		.uleb128 0x12
 3752 07cd C60E0000 		.4byte	.LASF73
 3753 07d1 01       		.byte	0x1
 3754 07d2 D4       		.byte	0xd4
 3755 07d3 2B010000 		.4byte	0x12b
 3756 07d7 65030000 		.4byte	.LLST27
 3757 07db 16       		.uleb128 0x16
 3758 07dc 0A000000 		.4byte	.LVL55
 3759 07e0 14030000 		.4byte	0x314
 3760 07e4 1A       		.uleb128 0x1a
 3761 07e5 14000000 		.4byte	.LVL58
 3762 07e9 01240000 		.4byte	0x2401
 3763 07ed FE070000 		.4byte	0x7fe
 3764 07f1 1B       		.uleb128 0x1b
 3765 07f2 01       		.uleb128 0x1
 3766 07f3 50       		.byte	0x50
 3767 07f4 02       		.uleb128 0x2
 3768 07f5 75       		.byte	0x75
 3769 07f6 00       		.sleb128 0
 3770 07f7 1B       		.uleb128 0x1b
 3771 07f8 01       		.uleb128 0x1
 3772 07f9 51       		.byte	0x51
 3773 07fa 02       		.uleb128 0x2
 3774 07fb 76       		.byte	0x76
 3775 07fc 00       		.sleb128 0
 3776 07fd 00       		.byte	0
 3777 07fe 1C       		.uleb128 0x1c
 3778 07ff 1A000000 		.4byte	.LVL59
 3779 0803 7F030000 		.4byte	0x37f
 3780 0807 1B       		.uleb128 0x1b
 3781 0808 01       		.uleb128 0x1
 3782 0809 50       		.byte	0x50
 3783 080a 02       		.uleb128 0x2
 3784 080b 74       		.byte	0x74
 3785 080c 00       		.sleb128 0
 3786 080d 00       		.byte	0
 3787 080e 00       		.byte	0
 3788 080f 11       		.uleb128 0x11
 3789 0810 84090000 		.4byte	.LASF94
 3790 0814 01       		.byte	0x1
 3791 0815 DD       		.byte	0xdd
ARM GAS  C:\Users\Reza\AppData\Local\Temp\cckOPwM0.s 			page 91


 3792 0816 93010000 		.4byte	0x193
 3793 081a 00000000 		.4byte	.LFB78
 3794 081e 1C000000 		.4byte	.LFE78-.LFB78
 3795 0822 01       		.uleb128 0x1
 3796 0823 9C       		.byte	0x9c
 3797 0824 81080000 		.4byte	0x881
 3798 0828 18       		.uleb128 0x18
 3799 0829 CB020000 		.4byte	.LASF90
 3800 082d 01       		.byte	0x1
 3801 082e DD       		.byte	0xdd
 3802 082f 4C010000 		.4byte	0x14c
 3803 0833 83030000 		.4byte	.LLST28
 3804 0837 12       		.uleb128 0x12
 3805 0838 C60E0000 		.4byte	.LASF73
 3806 083c 01       		.byte	0x1
 3807 083d DF       		.byte	0xdf
 3808 083e 2B010000 		.4byte	0x12b
 3809 0842 AF030000 		.4byte	.LLST29
 3810 0846 1E       		.uleb128 0x1e
 3811 0847 A5110000 		.4byte	.LASF95
 3812 084b 01       		.byte	0x1
 3813 084c E0       		.byte	0xe0
 3814 084d 93010000 		.4byte	0x193
 3815 0851 01       		.uleb128 0x1
 3816 0852 54       		.byte	0x54
 3817 0853 16       		.uleb128 0x16
 3818 0854 08000000 		.4byte	.LVL61
 3819 0858 14030000 		.4byte	0x314
 3820 085c 1A       		.uleb128 0x1a
 3821 085d 10000000 		.4byte	.LVL64
 3822 0861 0D240000 		.4byte	0x240d
 3823 0865 70080000 		.4byte	0x870
 3824 0869 1B       		.uleb128 0x1b
 3825 086a 01       		.uleb128 0x1
 3826 086b 50       		.byte	0x50
 3827 086c 02       		.uleb128 0x2
 3828 086d 74       		.byte	0x74
 3829 086e 00       		.sleb128 0
 3830 086f 00       		.byte	0
 3831 0870 1C       		.uleb128 0x1c
 3832 0871 18000000 		.4byte	.LVL66
 3833 0875 7F030000 		.4byte	0x37f
 3834 0879 1B       		.uleb128 0x1b
 3835 087a 01       		.uleb128 0x1
 3836 087b 50       		.byte	0x50
 3837 087c 02       		.uleb128 0x2
 3838 087d 75       		.byte	0x75
 3839 087e 00       		.sleb128 0
 3840 087f 00       		.byte	0
 3841 0880 00       		.byte	0
 3842 0881 1F       		.uleb128 0x1f
 3843 0882 27010000 		.4byte	.LASF96
 3844 0886 01       		.byte	0x1
 3845 0887 0201     		.2byte	0x102
 3846 0889 00000000 		.4byte	.LFB79
 3847 088d 18000000 		.4byte	.LFE79-.LFB79
 3848 0891 01       		.uleb128 0x1
ARM GAS  C:\Users\Reza\AppData\Local\Temp\cckOPwM0.s 			page 92


 3849 0892 9C       		.byte	0x9c
 3850 0893 E5080000 		.4byte	0x8e5
 3851 0897 20       		.uleb128 0x20
 3852 0898 DF040000 		.4byte	.LASF97
 3853 089c 01       		.byte	0x1
 3854 089d 0201     		.2byte	0x102
 3855 089f 4C010000 		.4byte	0x14c
 3856 08a3 CD030000 		.4byte	.LLST30
 3857 08a7 21       		.uleb128 0x21
 3858 08a8 C60E0000 		.4byte	.LASF73
 3859 08ac 01       		.byte	0x1
 3860 08ad 0401     		.2byte	0x104
 3861 08af 2B010000 		.4byte	0x12b
 3862 08b3 EB030000 		.4byte	.LLST31
 3863 08b7 16       		.uleb128 0x16
 3864 08b8 08000000 		.4byte	.LVL68
 3865 08bc 14030000 		.4byte	0x314
 3866 08c0 1A       		.uleb128 0x1a
 3867 08c1 10000000 		.4byte	.LVL71
 3868 08c5 19240000 		.4byte	0x2419
 3869 08c9 D4080000 		.4byte	0x8d4
 3870 08cd 1B       		.uleb128 0x1b
 3871 08ce 01       		.uleb128 0x1
 3872 08cf 50       		.byte	0x50
 3873 08d0 02       		.uleb128 0x2
 3874 08d1 75       		.byte	0x75
 3875 08d2 00       		.sleb128 0
 3876 08d3 00       		.byte	0
 3877 08d4 1C       		.uleb128 0x1c
 3878 08d5 16000000 		.4byte	.LVL72
 3879 08d9 7F030000 		.4byte	0x37f
 3880 08dd 1B       		.uleb128 0x1b
 3881 08de 01       		.uleb128 0x1
 3882 08df 50       		.byte	0x50
 3883 08e0 02       		.uleb128 0x2
 3884 08e1 74       		.byte	0x74
 3885 08e2 00       		.sleb128 0
 3886 08e3 00       		.byte	0
 3887 08e4 00       		.byte	0
 3888 08e5 1F       		.uleb128 0x1f
 3889 08e6 B5080000 		.4byte	.LASF98
 3890 08ea 01       		.byte	0x1
 3891 08eb 0D01     		.2byte	0x10d
 3892 08ed 00000000 		.4byte	.LFB80
 3893 08f1 18000000 		.4byte	.LFE80-.LFB80
 3894 08f5 01       		.uleb128 0x1
 3895 08f6 9C       		.byte	0x9c
 3896 08f7 49090000 		.4byte	0x949
 3897 08fb 20       		.uleb128 0x20
 3898 08fc 29110000 		.4byte	.LASF99
 3899 0900 01       		.byte	0x1
 3900 0901 0D01     		.2byte	0x10d
 3901 0903 4C010000 		.4byte	0x14c
 3902 0907 09040000 		.4byte	.LLST32
 3903 090b 21       		.uleb128 0x21
 3904 090c C60E0000 		.4byte	.LASF73
 3905 0910 01       		.byte	0x1
ARM GAS  C:\Users\Reza\AppData\Local\Temp\cckOPwM0.s 			page 93


 3906 0911 0F01     		.2byte	0x10f
 3907 0913 2B010000 		.4byte	0x12b
 3908 0917 27040000 		.4byte	.LLST33
 3909 091b 16       		.uleb128 0x16
 3910 091c 08000000 		.4byte	.LVL74
 3911 0920 14030000 		.4byte	0x314
 3912 0924 1A       		.uleb128 0x1a
 3913 0925 10000000 		.4byte	.LVL77
 3914 0929 25240000 		.4byte	0x2425
 3915 092d 38090000 		.4byte	0x938
 3916 0931 1B       		.uleb128 0x1b
 3917 0932 01       		.uleb128 0x1
 3918 0933 50       		.byte	0x50
 3919 0934 02       		.uleb128 0x2
 3920 0935 75       		.byte	0x75
 3921 0936 00       		.sleb128 0
 3922 0937 00       		.byte	0
 3923 0938 1C       		.uleb128 0x1c
 3924 0939 16000000 		.4byte	.LVL78
 3925 093d 7F030000 		.4byte	0x37f
 3926 0941 1B       		.uleb128 0x1b
 3927 0942 01       		.uleb128 0x1
 3928 0943 50       		.byte	0x50
 3929 0944 02       		.uleb128 0x2
 3930 0945 74       		.byte	0x74
 3931 0946 00       		.sleb128 0
 3932 0947 00       		.byte	0
 3933 0948 00       		.byte	0
 3934 0949 1F       		.uleb128 0x1f
 3935 094a BF0A0000 		.4byte	.LASF100
 3936 094e 01       		.byte	0x1
 3937 094f 1701     		.2byte	0x117
 3938 0951 00000000 		.4byte	.LFB81
 3939 0955 14000000 		.4byte	.LFE81-.LFB81
 3940 0959 01       		.uleb128 0x1
 3941 095a 9C       		.byte	0x9c
 3942 095b 92090000 		.4byte	0x992
 3943 095f 21       		.uleb128 0x21
 3944 0960 C60E0000 		.4byte	.LASF73
 3945 0964 01       		.byte	0x1
 3946 0965 1901     		.2byte	0x119
 3947 0967 2B010000 		.4byte	0x12b
 3948 096b 45040000 		.4byte	.LLST34
 3949 096f 16       		.uleb128 0x16
 3950 0970 06000000 		.4byte	.LVL79
 3951 0974 14030000 		.4byte	0x314
 3952 0978 16       		.uleb128 0x16
 3953 0979 0C000000 		.4byte	.LVL81
 3954 097d 31240000 		.4byte	0x2431
 3955 0981 1C       		.uleb128 0x1c
 3956 0982 12000000 		.4byte	.LVL82
 3957 0986 7F030000 		.4byte	0x37f
 3958 098a 1B       		.uleb128 0x1b
 3959 098b 01       		.uleb128 0x1
 3960 098c 50       		.byte	0x50
 3961 098d 02       		.uleb128 0x2
 3962 098e 74       		.byte	0x74
ARM GAS  C:\Users\Reza\AppData\Local\Temp\cckOPwM0.s 			page 94


 3963 098f 00       		.sleb128 0
 3964 0990 00       		.byte	0
 3965 0991 00       		.byte	0
 3966 0992 22       		.uleb128 0x22
 3967 0993 6D0F0000 		.4byte	.LASF101
 3968 0997 01       		.byte	0x1
 3969 0998 2001     		.2byte	0x120
 3970 099a 2B010000 		.4byte	0x12b
 3971 099e 00000000 		.4byte	.LFB82
 3972 09a2 18000000 		.4byte	.LFE82-.LFB82
 3973 09a6 01       		.uleb128 0x1
 3974 09a7 9C       		.byte	0x9c
 3975 09a8 EF090000 		.4byte	0x9ef
 3976 09ac 21       		.uleb128 0x21
 3977 09ad 8E040000 		.4byte	.LASF76
 3978 09b1 01       		.byte	0x1
 3979 09b2 2201     		.2byte	0x122
 3980 09b4 2B010000 		.4byte	0x12b
 3981 09b8 63040000 		.4byte	.LLST35
 3982 09bc 21       		.uleb128 0x21
 3983 09bd C60E0000 		.4byte	.LASF73
 3984 09c1 01       		.byte	0x1
 3985 09c2 2301     		.2byte	0x123
 3986 09c4 2B010000 		.4byte	0x12b
 3987 09c8 81040000 		.4byte	.LLST36
 3988 09cc 16       		.uleb128 0x16
 3989 09cd 06000000 		.4byte	.LVL83
 3990 09d1 14030000 		.4byte	0x314
 3991 09d5 16       		.uleb128 0x16
 3992 09d6 0C000000 		.4byte	.LVL85
 3993 09da 3D240000 		.4byte	0x243d
 3994 09de 1C       		.uleb128 0x1c
 3995 09df 14000000 		.4byte	.LVL88
 3996 09e3 7F030000 		.4byte	0x37f
 3997 09e7 1B       		.uleb128 0x1b
 3998 09e8 01       		.uleb128 0x1
 3999 09e9 50       		.byte	0x50
 4000 09ea 02       		.uleb128 0x2
 4001 09eb 75       		.byte	0x75
 4002 09ec 00       		.sleb128 0
 4003 09ed 00       		.byte	0
 4004 09ee 00       		.byte	0
 4005 09ef 22       		.uleb128 0x22
 4006 09f0 DB020000 		.4byte	.LASF102
 4007 09f4 01       		.byte	0x1
 4008 09f5 2B01     		.2byte	0x12b
 4009 09f7 41010000 		.4byte	0x141
 4010 09fb 00000000 		.4byte	.LFB83
 4011 09ff 18000000 		.4byte	.LFE83-.LFB83
 4012 0a03 01       		.uleb128 0x1
 4013 0a04 9C       		.byte	0x9c
 4014 0a05 4C0A0000 		.4byte	0xa4c
 4015 0a09 21       		.uleb128 0x21
 4016 0a0a 8E040000 		.4byte	.LASF76
 4017 0a0e 01       		.byte	0x1
 4018 0a0f 2D01     		.2byte	0x12d
 4019 0a11 41010000 		.4byte	0x141
ARM GAS  C:\Users\Reza\AppData\Local\Temp\cckOPwM0.s 			page 95


 4020 0a15 9F040000 		.4byte	.LLST37
 4021 0a19 21       		.uleb128 0x21
 4022 0a1a C60E0000 		.4byte	.LASF73
 4023 0a1e 01       		.byte	0x1
 4024 0a1f 2E01     		.2byte	0x12e
 4025 0a21 2B010000 		.4byte	0x12b
 4026 0a25 BD040000 		.4byte	.LLST38
 4027 0a29 16       		.uleb128 0x16
 4028 0a2a 06000000 		.4byte	.LVL89
 4029 0a2e 14030000 		.4byte	0x314
 4030 0a32 16       		.uleb128 0x16
 4031 0a33 0C000000 		.4byte	.LVL91
 4032 0a37 49240000 		.4byte	0x2449
 4033 0a3b 1C       		.uleb128 0x1c
 4034 0a3c 14000000 		.4byte	.LVL94
 4035 0a40 7F030000 		.4byte	0x37f
 4036 0a44 1B       		.uleb128 0x1b
 4037 0a45 01       		.uleb128 0x1
 4038 0a46 50       		.byte	0x50
 4039 0a47 02       		.uleb128 0x2
 4040 0a48 75       		.byte	0x75
 4041 0a49 00       		.sleb128 0
 4042 0a4a 00       		.byte	0
 4043 0a4b 00       		.byte	0
 4044 0a4c 22       		.uleb128 0x22
 4045 0a4d 9E0A0000 		.4byte	.LASF103
 4046 0a51 01       		.byte	0x1
 4047 0a52 3601     		.2byte	0x136
 4048 0a54 36010000 		.4byte	0x136
 4049 0a58 00000000 		.4byte	.LFB84
 4050 0a5c 18000000 		.4byte	.LFE84-.LFB84
 4051 0a60 01       		.uleb128 0x1
 4052 0a61 9C       		.byte	0x9c
 4053 0a62 A90A0000 		.4byte	0xaa9
 4054 0a66 21       		.uleb128 0x21
 4055 0a67 C9010000 		.4byte	.LASF91
 4056 0a6b 01       		.byte	0x1
 4057 0a6c 3801     		.2byte	0x138
 4058 0a6e 36010000 		.4byte	0x136
 4059 0a72 DB040000 		.4byte	.LLST39
 4060 0a76 21       		.uleb128 0x21
 4061 0a77 C60E0000 		.4byte	.LASF73
 4062 0a7b 01       		.byte	0x1
 4063 0a7c 3901     		.2byte	0x139
 4064 0a7e 2B010000 		.4byte	0x12b
 4065 0a82 F9040000 		.4byte	.LLST40
 4066 0a86 16       		.uleb128 0x16
 4067 0a87 06000000 		.4byte	.LVL95
 4068 0a8b 14030000 		.4byte	0x314
 4069 0a8f 16       		.uleb128 0x16
 4070 0a90 0C000000 		.4byte	.LVL97
 4071 0a94 55240000 		.4byte	0x2455
 4072 0a98 1C       		.uleb128 0x1c
 4073 0a99 14000000 		.4byte	.LVL100
 4074 0a9d 7F030000 		.4byte	0x37f
 4075 0aa1 1B       		.uleb128 0x1b
 4076 0aa2 01       		.uleb128 0x1
ARM GAS  C:\Users\Reza\AppData\Local\Temp\cckOPwM0.s 			page 96


 4077 0aa3 50       		.byte	0x50
 4078 0aa4 02       		.uleb128 0x2
 4079 0aa5 75       		.byte	0x75
 4080 0aa6 00       		.sleb128 0
 4081 0aa7 00       		.byte	0
 4082 0aa8 00       		.byte	0
 4083 0aa9 22       		.uleb128 0x22
 4084 0aaa E1030000 		.4byte	.LASF104
 4085 0aae 01       		.byte	0x1
 4086 0aaf 4101     		.2byte	0x141
 4087 0ab1 F3000000 		.4byte	0xf3
 4088 0ab5 00000000 		.4byte	.LFB85
 4089 0ab9 1C000000 		.4byte	.LFE85-.LFB85
 4090 0abd 01       		.uleb128 0x1
 4091 0abe 9C       		.byte	0x9c
 4092 0abf 210B0000 		.4byte	0xb21
 4093 0ac3 20       		.uleb128 0x20
 4094 0ac4 4C100000 		.4byte	.LASF105
 4095 0ac8 01       		.byte	0x1
 4096 0ac9 4101     		.2byte	0x141
 4097 0acb 4C010000 		.4byte	0x14c
 4098 0acf 17050000 		.4byte	.LLST41
 4099 0ad3 21       		.uleb128 0x21
 4100 0ad4 85040000 		.4byte	.LASF106
 4101 0ad8 01       		.byte	0x1
 4102 0ad9 4301     		.2byte	0x143
 4103 0adb F3000000 		.4byte	0xf3
 4104 0adf 43050000 		.4byte	.LLST42
 4105 0ae3 21       		.uleb128 0x21
 4106 0ae4 C60E0000 		.4byte	.LASF73
 4107 0ae8 01       		.byte	0x1
 4108 0ae9 4401     		.2byte	0x144
 4109 0aeb 2B010000 		.4byte	0x12b
 4110 0aef 61050000 		.4byte	.LLST43
 4111 0af3 16       		.uleb128 0x16
 4112 0af4 08000000 		.4byte	.LVL102
 4113 0af8 14030000 		.4byte	0x314
 4114 0afc 1A       		.uleb128 0x1a
 4115 0afd 10000000 		.4byte	.LVL105
 4116 0b01 61240000 		.4byte	0x2461
 4117 0b05 100B0000 		.4byte	0xb10
 4118 0b09 1B       		.uleb128 0x1b
 4119 0b0a 01       		.uleb128 0x1
 4120 0b0b 50       		.byte	0x50
 4121 0b0c 02       		.uleb128 0x2
 4122 0b0d 74       		.byte	0x74
 4123 0b0e 00       		.sleb128 0
 4124 0b0f 00       		.byte	0
 4125 0b10 1C       		.uleb128 0x1c
 4126 0b11 18000000 		.4byte	.LVL108
 4127 0b15 7F030000 		.4byte	0x37f
 4128 0b19 1B       		.uleb128 0x1b
 4129 0b1a 01       		.uleb128 0x1
 4130 0b1b 50       		.byte	0x50
 4131 0b1c 02       		.uleb128 0x2
 4132 0b1d 75       		.byte	0x75
 4133 0b1e 00       		.sleb128 0
ARM GAS  C:\Users\Reza\AppData\Local\Temp\cckOPwM0.s 			page 97


 4134 0b1f 00       		.byte	0
 4135 0b20 00       		.byte	0
 4136 0b21 22       		.uleb128 0x22
 4137 0b22 850C0000 		.4byte	.LASF107
 4138 0b26 01       		.byte	0x1
 4139 0b27 C601     		.2byte	0x1c6
 4140 0b29 2B010000 		.4byte	0x12b
 4141 0b2d 00000000 		.4byte	.LFB86
 4142 0b31 1C000000 		.4byte	.LFE86-.LFB86
 4143 0b35 01       		.uleb128 0x1
 4144 0b36 9C       		.byte	0x9c
 4145 0b37 990B0000 		.4byte	0xb99
 4146 0b3b 20       		.uleb128 0x20
 4147 0b3c 460B0000 		.4byte	.LASF108
 4148 0b40 01       		.byte	0x1
 4149 0b41 C601     		.2byte	0x1c6
 4150 0b43 41010000 		.4byte	0x141
 4151 0b47 7F050000 		.4byte	.LLST44
 4152 0b4b 21       		.uleb128 0x21
 4153 0b4c 8E040000 		.4byte	.LASF76
 4154 0b50 01       		.byte	0x1
 4155 0b51 C801     		.2byte	0x1c8
 4156 0b53 2B010000 		.4byte	0x12b
 4157 0b57 AB050000 		.4byte	.LLST45
 4158 0b5b 21       		.uleb128 0x21
 4159 0b5c C60E0000 		.4byte	.LASF73
 4160 0b60 01       		.byte	0x1
 4161 0b61 C901     		.2byte	0x1c9
 4162 0b63 2B010000 		.4byte	0x12b
 4163 0b67 C9050000 		.4byte	.LLST46
 4164 0b6b 16       		.uleb128 0x16
 4165 0b6c 08000000 		.4byte	.LVL110
 4166 0b70 14030000 		.4byte	0x314
 4167 0b74 1A       		.uleb128 0x1a
 4168 0b75 10000000 		.4byte	.LVL113
 4169 0b79 6D240000 		.4byte	0x246d
 4170 0b7d 880B0000 		.4byte	0xb88
 4171 0b81 1B       		.uleb128 0x1b
 4172 0b82 01       		.uleb128 0x1
 4173 0b83 50       		.byte	0x50
 4174 0b84 02       		.uleb128 0x2
 4175 0b85 74       		.byte	0x74
 4176 0b86 00       		.sleb128 0
 4177 0b87 00       		.byte	0
 4178 0b88 1C       		.uleb128 0x1c
 4179 0b89 18000000 		.4byte	.LVL116
 4180 0b8d 7F030000 		.4byte	0x37f
 4181 0b91 1B       		.uleb128 0x1b
 4182 0b92 01       		.uleb128 0x1
 4183 0b93 50       		.byte	0x50
 4184 0b94 02       		.uleb128 0x2
 4185 0b95 75       		.byte	0x75
 4186 0b96 00       		.sleb128 0
 4187 0b97 00       		.byte	0
 4188 0b98 00       		.byte	0
 4189 0b99 22       		.uleb128 0x22
 4190 0b9a 8E070000 		.4byte	.LASF109
ARM GAS  C:\Users\Reza\AppData\Local\Temp\cckOPwM0.s 			page 98


 4191 0b9e 01       		.byte	0x1
 4192 0b9f D201     		.2byte	0x1d2
 4193 0ba1 36010000 		.4byte	0x136
 4194 0ba5 00000000 		.4byte	.LFB87
 4195 0ba9 1C000000 		.4byte	.LFE87-.LFB87
 4196 0bad 01       		.uleb128 0x1
 4197 0bae 9C       		.byte	0x9c
 4198 0baf 110C0000 		.4byte	0xc11
 4199 0bb3 20       		.uleb128 0x20
 4200 0bb4 C3010000 		.4byte	.LASF81
 4201 0bb8 01       		.byte	0x1
 4202 0bb9 D201     		.2byte	0x1d2
 4203 0bbb 4C010000 		.4byte	0x14c
 4204 0bbf E7050000 		.4byte	.LLST47
 4205 0bc3 21       		.uleb128 0x21
 4206 0bc4 C9010000 		.4byte	.LASF91
 4207 0bc8 01       		.byte	0x1
 4208 0bc9 D401     		.2byte	0x1d4
 4209 0bcb 36010000 		.4byte	0x136
 4210 0bcf 13060000 		.4byte	.LLST48
 4211 0bd3 21       		.uleb128 0x21
 4212 0bd4 C60E0000 		.4byte	.LASF73
 4213 0bd8 01       		.byte	0x1
 4214 0bd9 D501     		.2byte	0x1d5
 4215 0bdb 2B010000 		.4byte	0x12b
 4216 0bdf 31060000 		.4byte	.LLST49
 4217 0be3 16       		.uleb128 0x16
 4218 0be4 08000000 		.4byte	.LVL118
 4219 0be8 14030000 		.4byte	0x314
 4220 0bec 1A       		.uleb128 0x1a
 4221 0bed 10000000 		.4byte	.LVL121
 4222 0bf1 79240000 		.4byte	0x2479
 4223 0bf5 000C0000 		.4byte	0xc00
 4224 0bf9 1B       		.uleb128 0x1b
 4225 0bfa 01       		.uleb128 0x1
 4226 0bfb 50       		.byte	0x50
 4227 0bfc 02       		.uleb128 0x2
 4228 0bfd 74       		.byte	0x74
 4229 0bfe 00       		.sleb128 0
 4230 0bff 00       		.byte	0
 4231 0c00 1C       		.uleb128 0x1c
 4232 0c01 18000000 		.4byte	.LVL124
 4233 0c05 7F030000 		.4byte	0x37f
 4234 0c09 1B       		.uleb128 0x1b
 4235 0c0a 01       		.uleb128 0x1
 4236 0c0b 50       		.byte	0x50
 4237 0c0c 02       		.uleb128 0x2
 4238 0c0d 75       		.byte	0x75
 4239 0c0e 00       		.sleb128 0
 4240 0c0f 00       		.byte	0
 4241 0c10 00       		.byte	0
 4242 0c11 1F       		.uleb128 0x1f
 4243 0c12 09020000 		.4byte	.LASF110
 4244 0c16 01       		.byte	0x1
 4245 0c17 0502     		.2byte	0x205
 4246 0c19 00000000 		.4byte	.LFB88
 4247 0c1d 18000000 		.4byte	.LFE88-.LFB88
ARM GAS  C:\Users\Reza\AppData\Local\Temp\cckOPwM0.s 			page 99


 4248 0c21 01       		.uleb128 0x1
 4249 0c22 9C       		.byte	0x9c
 4250 0c23 750C0000 		.4byte	0xc75
 4251 0c27 20       		.uleb128 0x20
 4252 0c28 01080000 		.4byte	.LASF111
 4253 0c2c 01       		.byte	0x1
 4254 0c2d 0502     		.2byte	0x205
 4255 0c2f 7B0C0000 		.4byte	0xc7b
 4256 0c33 4F060000 		.4byte	.LLST50
 4257 0c37 21       		.uleb128 0x21
 4258 0c38 C60E0000 		.4byte	.LASF73
 4259 0c3c 01       		.byte	0x1
 4260 0c3d 0702     		.2byte	0x207
 4261 0c3f 2B010000 		.4byte	0x12b
 4262 0c43 6D060000 		.4byte	.LLST51
 4263 0c47 16       		.uleb128 0x16
 4264 0c48 08000000 		.4byte	.LVL126
 4265 0c4c 14030000 		.4byte	0x314
 4266 0c50 1A       		.uleb128 0x1a
 4267 0c51 10000000 		.4byte	.LVL129
 4268 0c55 85240000 		.4byte	0x2485
 4269 0c59 640C0000 		.4byte	0xc64
 4270 0c5d 1B       		.uleb128 0x1b
 4271 0c5e 01       		.uleb128 0x1
 4272 0c5f 50       		.byte	0x50
 4273 0c60 02       		.uleb128 0x2
 4274 0c61 75       		.byte	0x75
 4275 0c62 00       		.sleb128 0
 4276 0c63 00       		.byte	0
 4277 0c64 1C       		.uleb128 0x1c
 4278 0c65 16000000 		.4byte	.LVL130
 4279 0c69 7F030000 		.4byte	0x37f
 4280 0c6d 1B       		.uleb128 0x1b
 4281 0c6e 01       		.uleb128 0x1
 4282 0c6f 50       		.byte	0x50
 4283 0c70 02       		.uleb128 0x2
 4284 0c71 74       		.byte	0x74
 4285 0c72 00       		.sleb128 0
 4286 0c73 00       		.byte	0
 4287 0c74 00       		.byte	0
 4288 0c75 06       		.uleb128 0x6
 4289 0c76 04       		.byte	0x4
 4290 0c77 F9010000 		.4byte	0x1f9
 4291 0c7b 07       		.uleb128 0x7
 4292 0c7c 750C0000 		.4byte	0xc75
 4293 0c80 22       		.uleb128 0x22
 4294 0c81 DD080000 		.4byte	.LASF112
 4295 0c85 01       		.byte	0x1
 4296 0c86 0E02     		.2byte	0x20e
 4297 0c88 2B010000 		.4byte	0x12b
 4298 0c8c 00000000 		.4byte	.LFB89
 4299 0c90 20000000 		.4byte	.LFE89-.LFB89
 4300 0c94 01       		.uleb128 0x1
 4301 0c95 9C       		.byte	0x9c
 4302 0c96 0E0D0000 		.4byte	0xd0e
 4303 0c9a 20       		.uleb128 0x20
 4304 0c9b 01080000 		.4byte	.LASF111
ARM GAS  C:\Users\Reza\AppData\Local\Temp\cckOPwM0.s 			page 100


 4305 0c9f 01       		.byte	0x1
 4306 0ca0 0E02     		.2byte	0x20e
 4307 0ca2 7B0C0000 		.4byte	0xc7b
 4308 0ca6 8B060000 		.4byte	.LLST52
 4309 0caa 20       		.uleb128 0x20
 4310 0cab A2030000 		.4byte	.LASF113
 4311 0caf 01       		.byte	0x1
 4312 0cb0 0E02     		.2byte	0x20e
 4313 0cb2 BA060000 		.4byte	0x6ba
 4314 0cb6 B7060000 		.4byte	.LLST53
 4315 0cba 21       		.uleb128 0x21
 4316 0cbb 8E040000 		.4byte	.LASF76
 4317 0cbf 01       		.byte	0x1
 4318 0cc0 1002     		.2byte	0x210
 4319 0cc2 2B010000 		.4byte	0x12b
 4320 0cc6 D5060000 		.4byte	.LLST54
 4321 0cca 21       		.uleb128 0x21
 4322 0ccb C60E0000 		.4byte	.LASF73
 4323 0ccf 01       		.byte	0x1
 4324 0cd0 1102     		.2byte	0x211
 4325 0cd2 2B010000 		.4byte	0x12b
 4326 0cd6 F3060000 		.4byte	.LLST55
 4327 0cda 16       		.uleb128 0x16
 4328 0cdb 0A000000 		.4byte	.LVL132
 4329 0cdf 14030000 		.4byte	0x314
 4330 0ce3 1A       		.uleb128 0x1a
 4331 0ce4 14000000 		.4byte	.LVL135
 4332 0ce8 91240000 		.4byte	0x2491
 4333 0cec FD0C0000 		.4byte	0xcfd
 4334 0cf0 1B       		.uleb128 0x1b
 4335 0cf1 01       		.uleb128 0x1
 4336 0cf2 50       		.byte	0x50
 4337 0cf3 02       		.uleb128 0x2
 4338 0cf4 74       		.byte	0x74
 4339 0cf5 00       		.sleb128 0
 4340 0cf6 1B       		.uleb128 0x1b
 4341 0cf7 01       		.uleb128 0x1
 4342 0cf8 51       		.byte	0x51
 4343 0cf9 02       		.uleb128 0x2
 4344 0cfa 76       		.byte	0x76
 4345 0cfb 00       		.sleb128 0
 4346 0cfc 00       		.byte	0
 4347 0cfd 1C       		.uleb128 0x1c
 4348 0cfe 1C000000 		.4byte	.LVL138
 4349 0d02 7F030000 		.4byte	0x37f
 4350 0d06 1B       		.uleb128 0x1b
 4351 0d07 01       		.uleb128 0x1
 4352 0d08 50       		.byte	0x50
 4353 0d09 02       		.uleb128 0x2
 4354 0d0a 75       		.byte	0x75
 4355 0d0b 00       		.sleb128 0
 4356 0d0c 00       		.byte	0
 4357 0d0d 00       		.byte	0
 4358 0d0e 22       		.uleb128 0x22
 4359 0d0f FE050000 		.4byte	.LASF114
 4360 0d13 01       		.byte	0x1
 4361 0d14 1A02     		.2byte	0x21a
ARM GAS  C:\Users\Reza\AppData\Local\Temp\cckOPwM0.s 			page 101


 4362 0d16 2B010000 		.4byte	0x12b
 4363 0d1a 00000000 		.4byte	.LFB90
 4364 0d1e 2C000000 		.4byte	.LFE90-.LFB90
 4365 0d22 01       		.uleb128 0x1
 4366 0d23 9C       		.byte	0x9c
 4367 0d24 C80D0000 		.4byte	0xdc8
 4368 0d28 20       		.uleb128 0x20
 4369 0d29 D1100000 		.4byte	.LASF115
 4370 0d2d 01       		.byte	0x1
 4371 0d2e 1A02     		.2byte	0x21a
 4372 0d30 4C010000 		.4byte	0x14c
 4373 0d34 11070000 		.4byte	.LLST56
 4374 0d38 20       		.uleb128 0x20
 4375 0d39 DA0D0000 		.4byte	.LASF116
 4376 0d3d 01       		.byte	0x1
 4377 0d3e 1A02     		.2byte	0x21a
 4378 0d40 CA000000 		.4byte	0xca
 4379 0d44 3D070000 		.4byte	.LLST57
 4380 0d48 20       		.uleb128 0x20
 4381 0d49 790D0000 		.4byte	.LASF117
 4382 0d4d 01       		.byte	0x1
 4383 0d4e 1A02     		.2byte	0x21a
 4384 0d50 C9010000 		.4byte	0x1c9
 4385 0d54 5B070000 		.4byte	.LLST58
 4386 0d58 20       		.uleb128 0x20
 4387 0d59 FF040000 		.4byte	.LASF118
 4388 0d5d 01       		.byte	0x1
 4389 0d5e 1A02     		.2byte	0x21a
 4390 0d60 C80D0000 		.4byte	0xdc8
 4391 0d64 7C070000 		.4byte	.LLST59
 4392 0d68 21       		.uleb128 0x21
 4393 0d69 8E040000 		.4byte	.LASF76
 4394 0d6d 01       		.byte	0x1
 4395 0d6e 1C02     		.2byte	0x21c
 4396 0d70 2B010000 		.4byte	0x12b
 4397 0d74 9A070000 		.4byte	.LLST60
 4398 0d78 21       		.uleb128 0x21
 4399 0d79 C60E0000 		.4byte	.LASF73
 4400 0d7d 01       		.byte	0x1
 4401 0d7e 1D02     		.2byte	0x21d
 4402 0d80 2B010000 		.4byte	0x12b
 4403 0d84 B8070000 		.4byte	.LLST61
 4404 0d88 16       		.uleb128 0x16
 4405 0d89 10000000 		.4byte	.LVL140
 4406 0d8d 14030000 		.4byte	0x314
 4407 0d91 1A       		.uleb128 0x1a
 4408 0d92 1E000000 		.4byte	.LVL143
 4409 0d96 9D240000 		.4byte	0x249d
 4410 0d9a B70D0000 		.4byte	0xdb7
 4411 0d9e 1B       		.uleb128 0x1b
 4412 0d9f 01       		.uleb128 0x1
 4413 0da0 50       		.byte	0x50
 4414 0da1 02       		.uleb128 0x2
 4415 0da2 74       		.byte	0x74
 4416 0da3 00       		.sleb128 0
 4417 0da4 1B       		.uleb128 0x1b
 4418 0da5 01       		.uleb128 0x1
ARM GAS  C:\Users\Reza\AppData\Local\Temp\cckOPwM0.s 			page 102


 4419 0da6 51       		.byte	0x51
 4420 0da7 02       		.uleb128 0x2
 4421 0da8 76       		.byte	0x76
 4422 0da9 00       		.sleb128 0
 4423 0daa 1B       		.uleb128 0x1b
 4424 0dab 01       		.uleb128 0x1
 4425 0dac 52       		.byte	0x52
 4426 0dad 02       		.uleb128 0x2
 4427 0dae 77       		.byte	0x77
 4428 0daf 00       		.sleb128 0
 4429 0db0 1B       		.uleb128 0x1b
 4430 0db1 01       		.uleb128 0x1
 4431 0db2 53       		.byte	0x53
 4432 0db3 02       		.uleb128 0x2
 4433 0db4 78       		.byte	0x78
 4434 0db5 00       		.sleb128 0
 4435 0db6 00       		.byte	0
 4436 0db7 1C       		.uleb128 0x1c
 4437 0db8 26000000 		.4byte	.LVL146
 4438 0dbc 7F030000 		.4byte	0x37f
 4439 0dc0 1B       		.uleb128 0x1b
 4440 0dc1 01       		.uleb128 0x1
 4441 0dc2 50       		.byte	0x50
 4442 0dc3 02       		.uleb128 0x2
 4443 0dc4 75       		.byte	0x75
 4444 0dc5 00       		.sleb128 0
 4445 0dc6 00       		.byte	0
 4446 0dc7 00       		.byte	0
 4447 0dc8 06       		.uleb128 0x6
 4448 0dc9 04       		.byte	0x4
 4449 0dca CA000000 		.4byte	0xca
 4450 0dce 22       		.uleb128 0x22
 4451 0dcf 45020000 		.4byte	.LASF119
 4452 0dd3 01       		.byte	0x1
 4453 0dd4 2702     		.2byte	0x227
 4454 0dd6 2B010000 		.4byte	0x12b
 4455 0dda 00000000 		.4byte	.LFB91
 4456 0dde 2C000000 		.4byte	.LFE91-.LFB91
 4457 0de2 01       		.uleb128 0x1
 4458 0de3 9C       		.byte	0x9c
 4459 0de4 880E0000 		.4byte	0xe88
 4460 0de8 20       		.uleb128 0x20
 4461 0de9 F6100000 		.4byte	.LASF120
 4462 0ded 01       		.byte	0x1
 4463 0dee 2702     		.2byte	0x227
 4464 0df0 CA000000 		.4byte	0xca
 4465 0df4 D6070000 		.4byte	.LLST62
 4466 0df8 20       		.uleb128 0x20
 4467 0df9 B60C0000 		.4byte	.LASF121
 4468 0dfd 01       		.byte	0x1
 4469 0dfe 2702     		.2byte	0x227
 4470 0e00 CA000000 		.4byte	0xca
 4471 0e04 02080000 		.4byte	.LLST63
 4472 0e08 20       		.uleb128 0x20
 4473 0e09 62040000 		.4byte	.LASF122
 4474 0e0d 01       		.byte	0x1
 4475 0e0e 2702     		.2byte	0x227
ARM GAS  C:\Users\Reza\AppData\Local\Temp\cckOPwM0.s 			page 103


 4476 0e10 C80D0000 		.4byte	0xdc8
 4477 0e14 20080000 		.4byte	.LLST64
 4478 0e18 20       		.uleb128 0x20
 4479 0e19 4C0C0000 		.4byte	.LASF123
 4480 0e1d 01       		.byte	0x1
 4481 0e1e 2702     		.2byte	0x227
 4482 0e20 41010000 		.4byte	0x141
 4483 0e24 3E080000 		.4byte	.LLST65
 4484 0e28 21       		.uleb128 0x21
 4485 0e29 8E040000 		.4byte	.LASF76
 4486 0e2d 01       		.byte	0x1
 4487 0e2e 2902     		.2byte	0x229
 4488 0e30 2B010000 		.4byte	0x12b
 4489 0e34 5C080000 		.4byte	.LLST66
 4490 0e38 21       		.uleb128 0x21
 4491 0e39 C60E0000 		.4byte	.LASF73
 4492 0e3d 01       		.byte	0x1
 4493 0e3e 2A02     		.2byte	0x22a
 4494 0e40 2B010000 		.4byte	0x12b
 4495 0e44 7A080000 		.4byte	.LLST67
 4496 0e48 16       		.uleb128 0x16
 4497 0e49 10000000 		.4byte	.LVL148
 4498 0e4d 14030000 		.4byte	0x314
 4499 0e51 1A       		.uleb128 0x1a
 4500 0e52 1E000000 		.4byte	.LVL151
 4501 0e56 A9240000 		.4byte	0x24a9
 4502 0e5a 770E0000 		.4byte	0xe77
 4503 0e5e 1B       		.uleb128 0x1b
 4504 0e5f 01       		.uleb128 0x1
 4505 0e60 50       		.byte	0x50
 4506 0e61 02       		.uleb128 0x2
 4507 0e62 74       		.byte	0x74
 4508 0e63 00       		.sleb128 0
 4509 0e64 1B       		.uleb128 0x1b
 4510 0e65 01       		.uleb128 0x1
 4511 0e66 51       		.byte	0x51
 4512 0e67 02       		.uleb128 0x2
 4513 0e68 76       		.byte	0x76
 4514 0e69 00       		.sleb128 0
 4515 0e6a 1B       		.uleb128 0x1b
 4516 0e6b 01       		.uleb128 0x1
 4517 0e6c 52       		.byte	0x52
 4518 0e6d 02       		.uleb128 0x2
 4519 0e6e 77       		.byte	0x77
 4520 0e6f 00       		.sleb128 0
 4521 0e70 1B       		.uleb128 0x1b
 4522 0e71 01       		.uleb128 0x1
 4523 0e72 53       		.byte	0x53
 4524 0e73 02       		.uleb128 0x2
 4525 0e74 78       		.byte	0x78
 4526 0e75 00       		.sleb128 0
 4527 0e76 00       		.byte	0
 4528 0e77 1C       		.uleb128 0x1c
 4529 0e78 26000000 		.4byte	.LVL154
 4530 0e7c 7F030000 		.4byte	0x37f
 4531 0e80 1B       		.uleb128 0x1b
 4532 0e81 01       		.uleb128 0x1
ARM GAS  C:\Users\Reza\AppData\Local\Temp\cckOPwM0.s 			page 104


 4533 0e82 50       		.byte	0x50
 4534 0e83 02       		.uleb128 0x2
 4535 0e84 75       		.byte	0x75
 4536 0e85 00       		.sleb128 0
 4537 0e86 00       		.byte	0
 4538 0e87 00       		.byte	0
 4539 0e88 22       		.uleb128 0x22
 4540 0e89 F6060000 		.4byte	.LASF124
 4541 0e8d 01       		.byte	0x1
 4542 0e8e 3402     		.2byte	0x234
 4543 0e90 CA000000 		.4byte	0xca
 4544 0e94 00000000 		.4byte	.LFB92
 4545 0e98 20000000 		.4byte	.LFE92-.LFB92
 4546 0e9c 01       		.uleb128 0x1
 4547 0e9d 9C       		.byte	0x9c
 4548 0e9e 160F0000 		.4byte	0xf16
 4549 0ea2 20       		.uleb128 0x20
 4550 0ea3 EC050000 		.4byte	.LASF125
 4551 0ea7 01       		.byte	0x1
 4552 0ea8 3402     		.2byte	0x234
 4553 0eaa 2B010000 		.4byte	0x12b
 4554 0eae 98080000 		.4byte	.LLST68
 4555 0eb2 20       		.uleb128 0x20
 4556 0eb3 4C0C0000 		.4byte	.LASF123
 4557 0eb7 01       		.byte	0x1
 4558 0eb8 3402     		.2byte	0x234
 4559 0eba 41010000 		.4byte	0x141
 4560 0ebe C4080000 		.4byte	.LLST69
 4561 0ec2 21       		.uleb128 0x21
 4562 0ec3 83100000 		.4byte	.LASF126
 4563 0ec7 01       		.byte	0x1
 4564 0ec8 3602     		.2byte	0x236
 4565 0eca CA000000 		.4byte	0xca
 4566 0ece E2080000 		.4byte	.LLST70
 4567 0ed2 21       		.uleb128 0x21
 4568 0ed3 C60E0000 		.4byte	.LASF73
 4569 0ed7 01       		.byte	0x1
 4570 0ed8 3702     		.2byte	0x237
 4571 0eda 2B010000 		.4byte	0x12b
 4572 0ede 00090000 		.4byte	.LLST71
 4573 0ee2 16       		.uleb128 0x16
 4574 0ee3 0A000000 		.4byte	.LVL156
 4575 0ee7 14030000 		.4byte	0x314
 4576 0eeb 1A       		.uleb128 0x1a
 4577 0eec 14000000 		.4byte	.LVL159
 4578 0ef0 B5240000 		.4byte	0x24b5
 4579 0ef4 050F0000 		.4byte	0xf05
 4580 0ef8 1B       		.uleb128 0x1b
 4581 0ef9 01       		.uleb128 0x1
 4582 0efa 50       		.byte	0x50
 4583 0efb 02       		.uleb128 0x2
 4584 0efc 74       		.byte	0x74
 4585 0efd 00       		.sleb128 0
 4586 0efe 1B       		.uleb128 0x1b
 4587 0eff 01       		.uleb128 0x1
 4588 0f00 51       		.byte	0x51
 4589 0f01 02       		.uleb128 0x2
ARM GAS  C:\Users\Reza\AppData\Local\Temp\cckOPwM0.s 			page 105


 4590 0f02 76       		.byte	0x76
 4591 0f03 00       		.sleb128 0
 4592 0f04 00       		.byte	0
 4593 0f05 1C       		.uleb128 0x1c
 4594 0f06 1C000000 		.4byte	.LVL162
 4595 0f0a 7F030000 		.4byte	0x37f
 4596 0f0e 1B       		.uleb128 0x1b
 4597 0f0f 01       		.uleb128 0x1
 4598 0f10 50       		.byte	0x50
 4599 0f11 02       		.uleb128 0x2
 4600 0f12 75       		.byte	0x75
 4601 0f13 00       		.sleb128 0
 4602 0f14 00       		.byte	0
 4603 0f15 00       		.byte	0
 4604 0f16 22       		.uleb128 0x22
 4605 0f17 6D000000 		.4byte	.LASF127
 4606 0f1b 01       		.byte	0x1
 4607 0f1c 4102     		.2byte	0x241
 4608 0f1e 2B010000 		.4byte	0x12b
 4609 0f22 00000000 		.4byte	.LFB93
 4610 0f26 1C000000 		.4byte	.LFE93-.LFB93
 4611 0f2a 01       		.uleb128 0x1
 4612 0f2b 9C       		.byte	0x9c
 4613 0f2c 8E0F0000 		.4byte	0xf8e
 4614 0f30 20       		.uleb128 0x20
 4615 0f31 C3010000 		.4byte	.LASF81
 4616 0f35 01       		.byte	0x1
 4617 0f36 4102     		.2byte	0x241
 4618 0f38 4C010000 		.4byte	0x14c
 4619 0f3c 1E090000 		.4byte	.LLST72
 4620 0f40 21       		.uleb128 0x21
 4621 0f41 8E040000 		.4byte	.LASF76
 4622 0f45 01       		.byte	0x1
 4623 0f46 4302     		.2byte	0x243
 4624 0f48 2B010000 		.4byte	0x12b
 4625 0f4c 4A090000 		.4byte	.LLST73
 4626 0f50 21       		.uleb128 0x21
 4627 0f51 C60E0000 		.4byte	.LASF73
 4628 0f55 01       		.byte	0x1
 4629 0f56 4402     		.2byte	0x244
 4630 0f58 2B010000 		.4byte	0x12b
 4631 0f5c 68090000 		.4byte	.LLST74
 4632 0f60 16       		.uleb128 0x16
 4633 0f61 08000000 		.4byte	.LVL164
 4634 0f65 14030000 		.4byte	0x314
 4635 0f69 1A       		.uleb128 0x1a
 4636 0f6a 10000000 		.4byte	.LVL167
 4637 0f6e C1240000 		.4byte	0x24c1
 4638 0f72 7D0F0000 		.4byte	0xf7d
 4639 0f76 1B       		.uleb128 0x1b
 4640 0f77 01       		.uleb128 0x1
 4641 0f78 50       		.byte	0x50
 4642 0f79 02       		.uleb128 0x2
 4643 0f7a 74       		.byte	0x74
 4644 0f7b 00       		.sleb128 0
 4645 0f7c 00       		.byte	0
 4646 0f7d 1C       		.uleb128 0x1c
ARM GAS  C:\Users\Reza\AppData\Local\Temp\cckOPwM0.s 			page 106


 4647 0f7e 18000000 		.4byte	.LVL170
 4648 0f82 7F030000 		.4byte	0x37f
 4649 0f86 1B       		.uleb128 0x1b
 4650 0f87 01       		.uleb128 0x1
 4651 0f88 50       		.byte	0x50
 4652 0f89 02       		.uleb128 0x2
 4653 0f8a 75       		.byte	0x75
 4654 0f8b 00       		.sleb128 0
 4655 0f8c 00       		.byte	0
 4656 0f8d 00       		.byte	0
 4657 0f8e 22       		.uleb128 0x22
 4658 0f8f 82050000 		.4byte	.LASF128
 4659 0f93 01       		.byte	0x1
 4660 0f94 4E02     		.2byte	0x24e
 4661 0f96 CA000000 		.4byte	0xca
 4662 0f9a 00000000 		.4byte	.LFB94
 4663 0f9e 20000000 		.4byte	.LFE94-.LFB94
 4664 0fa2 01       		.uleb128 0x1
 4665 0fa3 9C       		.byte	0x9c
 4666 0fa4 1C100000 		.4byte	0x101c
 4667 0fa8 20       		.uleb128 0x20
 4668 0fa9 C3010000 		.4byte	.LASF81
 4669 0fad 01       		.byte	0x1
 4670 0fae 4E02     		.2byte	0x24e
 4671 0fb0 4C010000 		.4byte	0x14c
 4672 0fb4 86090000 		.4byte	.LLST75
 4673 0fb8 20       		.uleb128 0x20
 4674 0fb9 15060000 		.4byte	.LASF129
 4675 0fbd 01       		.byte	0x1
 4676 0fbe 4E02     		.2byte	0x24e
 4677 0fc0 CA000000 		.4byte	0xca
 4678 0fc4 B2090000 		.4byte	.LLST76
 4679 0fc8 21       		.uleb128 0x21
 4680 0fc9 83100000 		.4byte	.LASF126
 4681 0fcd 01       		.byte	0x1
 4682 0fce 5002     		.2byte	0x250
 4683 0fd0 CA000000 		.4byte	0xca
 4684 0fd4 D0090000 		.4byte	.LLST77
 4685 0fd8 21       		.uleb128 0x21
 4686 0fd9 C60E0000 		.4byte	.LASF73
 4687 0fdd 01       		.byte	0x1
 4688 0fde 5102     		.2byte	0x251
 4689 0fe0 2B010000 		.4byte	0x12b
 4690 0fe4 EE090000 		.4byte	.LLST78
 4691 0fe8 16       		.uleb128 0x16
 4692 0fe9 0A000000 		.4byte	.LVL172
 4693 0fed 14030000 		.4byte	0x314
 4694 0ff1 1A       		.uleb128 0x1a
 4695 0ff2 14000000 		.4byte	.LVL175
 4696 0ff6 CD240000 		.4byte	0x24cd
 4697 0ffa 0B100000 		.4byte	0x100b
 4698 0ffe 1B       		.uleb128 0x1b
 4699 0fff 01       		.uleb128 0x1
 4700 1000 50       		.byte	0x50
 4701 1001 02       		.uleb128 0x2
 4702 1002 74       		.byte	0x74
 4703 1003 00       		.sleb128 0
ARM GAS  C:\Users\Reza\AppData\Local\Temp\cckOPwM0.s 			page 107


 4704 1004 1B       		.uleb128 0x1b
 4705 1005 01       		.uleb128 0x1
 4706 1006 51       		.byte	0x51
 4707 1007 02       		.uleb128 0x2
 4708 1008 76       		.byte	0x76
 4709 1009 00       		.sleb128 0
 4710 100a 00       		.byte	0
 4711 100b 1C       		.uleb128 0x1c
 4712 100c 1C000000 		.4byte	.LVL178
 4713 1010 7F030000 		.4byte	0x37f
 4714 1014 1B       		.uleb128 0x1b
 4715 1015 01       		.uleb128 0x1
 4716 1016 50       		.byte	0x50
 4717 1017 02       		.uleb128 0x2
 4718 1018 75       		.byte	0x75
 4719 1019 00       		.sleb128 0
 4720 101a 00       		.byte	0
 4721 101b 00       		.byte	0
 4722 101c 22       		.uleb128 0x22
 4723 101d 55000000 		.4byte	.LASF130
 4724 1021 01       		.byte	0x1
 4725 1022 5B02     		.2byte	0x25b
 4726 1024 C7020000 		.4byte	0x2c7
 4727 1028 00000000 		.4byte	.LFB95
 4728 102c 24000000 		.4byte	.LFE95-.LFB95
 4729 1030 01       		.uleb128 0x1
 4730 1031 9C       		.byte	0x9c
 4731 1032 C0100000 		.4byte	0x10c0
 4732 1036 20       		.uleb128 0x20
 4733 1037 FB010000 		.4byte	.LASF131
 4734 103b 01       		.byte	0x1
 4735 103c 5B02     		.2byte	0x25b
 4736 103e 36010000 		.4byte	0x136
 4737 1042 0C0A0000 		.4byte	.LLST79
 4738 1046 20       		.uleb128 0x20
 4739 1047 1F070000 		.4byte	.LASF132
 4740 104b 01       		.byte	0x1
 4741 104c 5B02     		.2byte	0x25b
 4742 104e 36010000 		.4byte	0x136
 4743 1052 380A0000 		.4byte	.LLST80
 4744 1056 20       		.uleb128 0x20
 4745 1057 3C0A0000 		.4byte	.LASF133
 4746 105b 01       		.byte	0x1
 4747 105c 5B02     		.2byte	0x25b
 4748 105e A9000000 		.4byte	0xa9
 4749 1062 560A0000 		.4byte	.LLST81
 4750 1066 21       		.uleb128 0x21
 4751 1067 8E040000 		.4byte	.LASF76
 4752 106b 01       		.byte	0x1
 4753 106c 5D02     		.2byte	0x25d
 4754 106e C7020000 		.4byte	0x2c7
 4755 1072 770A0000 		.4byte	.LLST82
 4756 1076 21       		.uleb128 0x21
 4757 1077 C60E0000 		.4byte	.LASF73
 4758 107b 01       		.byte	0x1
 4759 107c 5E02     		.2byte	0x25e
 4760 107e 2B010000 		.4byte	0x12b
ARM GAS  C:\Users\Reza\AppData\Local\Temp\cckOPwM0.s 			page 108


 4761 1082 950A0000 		.4byte	.LLST83
 4762 1086 16       		.uleb128 0x16
 4763 1087 0C000000 		.4byte	.LVL180
 4764 108b 14030000 		.4byte	0x314
 4765 108f 1A       		.uleb128 0x1a
 4766 1090 18000000 		.4byte	.LVL183
 4767 1094 D9240000 		.4byte	0x24d9
 4768 1098 AF100000 		.4byte	0x10af
 4769 109c 1B       		.uleb128 0x1b
 4770 109d 01       		.uleb128 0x1
 4771 109e 50       		.byte	0x50
 4772 109f 02       		.uleb128 0x2
 4773 10a0 74       		.byte	0x74
 4774 10a1 00       		.sleb128 0
 4775 10a2 1B       		.uleb128 0x1b
 4776 10a3 01       		.uleb128 0x1
 4777 10a4 51       		.byte	0x51
 4778 10a5 02       		.uleb128 0x2
 4779 10a6 76       		.byte	0x76
 4780 10a7 00       		.sleb128 0
 4781 10a8 1B       		.uleb128 0x1b
 4782 10a9 01       		.uleb128 0x1
 4783 10aa 52       		.byte	0x52
 4784 10ab 02       		.uleb128 0x2
 4785 10ac 77       		.byte	0x77
 4786 10ad 00       		.sleb128 0
 4787 10ae 00       		.byte	0
 4788 10af 1C       		.uleb128 0x1c
 4789 10b0 20000000 		.4byte	.LVL186
 4790 10b4 7F030000 		.4byte	0x37f
 4791 10b8 1B       		.uleb128 0x1b
 4792 10b9 01       		.uleb128 0x1
 4793 10ba 50       		.byte	0x50
 4794 10bb 02       		.uleb128 0x2
 4795 10bc 75       		.byte	0x75
 4796 10bd 00       		.sleb128 0
 4797 10be 00       		.byte	0
 4798 10bf 00       		.byte	0
 4799 10c0 22       		.uleb128 0x22
 4800 10c1 CF090000 		.4byte	.LASF134
 4801 10c5 01       		.byte	0x1
 4802 10c6 7402     		.2byte	0x274
 4803 10c8 2B010000 		.4byte	0x12b
 4804 10cc 00000000 		.4byte	.LFB96
 4805 10d0 20000000 		.4byte	.LFE96-.LFB96
 4806 10d4 01       		.uleb128 0x1
 4807 10d5 9C       		.byte	0x9c
 4808 10d6 4E110000 		.4byte	0x114e
 4809 10da 20       		.uleb128 0x20
 4810 10db 7A050000 		.4byte	.LASF135
 4811 10df 01       		.byte	0x1
 4812 10e0 7402     		.2byte	0x274
 4813 10e2 C7020000 		.4byte	0x2c7
 4814 10e6 B30A0000 		.4byte	.LLST84
 4815 10ea 20       		.uleb128 0x20
 4816 10eb 3A0F0000 		.4byte	.LASF136
 4817 10ef 01       		.byte	0x1
ARM GAS  C:\Users\Reza\AppData\Local\Temp\cckOPwM0.s 			page 109


 4818 10f0 7402     		.2byte	0x274
 4819 10f2 2B010000 		.4byte	0x12b
 4820 10f6 DF0A0000 		.4byte	.LLST85
 4821 10fa 21       		.uleb128 0x21
 4822 10fb 8E040000 		.4byte	.LASF76
 4823 10ff 01       		.byte	0x1
 4824 1100 7602     		.2byte	0x276
 4825 1102 2B010000 		.4byte	0x12b
 4826 1106 FD0A0000 		.4byte	.LLST86
 4827 110a 21       		.uleb128 0x21
 4828 110b C60E0000 		.4byte	.LASF73
 4829 110f 01       		.byte	0x1
 4830 1110 7702     		.2byte	0x277
 4831 1112 2B010000 		.4byte	0x12b
 4832 1116 1B0B0000 		.4byte	.LLST87
 4833 111a 16       		.uleb128 0x16
 4834 111b 0A000000 		.4byte	.LVL188
 4835 111f 14030000 		.4byte	0x314
 4836 1123 1A       		.uleb128 0x1a
 4837 1124 14000000 		.4byte	.LVL191
 4838 1128 E5240000 		.4byte	0x24e5
 4839 112c 3D110000 		.4byte	0x113d
 4840 1130 1B       		.uleb128 0x1b
 4841 1131 01       		.uleb128 0x1
 4842 1132 50       		.byte	0x50
 4843 1133 02       		.uleb128 0x2
 4844 1134 74       		.byte	0x74
 4845 1135 00       		.sleb128 0
 4846 1136 1B       		.uleb128 0x1b
 4847 1137 01       		.uleb128 0x1
 4848 1138 51       		.byte	0x51
 4849 1139 02       		.uleb128 0x2
 4850 113a 76       		.byte	0x76
 4851 113b 00       		.sleb128 0
 4852 113c 00       		.byte	0
 4853 113d 1C       		.uleb128 0x1c
 4854 113e 1C000000 		.4byte	.LVL194
 4855 1142 7F030000 		.4byte	0x37f
 4856 1146 1B       		.uleb128 0x1b
 4857 1147 01       		.uleb128 0x1
 4858 1148 50       		.byte	0x50
 4859 1149 02       		.uleb128 0x2
 4860 114a 75       		.byte	0x75
 4861 114b 00       		.sleb128 0
 4862 114c 00       		.byte	0
 4863 114d 00       		.byte	0
 4864 114e 22       		.uleb128 0x22
 4865 114f A4090000 		.4byte	.LASF137
 4866 1153 01       		.byte	0x1
 4867 1154 7F02     		.2byte	0x27f
 4868 1156 2B010000 		.4byte	0x12b
 4869 115a 00000000 		.4byte	.LFB97
 4870 115e 2C000000 		.4byte	.LFE97-.LFB97
 4871 1162 01       		.uleb128 0x1
 4872 1163 9C       		.byte	0x9c
 4873 1164 08120000 		.4byte	0x1208
 4874 1168 20       		.uleb128 0x20
ARM GAS  C:\Users\Reza\AppData\Local\Temp\cckOPwM0.s 			page 110


 4875 1169 FF0C0000 		.4byte	.LASF138
 4876 116d 01       		.byte	0x1
 4877 116e 7F02     		.2byte	0x27f
 4878 1170 C7020000 		.4byte	0x2c7
 4879 1174 390B0000 		.4byte	.LLST88
 4880 1178 20       		.uleb128 0x20
 4881 1179 10000000 		.4byte	.LASF139
 4882 117d 01       		.byte	0x1
 4883 117e 7F02     		.2byte	0x27f
 4884 1180 0F120000 		.4byte	0x120f
 4885 1184 650B0000 		.4byte	.LLST89
 4886 1188 20       		.uleb128 0x20
 4887 1189 4C0C0000 		.4byte	.LASF123
 4888 118d 01       		.byte	0x1
 4889 118e 7F02     		.2byte	0x27f
 4890 1190 41010000 		.4byte	0x141
 4891 1194 830B0000 		.4byte	.LLST90
 4892 1198 20       		.uleb128 0x20
 4893 1199 160A0000 		.4byte	.LASF140
 4894 119d 01       		.byte	0x1
 4895 119e 7F02     		.2byte	0x27f
 4896 11a0 2B010000 		.4byte	0x12b
 4897 11a4 A10B0000 		.4byte	.LLST91
 4898 11a8 21       		.uleb128 0x21
 4899 11a9 8E040000 		.4byte	.LASF76
 4900 11ad 01       		.byte	0x1
 4901 11ae 8102     		.2byte	0x281
 4902 11b0 2B010000 		.4byte	0x12b
 4903 11b4 BF0B0000 		.4byte	.LLST92
 4904 11b8 21       		.uleb128 0x21
 4905 11b9 C60E0000 		.4byte	.LASF73
 4906 11bd 01       		.byte	0x1
 4907 11be 8202     		.2byte	0x282
 4908 11c0 2B010000 		.4byte	0x12b
 4909 11c4 DD0B0000 		.4byte	.LLST93
 4910 11c8 16       		.uleb128 0x16
 4911 11c9 10000000 		.4byte	.LVL196
 4912 11cd 14030000 		.4byte	0x314
 4913 11d1 1A       		.uleb128 0x1a
 4914 11d2 1E000000 		.4byte	.LVL199
 4915 11d6 F1240000 		.4byte	0x24f1
 4916 11da F7110000 		.4byte	0x11f7
 4917 11de 1B       		.uleb128 0x1b
 4918 11df 01       		.uleb128 0x1
 4919 11e0 50       		.byte	0x50
 4920 11e1 02       		.uleb128 0x2
 4921 11e2 74       		.byte	0x74
 4922 11e3 00       		.sleb128 0
 4923 11e4 1B       		.uleb128 0x1b
 4924 11e5 01       		.uleb128 0x1
 4925 11e6 51       		.byte	0x51
 4926 11e7 02       		.uleb128 0x2
 4927 11e8 76       		.byte	0x76
 4928 11e9 00       		.sleb128 0
 4929 11ea 1B       		.uleb128 0x1b
 4930 11eb 01       		.uleb128 0x1
 4931 11ec 52       		.byte	0x52
ARM GAS  C:\Users\Reza\AppData\Local\Temp\cckOPwM0.s 			page 111


 4932 11ed 02       		.uleb128 0x2
 4933 11ee 77       		.byte	0x77
 4934 11ef 00       		.sleb128 0
 4935 11f0 1B       		.uleb128 0x1b
 4936 11f1 01       		.uleb128 0x1
 4937 11f2 53       		.byte	0x53
 4938 11f3 02       		.uleb128 0x2
 4939 11f4 78       		.byte	0x78
 4940 11f5 00       		.sleb128 0
 4941 11f6 00       		.byte	0
 4942 11f7 1C       		.uleb128 0x1c
 4943 11f8 26000000 		.4byte	.LVL202
 4944 11fc 7F030000 		.4byte	0x37f
 4945 1200 1B       		.uleb128 0x1b
 4946 1201 01       		.uleb128 0x1
 4947 1202 50       		.byte	0x50
 4948 1203 02       		.uleb128 0x2
 4949 1204 75       		.byte	0x75
 4950 1205 00       		.sleb128 0
 4951 1206 00       		.byte	0
 4952 1207 00       		.byte	0
 4953 1208 06       		.uleb128 0x6
 4954 1209 04       		.byte	0x4
 4955 120a 0E120000 		.4byte	0x120e
 4956 120e 23       		.uleb128 0x23
 4957 120f 07       		.uleb128 0x7
 4958 1210 08120000 		.4byte	0x1208
 4959 1214 22       		.uleb128 0x22
 4960 1215 FB090000 		.4byte	.LASF141
 4961 1219 01       		.byte	0x1
 4962 121a 8A02     		.2byte	0x28a
 4963 121c 36010000 		.4byte	0x136
 4964 1220 00000000 		.4byte	.LFB98
 4965 1224 1C000000 		.4byte	.LFE98-.LFB98
 4966 1228 01       		.uleb128 0x1
 4967 1229 9C       		.byte	0x9c
 4968 122a 8C120000 		.4byte	0x128c
 4969 122e 20       		.uleb128 0x20
 4970 122f 7A050000 		.4byte	.LASF135
 4971 1233 01       		.byte	0x1
 4972 1234 8A02     		.2byte	0x28a
 4973 1236 8C120000 		.4byte	0x128c
 4974 123a FB0B0000 		.4byte	.LLST94
 4975 123e 21       		.uleb128 0x21
 4976 123f C60E0000 		.4byte	.LASF73
 4977 1243 01       		.byte	0x1
 4978 1244 8C02     		.2byte	0x28c
 4979 1246 2B010000 		.4byte	0x12b
 4980 124a 270C0000 		.4byte	.LLST95
 4981 124e 21       		.uleb128 0x21
 4982 124f C9010000 		.4byte	.LASF91
 4983 1253 01       		.byte	0x1
 4984 1254 8D02     		.2byte	0x28d
 4985 1256 36010000 		.4byte	0x136
 4986 125a 450C0000 		.4byte	.LLST96
 4987 125e 16       		.uleb128 0x16
 4988 125f 08000000 		.4byte	.LVL204
ARM GAS  C:\Users\Reza\AppData\Local\Temp\cckOPwM0.s 			page 112


 4989 1263 14030000 		.4byte	0x314
 4990 1267 1A       		.uleb128 0x1a
 4991 1268 10000000 		.4byte	.LVL207
 4992 126c FD240000 		.4byte	0x24fd
 4993 1270 7B120000 		.4byte	0x127b
 4994 1274 1B       		.uleb128 0x1b
 4995 1275 01       		.uleb128 0x1
 4996 1276 50       		.byte	0x50
 4997 1277 02       		.uleb128 0x2
 4998 1278 74       		.byte	0x74
 4999 1279 00       		.sleb128 0
 5000 127a 00       		.byte	0
 5001 127b 1C       		.uleb128 0x1c
 5002 127c 18000000 		.4byte	.LVL210
 5003 1280 7F030000 		.4byte	0x37f
 5004 1284 1B       		.uleb128 0x1b
 5005 1285 01       		.uleb128 0x1
 5006 1286 50       		.byte	0x50
 5007 1287 02       		.uleb128 0x2
 5008 1288 75       		.byte	0x75
 5009 1289 00       		.sleb128 0
 5010 128a 00       		.byte	0
 5011 128b 00       		.byte	0
 5012 128c 07       		.uleb128 0x7
 5013 128d C7020000 		.4byte	0x2c7
 5014 1291 22       		.uleb128 0x22
 5015 1292 9B0C0000 		.4byte	.LASF142
 5016 1296 01       		.byte	0x1
 5017 1297 9502     		.2byte	0x295
 5018 1299 36010000 		.4byte	0x136
 5019 129d 00000000 		.4byte	.LFB99
 5020 12a1 1C000000 		.4byte	.LFE99-.LFB99
 5021 12a5 01       		.uleb128 0x1
 5022 12a6 9C       		.byte	0x9c
 5023 12a7 09130000 		.4byte	0x1309
 5024 12ab 20       		.uleb128 0x20
 5025 12ac FF0C0000 		.4byte	.LASF138
 5026 12b0 01       		.byte	0x1
 5027 12b1 9502     		.2byte	0x295
 5028 12b3 8C120000 		.4byte	0x128c
 5029 12b7 630C0000 		.4byte	.LLST97
 5030 12bb 21       		.uleb128 0x21
 5031 12bc C60E0000 		.4byte	.LASF73
 5032 12c0 01       		.byte	0x1
 5033 12c1 9702     		.2byte	0x297
 5034 12c3 2B010000 		.4byte	0x12b
 5035 12c7 8F0C0000 		.4byte	.LLST98
 5036 12cb 21       		.uleb128 0x21
 5037 12cc C9010000 		.4byte	.LASF91
 5038 12d0 01       		.byte	0x1
 5039 12d1 9802     		.2byte	0x298
 5040 12d3 36010000 		.4byte	0x136
 5041 12d7 AD0C0000 		.4byte	.LLST99
 5042 12db 16       		.uleb128 0x16
 5043 12dc 08000000 		.4byte	.LVL212
 5044 12e0 14030000 		.4byte	0x314
 5045 12e4 1A       		.uleb128 0x1a
ARM GAS  C:\Users\Reza\AppData\Local\Temp\cckOPwM0.s 			page 113


 5046 12e5 10000000 		.4byte	.LVL215
 5047 12e9 09250000 		.4byte	0x2509
 5048 12ed F8120000 		.4byte	0x12f8
 5049 12f1 1B       		.uleb128 0x1b
 5050 12f2 01       		.uleb128 0x1
 5051 12f3 50       		.byte	0x50
 5052 12f4 02       		.uleb128 0x2
 5053 12f5 74       		.byte	0x74
 5054 12f6 00       		.sleb128 0
 5055 12f7 00       		.byte	0
 5056 12f8 1C       		.uleb128 0x1c
 5057 12f9 18000000 		.4byte	.LVL218
 5058 12fd 7F030000 		.4byte	0x37f
 5059 1301 1B       		.uleb128 0x1b
 5060 1302 01       		.uleb128 0x1
 5061 1303 50       		.byte	0x50
 5062 1304 02       		.uleb128 0x2
 5063 1305 75       		.byte	0x75
 5064 1306 00       		.sleb128 0
 5065 1307 00       		.byte	0
 5066 1308 00       		.byte	0
 5067 1309 22       		.uleb128 0x22
 5068 130a A0100000 		.4byte	.LASF143
 5069 130e 01       		.byte	0x1
 5070 130f A002     		.2byte	0x2a0
 5071 1311 2B010000 		.4byte	0x12b
 5072 1315 00000000 		.4byte	.LFB100
 5073 1319 24000000 		.4byte	.LFE100-.LFB100
 5074 131d 01       		.uleb128 0x1
 5075 131e 9C       		.byte	0x9c
 5076 131f AD130000 		.4byte	0x13ad
 5077 1323 20       		.uleb128 0x20
 5078 1324 7A050000 		.4byte	.LASF135
 5079 1328 01       		.byte	0x1
 5080 1329 A002     		.2byte	0x2a0
 5081 132b C7020000 		.4byte	0x2c7
 5082 132f CB0C0000 		.4byte	.LLST100
 5083 1333 20       		.uleb128 0x20
 5084 1334 630B0000 		.4byte	.LASF144
 5085 1338 01       		.byte	0x1
 5086 1339 A002     		.2byte	0x2a0
 5087 133b AD130000 		.4byte	0x13ad
 5088 133f F70C0000 		.4byte	.LLST101
 5089 1343 20       		.uleb128 0x20
 5090 1344 4C0C0000 		.4byte	.LASF123
 5091 1348 01       		.byte	0x1
 5092 1349 A002     		.2byte	0x2a0
 5093 134b 41010000 		.4byte	0x141
 5094 134f 150D0000 		.4byte	.LLST102
 5095 1353 21       		.uleb128 0x21
 5096 1354 C60E0000 		.4byte	.LASF73
 5097 1358 01       		.byte	0x1
 5098 1359 A202     		.2byte	0x2a2
 5099 135b 2B010000 		.4byte	0x12b
 5100 135f 330D0000 		.4byte	.LLST103
 5101 1363 21       		.uleb128 0x21
 5102 1364 8E040000 		.4byte	.LASF76
ARM GAS  C:\Users\Reza\AppData\Local\Temp\cckOPwM0.s 			page 114


 5103 1368 01       		.byte	0x1
 5104 1369 A302     		.2byte	0x2a3
 5105 136b 2B010000 		.4byte	0x12b
 5106 136f 510D0000 		.4byte	.LLST104
 5107 1373 16       		.uleb128 0x16
 5108 1374 0C000000 		.4byte	.LVL220
 5109 1378 14030000 		.4byte	0x314
 5110 137c 1A       		.uleb128 0x1a
 5111 137d 18000000 		.4byte	.LVL223
 5112 1381 15250000 		.4byte	0x2515
 5113 1385 9C130000 		.4byte	0x139c
 5114 1389 1B       		.uleb128 0x1b
 5115 138a 01       		.uleb128 0x1
 5116 138b 50       		.byte	0x50
 5117 138c 02       		.uleb128 0x2
 5118 138d 74       		.byte	0x74
 5119 138e 00       		.sleb128 0
 5120 138f 1B       		.uleb128 0x1b
 5121 1390 01       		.uleb128 0x1
 5122 1391 51       		.byte	0x51
 5123 1392 02       		.uleb128 0x2
 5124 1393 76       		.byte	0x76
 5125 1394 00       		.sleb128 0
 5126 1395 1B       		.uleb128 0x1b
 5127 1396 01       		.uleb128 0x1
 5128 1397 52       		.byte	0x52
 5129 1398 02       		.uleb128 0x2
 5130 1399 77       		.byte	0x77
 5131 139a 00       		.sleb128 0
 5132 139b 00       		.byte	0
 5133 139c 1C       		.uleb128 0x1c
 5134 139d 20000000 		.4byte	.LVL226
 5135 13a1 7F030000 		.4byte	0x37f
 5136 13a5 1B       		.uleb128 0x1b
 5137 13a6 01       		.uleb128 0x1
 5138 13a7 50       		.byte	0x50
 5139 13a8 02       		.uleb128 0x2
 5140 13a9 75       		.byte	0x75
 5141 13aa 00       		.sleb128 0
 5142 13ab 00       		.byte	0
 5143 13ac 00       		.byte	0
 5144 13ad 07       		.uleb128 0x7
 5145 13ae F1000000 		.4byte	0xf1
 5146 13b2 22       		.uleb128 0x22
 5147 13b3 27100000 		.4byte	.LASF145
 5148 13b7 01       		.byte	0x1
 5149 13b8 AB02     		.2byte	0x2ab
 5150 13ba 2B010000 		.4byte	0x12b
 5151 13be 00000000 		.4byte	.LFB101
 5152 13c2 24000000 		.4byte	.LFE101-.LFB101
 5153 13c6 01       		.uleb128 0x1
 5154 13c7 9C       		.byte	0x9c
 5155 13c8 56140000 		.4byte	0x1456
 5156 13cc 20       		.uleb128 0x20
 5157 13cd FF0C0000 		.4byte	.LASF138
 5158 13d1 01       		.byte	0x1
 5159 13d2 AB02     		.2byte	0x2ab
ARM GAS  C:\Users\Reza\AppData\Local\Temp\cckOPwM0.s 			page 115


 5160 13d4 C7020000 		.4byte	0x2c7
 5161 13d8 6F0D0000 		.4byte	.LLST105
 5162 13dc 20       		.uleb128 0x20
 5163 13dd 630B0000 		.4byte	.LASF144
 5164 13e1 01       		.byte	0x1
 5165 13e2 AB02     		.2byte	0x2ab
 5166 13e4 AD130000 		.4byte	0x13ad
 5167 13e8 9B0D0000 		.4byte	.LLST106
 5168 13ec 20       		.uleb128 0x20
 5169 13ed 4C0C0000 		.4byte	.LASF123
 5170 13f1 01       		.byte	0x1
 5171 13f2 AB02     		.2byte	0x2ab
 5172 13f4 41010000 		.4byte	0x141
 5173 13f8 B90D0000 		.4byte	.LLST107
 5174 13fc 21       		.uleb128 0x21
 5175 13fd C60E0000 		.4byte	.LASF73
 5176 1401 01       		.byte	0x1
 5177 1402 AD02     		.2byte	0x2ad
 5178 1404 2B010000 		.4byte	0x12b
 5179 1408 D70D0000 		.4byte	.LLST108
 5180 140c 21       		.uleb128 0x21
 5181 140d 8E040000 		.4byte	.LASF76
 5182 1411 01       		.byte	0x1
 5183 1412 AE02     		.2byte	0x2ae
 5184 1414 2B010000 		.4byte	0x12b
 5185 1418 F50D0000 		.4byte	.LLST109
 5186 141c 16       		.uleb128 0x16
 5187 141d 0C000000 		.4byte	.LVL228
 5188 1421 14030000 		.4byte	0x314
 5189 1425 1A       		.uleb128 0x1a
 5190 1426 18000000 		.4byte	.LVL231
 5191 142a 21250000 		.4byte	0x2521
 5192 142e 45140000 		.4byte	0x1445
 5193 1432 1B       		.uleb128 0x1b
 5194 1433 01       		.uleb128 0x1
 5195 1434 50       		.byte	0x50
 5196 1435 02       		.uleb128 0x2
 5197 1436 74       		.byte	0x74
 5198 1437 00       		.sleb128 0
 5199 1438 1B       		.uleb128 0x1b
 5200 1439 01       		.uleb128 0x1
 5201 143a 51       		.byte	0x51
 5202 143b 02       		.uleb128 0x2
 5203 143c 76       		.byte	0x76
 5204 143d 00       		.sleb128 0
 5205 143e 1B       		.uleb128 0x1b
 5206 143f 01       		.uleb128 0x1
 5207 1440 52       		.byte	0x52
 5208 1441 02       		.uleb128 0x2
 5209 1442 77       		.byte	0x77
 5210 1443 00       		.sleb128 0
 5211 1444 00       		.byte	0
 5212 1445 1C       		.uleb128 0x1c
 5213 1446 20000000 		.4byte	.LVL234
 5214 144a 7F030000 		.4byte	0x37f
 5215 144e 1B       		.uleb128 0x1b
 5216 144f 01       		.uleb128 0x1
ARM GAS  C:\Users\Reza\AppData\Local\Temp\cckOPwM0.s 			page 116


 5217 1450 50       		.byte	0x50
 5218 1451 02       		.uleb128 0x2
 5219 1452 75       		.byte	0x75
 5220 1453 00       		.sleb128 0
 5221 1454 00       		.byte	0
 5222 1455 00       		.byte	0
 5223 1456 22       		.uleb128 0x22
 5224 1457 240A0000 		.4byte	.LASF146
 5225 145b 01       		.byte	0x1
 5226 145c B602     		.2byte	0x2b6
 5227 145e 2B010000 		.4byte	0x12b
 5228 1462 00000000 		.4byte	.LFB102
 5229 1466 20000000 		.4byte	.LFE102-.LFB102
 5230 146a 01       		.uleb128 0x1
 5231 146b 9C       		.byte	0x9c
 5232 146c E4140000 		.4byte	0x14e4
 5233 1470 20       		.uleb128 0x20
 5234 1471 FF0C0000 		.4byte	.LASF138
 5235 1475 01       		.byte	0x1
 5236 1476 B602     		.2byte	0x2b6
 5237 1478 C7020000 		.4byte	0x2c7
 5238 147c 130E0000 		.4byte	.LLST110
 5239 1480 20       		.uleb128 0x20
 5240 1481 4C0C0000 		.4byte	.LASF123
 5241 1485 01       		.byte	0x1
 5242 1486 B602     		.2byte	0x2b6
 5243 1488 41010000 		.4byte	0x141
 5244 148c 3F0E0000 		.4byte	.LLST111
 5245 1490 21       		.uleb128 0x21
 5246 1491 C60E0000 		.4byte	.LASF73
 5247 1495 01       		.byte	0x1
 5248 1496 B802     		.2byte	0x2b8
 5249 1498 2B010000 		.4byte	0x12b
 5250 149c 5D0E0000 		.4byte	.LLST112
 5251 14a0 21       		.uleb128 0x21
 5252 14a1 8E040000 		.4byte	.LASF76
 5253 14a5 01       		.byte	0x1
 5254 14a6 B902     		.2byte	0x2b9
 5255 14a8 2B010000 		.4byte	0x12b
 5256 14ac 7B0E0000 		.4byte	.LLST113
 5257 14b0 16       		.uleb128 0x16
 5258 14b1 0A000000 		.4byte	.LVL236
 5259 14b5 14030000 		.4byte	0x314
 5260 14b9 1A       		.uleb128 0x1a
 5261 14ba 14000000 		.4byte	.LVL239
 5262 14be 2D250000 		.4byte	0x252d
 5263 14c2 D3140000 		.4byte	0x14d3
 5264 14c6 1B       		.uleb128 0x1b
 5265 14c7 01       		.uleb128 0x1
 5266 14c8 50       		.byte	0x50
 5267 14c9 02       		.uleb128 0x2
 5268 14ca 74       		.byte	0x74
 5269 14cb 00       		.sleb128 0
 5270 14cc 1B       		.uleb128 0x1b
 5271 14cd 01       		.uleb128 0x1
 5272 14ce 51       		.byte	0x51
 5273 14cf 02       		.uleb128 0x2
ARM GAS  C:\Users\Reza\AppData\Local\Temp\cckOPwM0.s 			page 117


 5274 14d0 76       		.byte	0x76
 5275 14d1 00       		.sleb128 0
 5276 14d2 00       		.byte	0
 5277 14d3 1C       		.uleb128 0x1c
 5278 14d4 1C000000 		.4byte	.LVL242
 5279 14d8 7F030000 		.4byte	0x37f
 5280 14dc 1B       		.uleb128 0x1b
 5281 14dd 01       		.uleb128 0x1
 5282 14de 50       		.byte	0x50
 5283 14df 02       		.uleb128 0x2
 5284 14e0 75       		.byte	0x75
 5285 14e1 00       		.sleb128 0
 5286 14e2 00       		.byte	0
 5287 14e3 00       		.byte	0
 5288 14e4 22       		.uleb128 0x22
 5289 14e5 42070000 		.4byte	.LASF147
 5290 14e9 01       		.byte	0x1
 5291 14ea CF02     		.2byte	0x2cf
 5292 14ec C7020000 		.4byte	0x2c7
 5293 14f0 00000000 		.4byte	.LFB103
 5294 14f4 1C000000 		.4byte	.LFE103-.LFB103
 5295 14f8 01       		.uleb128 0x1
 5296 14f9 9C       		.byte	0x9c
 5297 14fa 5C150000 		.4byte	0x155c
 5298 14fe 20       		.uleb128 0x20
 5299 14ff 3C0A0000 		.4byte	.LASF133
 5300 1503 01       		.byte	0x1
 5301 1504 CF02     		.2byte	0x2cf
 5302 1506 5C150000 		.4byte	0x155c
 5303 150a 990E0000 		.4byte	.LLST114
 5304 150e 21       		.uleb128 0x21
 5305 150f 8E040000 		.4byte	.LASF76
 5306 1513 01       		.byte	0x1
 5307 1514 D102     		.2byte	0x2d1
 5308 1516 C7020000 		.4byte	0x2c7
 5309 151a BA0E0000 		.4byte	.LLST115
 5310 151e 21       		.uleb128 0x21
 5311 151f C60E0000 		.4byte	.LASF73
 5312 1523 01       		.byte	0x1
 5313 1524 D202     		.2byte	0x2d2
 5314 1526 2B010000 		.4byte	0x12b
 5315 152a D80E0000 		.4byte	.LLST116
 5316 152e 16       		.uleb128 0x16
 5317 152f 08000000 		.4byte	.LVL244
 5318 1533 14030000 		.4byte	0x314
 5319 1537 1A       		.uleb128 0x1a
 5320 1538 10000000 		.4byte	.LVL247
 5321 153c 39250000 		.4byte	0x2539
 5322 1540 4B150000 		.4byte	0x154b
 5323 1544 1B       		.uleb128 0x1b
 5324 1545 01       		.uleb128 0x1
 5325 1546 50       		.byte	0x50
 5326 1547 02       		.uleb128 0x2
 5327 1548 74       		.byte	0x74
 5328 1549 00       		.sleb128 0
 5329 154a 00       		.byte	0
 5330 154b 1C       		.uleb128 0x1c
ARM GAS  C:\Users\Reza\AppData\Local\Temp\cckOPwM0.s 			page 118


 5331 154c 18000000 		.4byte	.LVL250
 5332 1550 7F030000 		.4byte	0x37f
 5333 1554 1B       		.uleb128 0x1b
 5334 1555 01       		.uleb128 0x1
 5335 1556 50       		.byte	0x50
 5336 1557 02       		.uleb128 0x2
 5337 1558 75       		.byte	0x75
 5338 1559 00       		.sleb128 0
 5339 155a 00       		.byte	0
 5340 155b 00       		.byte	0
 5341 155c 07       		.uleb128 0x7
 5342 155d A9000000 		.4byte	0xa9
 5343 1561 22       		.uleb128 0x22
 5344 1562 000F0000 		.4byte	.LASF148
 5345 1566 01       		.byte	0x1
 5346 1567 E902     		.2byte	0x2e9
 5347 1569 C7020000 		.4byte	0x2c7
 5348 156d 00000000 		.4byte	.LFB104
 5349 1571 20000000 		.4byte	.LFE104-.LFB104
 5350 1575 01       		.uleb128 0x1
 5351 1576 9C       		.byte	0x9c
 5352 1577 EF150000 		.4byte	0x15ef
 5353 157b 20       		.uleb128 0x20
 5354 157c 59100000 		.4byte	.LASF149
 5355 1580 01       		.byte	0x1
 5356 1581 E902     		.2byte	0x2e9
 5357 1583 36010000 		.4byte	0x136
 5358 1587 F60E0000 		.4byte	.LLST117
 5359 158b 20       		.uleb128 0x20
 5360 158c 7F070000 		.4byte	.LASF150
 5361 1590 01       		.byte	0x1
 5362 1591 E902     		.2byte	0x2e9
 5363 1593 36010000 		.4byte	0x136
 5364 1597 220F0000 		.4byte	.LLST118
 5365 159b 21       		.uleb128 0x21
 5366 159c 8E040000 		.4byte	.LASF76
 5367 15a0 01       		.byte	0x1
 5368 15a1 EB02     		.2byte	0x2eb
 5369 15a3 C7020000 		.4byte	0x2c7
 5370 15a7 400F0000 		.4byte	.LLST119
 5371 15ab 21       		.uleb128 0x21
 5372 15ac C60E0000 		.4byte	.LASF73
 5373 15b0 01       		.byte	0x1
 5374 15b1 EC02     		.2byte	0x2ec
 5375 15b3 2B010000 		.4byte	0x12b
 5376 15b7 5E0F0000 		.4byte	.LLST120
 5377 15bb 16       		.uleb128 0x16
 5378 15bc 0A000000 		.4byte	.LVL252
 5379 15c0 14030000 		.4byte	0x314
 5380 15c4 1A       		.uleb128 0x1a
 5381 15c5 14000000 		.4byte	.LVL255
 5382 15c9 45250000 		.4byte	0x2545
 5383 15cd DE150000 		.4byte	0x15de
 5384 15d1 1B       		.uleb128 0x1b
 5385 15d2 01       		.uleb128 0x1
 5386 15d3 50       		.byte	0x50
 5387 15d4 02       		.uleb128 0x2
ARM GAS  C:\Users\Reza\AppData\Local\Temp\cckOPwM0.s 			page 119


 5388 15d5 74       		.byte	0x74
 5389 15d6 00       		.sleb128 0
 5390 15d7 1B       		.uleb128 0x1b
 5391 15d8 01       		.uleb128 0x1
 5392 15d9 51       		.byte	0x51
 5393 15da 02       		.uleb128 0x2
 5394 15db 76       		.byte	0x76
 5395 15dc 00       		.sleb128 0
 5396 15dd 00       		.byte	0
 5397 15de 1C       		.uleb128 0x1c
 5398 15df 1C000000 		.4byte	.LVL258
 5399 15e3 7F030000 		.4byte	0x37f
 5400 15e7 1B       		.uleb128 0x1b
 5401 15e8 01       		.uleb128 0x1
 5402 15e9 50       		.byte	0x50
 5403 15ea 02       		.uleb128 0x2
 5404 15eb 75       		.byte	0x75
 5405 15ec 00       		.sleb128 0
 5406 15ed 00       		.byte	0
 5407 15ee 00       		.byte	0
 5408 15ef 22       		.uleb128 0x22
 5409 15f0 640A0000 		.4byte	.LASF151
 5410 15f4 01       		.byte	0x1
 5411 15f5 0403     		.2byte	0x304
 5412 15f7 2B010000 		.4byte	0x12b
 5413 15fb 00000000 		.4byte	.LFB105
 5414 15ff 20000000 		.4byte	.LFE105-.LFB105
 5415 1603 01       		.uleb128 0x1
 5416 1604 9C       		.byte	0x9c
 5417 1605 7D160000 		.4byte	0x167d
 5418 1609 20       		.uleb128 0x20
 5419 160a 660F0000 		.4byte	.LASF152
 5420 160e 01       		.byte	0x1
 5421 160f 0403     		.2byte	0x304
 5422 1611 C7020000 		.4byte	0x2c7
 5423 1615 7C0F0000 		.4byte	.LLST121
 5424 1619 20       		.uleb128 0x20
 5425 161a C5000000 		.4byte	.LASF153
 5426 161e 01       		.byte	0x1
 5427 161f 0403     		.2byte	0x304
 5428 1621 41010000 		.4byte	0x141
 5429 1625 A80F0000 		.4byte	.LLST122
 5430 1629 21       		.uleb128 0x21
 5431 162a 8E040000 		.4byte	.LASF76
 5432 162e 01       		.byte	0x1
 5433 162f 0603     		.2byte	0x306
 5434 1631 2B010000 		.4byte	0x12b
 5435 1635 C60F0000 		.4byte	.LLST123
 5436 1639 21       		.uleb128 0x21
 5437 163a C60E0000 		.4byte	.LASF73
 5438 163e 01       		.byte	0x1
 5439 163f 0703     		.2byte	0x307
 5440 1641 2B010000 		.4byte	0x12b
 5441 1645 E40F0000 		.4byte	.LLST124
 5442 1649 16       		.uleb128 0x16
 5443 164a 0A000000 		.4byte	.LVL260
 5444 164e 14030000 		.4byte	0x314
ARM GAS  C:\Users\Reza\AppData\Local\Temp\cckOPwM0.s 			page 120


 5445 1652 1A       		.uleb128 0x1a
 5446 1653 14000000 		.4byte	.LVL263
 5447 1657 51250000 		.4byte	0x2551
 5448 165b 6C160000 		.4byte	0x166c
 5449 165f 1B       		.uleb128 0x1b
 5450 1660 01       		.uleb128 0x1
 5451 1661 50       		.byte	0x50
 5452 1662 02       		.uleb128 0x2
 5453 1663 74       		.byte	0x74
 5454 1664 00       		.sleb128 0
 5455 1665 1B       		.uleb128 0x1b
 5456 1666 01       		.uleb128 0x1
 5457 1667 51       		.byte	0x51
 5458 1668 02       		.uleb128 0x2
 5459 1669 76       		.byte	0x76
 5460 166a 00       		.sleb128 0
 5461 166b 00       		.byte	0
 5462 166c 1C       		.uleb128 0x1c
 5463 166d 1C000000 		.4byte	.LVL266
 5464 1671 7F030000 		.4byte	0x37f
 5465 1675 1B       		.uleb128 0x1b
 5466 1676 01       		.uleb128 0x1
 5467 1677 50       		.byte	0x50
 5468 1678 02       		.uleb128 0x2
 5469 1679 75       		.byte	0x75
 5470 167a 00       		.sleb128 0
 5471 167b 00       		.byte	0
 5472 167c 00       		.byte	0
 5473 167d 22       		.uleb128 0x22
 5474 167e 4B110000 		.4byte	.LASF154
 5475 1682 01       		.byte	0x1
 5476 1683 1103     		.2byte	0x311
 5477 1685 2B010000 		.4byte	0x12b
 5478 1689 00000000 		.4byte	.LFB106
 5479 168d 1C000000 		.4byte	.LFE106-.LFB106
 5480 1691 01       		.uleb128 0x1
 5481 1692 9C       		.byte	0x9c
 5482 1693 F5160000 		.4byte	0x16f5
 5483 1697 20       		.uleb128 0x20
 5484 1698 660F0000 		.4byte	.LASF152
 5485 169c 01       		.byte	0x1
 5486 169d 1103     		.2byte	0x311
 5487 169f C7020000 		.4byte	0x2c7
 5488 16a3 02100000 		.4byte	.LLST125
 5489 16a7 21       		.uleb128 0x21
 5490 16a8 8E040000 		.4byte	.LASF76
 5491 16ac 01       		.byte	0x1
 5492 16ad 1303     		.2byte	0x313
 5493 16af 2B010000 		.4byte	0x12b
 5494 16b3 2E100000 		.4byte	.LLST126
 5495 16b7 21       		.uleb128 0x21
 5496 16b8 C60E0000 		.4byte	.LASF73
 5497 16bc 01       		.byte	0x1
 5498 16bd 1403     		.2byte	0x314
 5499 16bf 2B010000 		.4byte	0x12b
 5500 16c3 4C100000 		.4byte	.LLST127
 5501 16c7 16       		.uleb128 0x16
ARM GAS  C:\Users\Reza\AppData\Local\Temp\cckOPwM0.s 			page 121


 5502 16c8 08000000 		.4byte	.LVL268
 5503 16cc 14030000 		.4byte	0x314
 5504 16d0 1A       		.uleb128 0x1a
 5505 16d1 10000000 		.4byte	.LVL271
 5506 16d5 5D250000 		.4byte	0x255d
 5507 16d9 E4160000 		.4byte	0x16e4
 5508 16dd 1B       		.uleb128 0x1b
 5509 16de 01       		.uleb128 0x1
 5510 16df 50       		.byte	0x50
 5511 16e0 02       		.uleb128 0x2
 5512 16e1 74       		.byte	0x74
 5513 16e2 00       		.sleb128 0
 5514 16e3 00       		.byte	0
 5515 16e4 1C       		.uleb128 0x1c
 5516 16e5 18000000 		.4byte	.LVL274
 5517 16e9 7F030000 		.4byte	0x37f
 5518 16ed 1B       		.uleb128 0x1b
 5519 16ee 01       		.uleb128 0x1
 5520 16ef 50       		.byte	0x50
 5521 16f0 02       		.uleb128 0x2
 5522 16f1 75       		.byte	0x75
 5523 16f2 00       		.sleb128 0
 5524 16f3 00       		.byte	0
 5525 16f4 00       		.byte	0
 5526 16f5 1F       		.uleb128 0x1f
 5527 16f6 1C050000 		.4byte	.LASF155
 5528 16fa 01       		.byte	0x1
 5529 16fb 5203     		.2byte	0x352
 5530 16fd 00000000 		.4byte	.LFB107
 5531 1701 1C000000 		.4byte	.LFE107-.LFB107
 5532 1705 01       		.uleb128 0x1
 5533 1706 9C       		.byte	0x9c
 5534 1707 6F170000 		.4byte	0x176f
 5535 170b 20       		.uleb128 0x20
 5536 170c FF0C0000 		.4byte	.LASF138
 5537 1710 01       		.byte	0x1
 5538 1711 5203     		.2byte	0x352
 5539 1713 C7020000 		.4byte	0x2c7
 5540 1717 6A100000 		.4byte	.LLST128
 5541 171b 20       		.uleb128 0x20
 5542 171c DA030000 		.4byte	.LASF53
 5543 1720 01       		.byte	0x1
 5544 1721 5203     		.2byte	0x352
 5545 1723 F9000000 		.4byte	0xf9
 5546 1727 88100000 		.4byte	.LLST129
 5547 172b 21       		.uleb128 0x21
 5548 172c C60E0000 		.4byte	.LASF73
 5549 1730 01       		.byte	0x1
 5550 1731 5403     		.2byte	0x354
 5551 1733 2B010000 		.4byte	0x12b
 5552 1737 A6100000 		.4byte	.LLST130
 5553 173b 16       		.uleb128 0x16
 5554 173c 0A000000 		.4byte	.LVL276
 5555 1740 14030000 		.4byte	0x314
 5556 1744 1A       		.uleb128 0x1a
 5557 1745 14000000 		.4byte	.LVL279
 5558 1749 69250000 		.4byte	0x2569
ARM GAS  C:\Users\Reza\AppData\Local\Temp\cckOPwM0.s 			page 122


 5559 174d 5E170000 		.4byte	0x175e
 5560 1751 1B       		.uleb128 0x1b
 5561 1752 01       		.uleb128 0x1
 5562 1753 50       		.byte	0x50
 5563 1754 02       		.uleb128 0x2
 5564 1755 75       		.byte	0x75
 5565 1756 00       		.sleb128 0
 5566 1757 1B       		.uleb128 0x1b
 5567 1758 01       		.uleb128 0x1
 5568 1759 51       		.byte	0x51
 5569 175a 02       		.uleb128 0x2
 5570 175b 76       		.byte	0x76
 5571 175c 00       		.sleb128 0
 5572 175d 00       		.byte	0
 5573 175e 1C       		.uleb128 0x1c
 5574 175f 1A000000 		.4byte	.LVL280
 5575 1763 7F030000 		.4byte	0x37f
 5576 1767 1B       		.uleb128 0x1b
 5577 1768 01       		.uleb128 0x1
 5578 1769 50       		.byte	0x50
 5579 176a 02       		.uleb128 0x2
 5580 176b 74       		.byte	0x74
 5581 176c 00       		.sleb128 0
 5582 176d 00       		.byte	0
 5583 176e 00       		.byte	0
 5584 176f 1F       		.uleb128 0x1f
 5585 1770 2C0B0000 		.4byte	.LASF156
 5586 1774 01       		.byte	0x1
 5587 1775 5E03     		.2byte	0x35e
 5588 1777 00000000 		.4byte	.LFB108
 5589 177b 18000000 		.4byte	.LFE108-.LFB108
 5590 177f 01       		.uleb128 0x1
 5591 1780 9C       		.byte	0x9c
 5592 1781 D3170000 		.4byte	0x17d3
 5593 1785 20       		.uleb128 0x20
 5594 1786 FF0C0000 		.4byte	.LASF138
 5595 178a 01       		.byte	0x1
 5596 178b 5E03     		.2byte	0x35e
 5597 178d C7020000 		.4byte	0x2c7
 5598 1791 C4100000 		.4byte	.LLST131
 5599 1795 21       		.uleb128 0x21
 5600 1796 C60E0000 		.4byte	.LASF73
 5601 179a 01       		.byte	0x1
 5602 179b 6003     		.2byte	0x360
 5603 179d 2B010000 		.4byte	0x12b
 5604 17a1 E2100000 		.4byte	.LLST132
 5605 17a5 16       		.uleb128 0x16
 5606 17a6 08000000 		.4byte	.LVL282
 5607 17aa 14030000 		.4byte	0x314
 5608 17ae 1A       		.uleb128 0x1a
 5609 17af 10000000 		.4byte	.LVL285
 5610 17b3 75250000 		.4byte	0x2575
 5611 17b7 C2170000 		.4byte	0x17c2
 5612 17bb 1B       		.uleb128 0x1b
 5613 17bc 01       		.uleb128 0x1
 5614 17bd 50       		.byte	0x50
 5615 17be 02       		.uleb128 0x2
ARM GAS  C:\Users\Reza\AppData\Local\Temp\cckOPwM0.s 			page 123


 5616 17bf 75       		.byte	0x75
 5617 17c0 00       		.sleb128 0
 5618 17c1 00       		.byte	0
 5619 17c2 1C       		.uleb128 0x1c
 5620 17c3 16000000 		.4byte	.LVL286
 5621 17c7 7F030000 		.4byte	0x37f
 5622 17cb 1B       		.uleb128 0x1b
 5623 17cc 01       		.uleb128 0x1
 5624 17cd 50       		.byte	0x50
 5625 17ce 02       		.uleb128 0x2
 5626 17cf 74       		.byte	0x74
 5627 17d0 00       		.sleb128 0
 5628 17d1 00       		.byte	0
 5629 17d2 00       		.byte	0
 5630 17d3 22       		.uleb128 0x22
 5631 17d4 8D080000 		.4byte	.LASF157
 5632 17d8 01       		.byte	0x1
 5633 17d9 6A03     		.2byte	0x36a
 5634 17db F9000000 		.4byte	0xf9
 5635 17df 00000000 		.4byte	.LFB109
 5636 17e3 1C000000 		.4byte	.LFE109-.LFB109
 5637 17e7 01       		.uleb128 0x1
 5638 17e8 9C       		.byte	0x9c
 5639 17e9 4B180000 		.4byte	0x184b
 5640 17ed 20       		.uleb128 0x20
 5641 17ee FF0C0000 		.4byte	.LASF138
 5642 17f2 01       		.byte	0x1
 5643 17f3 6A03     		.2byte	0x36a
 5644 17f5 C7020000 		.4byte	0x2c7
 5645 17f9 00110000 		.4byte	.LLST133
 5646 17fd 21       		.uleb128 0x21
 5647 17fe C60E0000 		.4byte	.LASF73
 5648 1802 01       		.byte	0x1
 5649 1803 6C03     		.2byte	0x36c
 5650 1805 2B010000 		.4byte	0x12b
 5651 1809 2C110000 		.4byte	.LLST134
 5652 180d 21       		.uleb128 0x21
 5653 180e 85040000 		.4byte	.LASF106
 5654 1812 01       		.byte	0x1
 5655 1813 6D03     		.2byte	0x36d
 5656 1815 F9000000 		.4byte	0xf9
 5657 1819 4A110000 		.4byte	.LLST135
 5658 181d 16       		.uleb128 0x16
 5659 181e 08000000 		.4byte	.LVL288
 5660 1822 14030000 		.4byte	0x314
 5661 1826 1A       		.uleb128 0x1a
 5662 1827 10000000 		.4byte	.LVL291
 5663 182b 81250000 		.4byte	0x2581
 5664 182f 3A180000 		.4byte	0x183a
 5665 1833 1B       		.uleb128 0x1b
 5666 1834 01       		.uleb128 0x1
 5667 1835 50       		.byte	0x50
 5668 1836 02       		.uleb128 0x2
 5669 1837 74       		.byte	0x74
 5670 1838 00       		.sleb128 0
 5671 1839 00       		.byte	0
 5672 183a 1C       		.uleb128 0x1c
ARM GAS  C:\Users\Reza\AppData\Local\Temp\cckOPwM0.s 			page 124


 5673 183b 18000000 		.4byte	.LVL294
 5674 183f 7F030000 		.4byte	0x37f
 5675 1843 1B       		.uleb128 0x1b
 5676 1844 01       		.uleb128 0x1
 5677 1845 50       		.byte	0x50
 5678 1846 02       		.uleb128 0x2
 5679 1847 75       		.byte	0x75
 5680 1848 00       		.sleb128 0
 5681 1849 00       		.byte	0
 5682 184a 00       		.byte	0
 5683 184b 1F       		.uleb128 0x1f
 5684 184c EF0E0000 		.4byte	.LASF158
 5685 1850 01       		.byte	0x1
 5686 1851 7703     		.2byte	0x377
 5687 1853 00000000 		.4byte	.LFB110
 5688 1857 18000000 		.4byte	.LFE110-.LFB110
 5689 185b 01       		.uleb128 0x1
 5690 185c 9C       		.byte	0x9c
 5691 185d AF180000 		.4byte	0x18af
 5692 1861 20       		.uleb128 0x20
 5693 1862 FF0C0000 		.4byte	.LASF138
 5694 1866 01       		.byte	0x1
 5695 1867 7703     		.2byte	0x377
 5696 1869 C7020000 		.4byte	0x2c7
 5697 186d 68110000 		.4byte	.LLST136
 5698 1871 21       		.uleb128 0x21
 5699 1872 C60E0000 		.4byte	.LASF73
 5700 1876 01       		.byte	0x1
 5701 1877 7903     		.2byte	0x379
 5702 1879 2B010000 		.4byte	0x12b
 5703 187d 86110000 		.4byte	.LLST137
 5704 1881 16       		.uleb128 0x16
 5705 1882 08000000 		.4byte	.LVL296
 5706 1886 14030000 		.4byte	0x314
 5707 188a 1A       		.uleb128 0x1a
 5708 188b 10000000 		.4byte	.LVL299
 5709 188f 8D250000 		.4byte	0x258d
 5710 1893 9E180000 		.4byte	0x189e
 5711 1897 1B       		.uleb128 0x1b
 5712 1898 01       		.uleb128 0x1
 5713 1899 50       		.byte	0x50
 5714 189a 02       		.uleb128 0x2
 5715 189b 75       		.byte	0x75
 5716 189c 00       		.sleb128 0
 5717 189d 00       		.byte	0
 5718 189e 1C       		.uleb128 0x1c
 5719 189f 16000000 		.4byte	.LVL300
 5720 18a3 7F030000 		.4byte	0x37f
 5721 18a7 1B       		.uleb128 0x1b
 5722 18a8 01       		.uleb128 0x1
 5723 18a9 50       		.byte	0x50
 5724 18aa 02       		.uleb128 0x2
 5725 18ab 74       		.byte	0x74
 5726 18ac 00       		.sleb128 0
 5727 18ad 00       		.byte	0
 5728 18ae 00       		.byte	0
 5729 18af 22       		.uleb128 0x22
ARM GAS  C:\Users\Reza\AppData\Local\Temp\cckOPwM0.s 			page 125


 5730 18b0 590C0000 		.4byte	.LASF159
 5731 18b4 01       		.byte	0x1
 5732 18b5 8203     		.2byte	0x382
 5733 18b7 F1000000 		.4byte	0xf1
 5734 18bb 00000000 		.4byte	.LFB111
 5735 18bf 1C000000 		.4byte	.LFE111-.LFB111
 5736 18c3 01       		.uleb128 0x1
 5737 18c4 9C       		.byte	0x9c
 5738 18c5 27190000 		.4byte	0x1927
 5739 18c9 20       		.uleb128 0x20
 5740 18ca 58080000 		.4byte	.LASF160
 5741 18ce 01       		.byte	0x1
 5742 18cf 8203     		.2byte	0x382
 5743 18d1 2C000000 		.4byte	0x2c
 5744 18d5 A4110000 		.4byte	.LLST138
 5745 18d9 21       		.uleb128 0x21
 5746 18da BA090000 		.4byte	.LASF161
 5747 18de 01       		.byte	0x1
 5748 18df 8403     		.2byte	0x384
 5749 18e1 F1000000 		.4byte	0xf1
 5750 18e5 D0110000 		.4byte	.LLST139
 5751 18e9 21       		.uleb128 0x21
 5752 18ea C60E0000 		.4byte	.LASF73
 5753 18ee 01       		.byte	0x1
 5754 18ef 8503     		.2byte	0x385
 5755 18f1 2B010000 		.4byte	0x12b
 5756 18f5 EE110000 		.4byte	.LLST140
 5757 18f9 16       		.uleb128 0x16
 5758 18fa 08000000 		.4byte	.LVL302
 5759 18fe 14030000 		.4byte	0x314
 5760 1902 1A       		.uleb128 0x1a
 5761 1903 10000000 		.4byte	.LVL305
 5762 1907 99250000 		.4byte	0x2599
 5763 190b 16190000 		.4byte	0x1916
 5764 190f 1B       		.uleb128 0x1b
 5765 1910 01       		.uleb128 0x1
 5766 1911 50       		.byte	0x50
 5767 1912 02       		.uleb128 0x2
 5768 1913 74       		.byte	0x74
 5769 1914 00       		.sleb128 0
 5770 1915 00       		.byte	0
 5771 1916 1C       		.uleb128 0x1c
 5772 1917 18000000 		.4byte	.LVL308
 5773 191b 7F030000 		.4byte	0x37f
 5774 191f 1B       		.uleb128 0x1b
 5775 1920 01       		.uleb128 0x1
 5776 1921 50       		.byte	0x50
 5777 1922 02       		.uleb128 0x2
 5778 1923 75       		.byte	0x75
 5779 1924 00       		.sleb128 0
 5780 1925 00       		.byte	0
 5781 1926 00       		.byte	0
 5782 1927 1F       		.uleb128 0x1f
 5783 1928 D1040000 		.4byte	.LASF162
 5784 192c 01       		.byte	0x1
 5785 192d 9103     		.2byte	0x391
 5786 192f 00000000 		.4byte	.LFB112
ARM GAS  C:\Users\Reza\AppData\Local\Temp\cckOPwM0.s 			page 126


 5787 1933 18000000 		.4byte	.LFE112-.LFB112
 5788 1937 01       		.uleb128 0x1
 5789 1938 9C       		.byte	0x9c
 5790 1939 8A190000 		.4byte	0x198a
 5791 193d 24       		.uleb128 0x24
 5792 193e 707600   		.ascii	"pv\000"
 5793 1941 01       		.byte	0x1
 5794 1942 9103     		.2byte	0x391
 5795 1944 F1000000 		.4byte	0xf1
 5796 1948 0C120000 		.4byte	.LLST141
 5797 194c 21       		.uleb128 0x21
 5798 194d C60E0000 		.4byte	.LASF73
 5799 1951 01       		.byte	0x1
 5800 1952 9303     		.2byte	0x393
 5801 1954 2B010000 		.4byte	0x12b
 5802 1958 2A120000 		.4byte	.LLST142
 5803 195c 16       		.uleb128 0x16
 5804 195d 08000000 		.4byte	.LVL310
 5805 1961 14030000 		.4byte	0x314
 5806 1965 1A       		.uleb128 0x1a
 5807 1966 10000000 		.4byte	.LVL313
 5808 196a A4250000 		.4byte	0x25a4
 5809 196e 79190000 		.4byte	0x1979
 5810 1972 1B       		.uleb128 0x1b
 5811 1973 01       		.uleb128 0x1
 5812 1974 50       		.byte	0x50
 5813 1975 02       		.uleb128 0x2
 5814 1976 75       		.byte	0x75
 5815 1977 00       		.sleb128 0
 5816 1978 00       		.byte	0
 5817 1979 1C       		.uleb128 0x1c
 5818 197a 16000000 		.4byte	.LVL314
 5819 197e 7F030000 		.4byte	0x37f
 5820 1982 1B       		.uleb128 0x1b
 5821 1983 01       		.uleb128 0x1
 5822 1984 50       		.byte	0x50
 5823 1985 02       		.uleb128 0x2
 5824 1986 74       		.byte	0x74
 5825 1987 00       		.sleb128 0
 5826 1988 00       		.byte	0
 5827 1989 00       		.byte	0
 5828 198a 1F       		.uleb128 0x1f
 5829 198b E50C0000 		.4byte	.LASF163
 5830 198f 01       		.byte	0x1
 5831 1990 9D03     		.2byte	0x39d
 5832 1992 00000000 		.4byte	.LFB113
 5833 1996 14000000 		.4byte	.LFE113-.LFB113
 5834 199a 01       		.uleb128 0x1
 5835 199b 9C       		.byte	0x9c
 5836 199c D3190000 		.4byte	0x19d3
 5837 19a0 21       		.uleb128 0x21
 5838 19a1 C60E0000 		.4byte	.LASF73
 5839 19a5 01       		.byte	0x1
 5840 19a6 9F03     		.2byte	0x39f
 5841 19a8 2B010000 		.4byte	0x12b
 5842 19ac 48120000 		.4byte	.LLST143
 5843 19b0 16       		.uleb128 0x16
ARM GAS  C:\Users\Reza\AppData\Local\Temp\cckOPwM0.s 			page 127


 5844 19b1 06000000 		.4byte	.LVL315
 5845 19b5 14030000 		.4byte	0x314
 5846 19b9 16       		.uleb128 0x16
 5847 19ba 0C000000 		.4byte	.LVL317
 5848 19be AF250000 		.4byte	0x25af
 5849 19c2 1C       		.uleb128 0x1c
 5850 19c3 12000000 		.4byte	.LVL318
 5851 19c7 7F030000 		.4byte	0x37f
 5852 19cb 1B       		.uleb128 0x1b
 5853 19cc 01       		.uleb128 0x1
 5854 19cd 50       		.byte	0x50
 5855 19ce 02       		.uleb128 0x2
 5856 19cf 74       		.byte	0x74
 5857 19d0 00       		.sleb128 0
 5858 19d1 00       		.byte	0
 5859 19d2 00       		.byte	0
 5860 19d3 22       		.uleb128 0x22
 5861 19d4 AD0E0000 		.4byte	.LASF164
 5862 19d8 01       		.byte	0x1
 5863 19d9 A903     		.2byte	0x3a9
 5864 19db 2C000000 		.4byte	0x2c
 5865 19df 00000000 		.4byte	.LFB114
 5866 19e3 18000000 		.4byte	.LFE114-.LFB114
 5867 19e7 01       		.uleb128 0x1
 5868 19e8 9C       		.byte	0x9c
 5869 19e9 301A0000 		.4byte	0x1a30
 5870 19ed 21       		.uleb128 0x21
 5871 19ee 8E040000 		.4byte	.LASF76
 5872 19f2 01       		.byte	0x1
 5873 19f3 AB03     		.2byte	0x3ab
 5874 19f5 2C000000 		.4byte	0x2c
 5875 19f9 66120000 		.4byte	.LLST144
 5876 19fd 21       		.uleb128 0x21
 5877 19fe C60E0000 		.4byte	.LASF73
 5878 1a02 01       		.byte	0x1
 5879 1a03 AC03     		.2byte	0x3ac
 5880 1a05 2B010000 		.4byte	0x12b
 5881 1a09 84120000 		.4byte	.LLST145
 5882 1a0d 16       		.uleb128 0x16
 5883 1a0e 06000000 		.4byte	.LVL319
 5884 1a12 14030000 		.4byte	0x314
 5885 1a16 16       		.uleb128 0x16
 5886 1a17 0C000000 		.4byte	.LVL321
 5887 1a1b BA250000 		.4byte	0x25ba
 5888 1a1f 1C       		.uleb128 0x1c
 5889 1a20 14000000 		.4byte	.LVL324
 5890 1a24 7F030000 		.4byte	0x37f
 5891 1a28 1B       		.uleb128 0x1b
 5892 1a29 01       		.uleb128 0x1
 5893 1a2a 50       		.byte	0x50
 5894 1a2b 02       		.uleb128 0x2
 5895 1a2c 75       		.byte	0x75
 5896 1a2d 00       		.sleb128 0
 5897 1a2e 00       		.byte	0
 5898 1a2f 00       		.byte	0
 5899 1a30 22       		.uleb128 0x22
 5900 1a31 D2010000 		.4byte	.LASF165
ARM GAS  C:\Users\Reza\AppData\Local\Temp\cckOPwM0.s 			page 128


 5901 1a35 01       		.byte	0x1
 5902 1a36 6704     		.2byte	0x467
 5903 1a38 DD020000 		.4byte	0x2dd
 5904 1a3c 00000000 		.4byte	.LFB115
 5905 1a40 18000000 		.4byte	.LFE115-.LFB115
 5906 1a44 01       		.uleb128 0x1
 5907 1a45 9C       		.byte	0x9c
 5908 1a46 8D1A0000 		.4byte	0x1a8d
 5909 1a4a 21       		.uleb128 0x21
 5910 1a4b 8E040000 		.4byte	.LASF76
 5911 1a4f 01       		.byte	0x1
 5912 1a50 6904     		.2byte	0x469
 5913 1a52 DD020000 		.4byte	0x2dd
 5914 1a56 A2120000 		.4byte	.LLST146
 5915 1a5a 21       		.uleb128 0x21
 5916 1a5b C60E0000 		.4byte	.LASF73
 5917 1a5f 01       		.byte	0x1
 5918 1a60 6A04     		.2byte	0x46a
 5919 1a62 2B010000 		.4byte	0x12b
 5920 1a66 C0120000 		.4byte	.LLST147
 5921 1a6a 16       		.uleb128 0x16
 5922 1a6b 06000000 		.4byte	.LVL325
 5923 1a6f 14030000 		.4byte	0x314
 5924 1a73 16       		.uleb128 0x16
 5925 1a74 0C000000 		.4byte	.LVL327
 5926 1a78 C5250000 		.4byte	0x25c5
 5927 1a7c 1C       		.uleb128 0x1c
 5928 1a7d 14000000 		.4byte	.LVL330
 5929 1a81 7F030000 		.4byte	0x37f
 5930 1a85 1B       		.uleb128 0x1b
 5931 1a86 01       		.uleb128 0x1
 5932 1a87 50       		.byte	0x50
 5933 1a88 02       		.uleb128 0x2
 5934 1a89 75       		.byte	0x75
 5935 1a8a 00       		.sleb128 0
 5936 1a8b 00       		.byte	0
 5937 1a8c 00       		.byte	0
 5938 1a8d 22       		.uleb128 0x22
 5939 1a8e 220F0000 		.4byte	.LASF166
 5940 1a92 01       		.byte	0x1
 5941 1a93 8204     		.2byte	0x482
 5942 1a95 F3020000 		.4byte	0x2f3
 5943 1a99 00000000 		.4byte	.LFB116
 5944 1a9d 34000000 		.4byte	.LFE116-.LFB116
 5945 1aa1 01       		.uleb128 0x1
 5946 1aa2 9C       		.byte	0x9c
 5947 1aa3 5E1B0000 		.4byte	0x1b5e
 5948 1aa7 20       		.uleb128 0x20
 5949 1aa8 5E060000 		.4byte	.LASF167
 5950 1aac 01       		.byte	0x1
 5951 1aad 8204     		.2byte	0x482
 5952 1aaf DD020000 		.4byte	0x2dd
 5953 1ab3 DE120000 		.4byte	.LLST148
 5954 1ab7 20       		.uleb128 0x20
 5955 1ab8 A7000000 		.4byte	.LASF168
 5956 1abc 01       		.byte	0x1
 5957 1abd 8204     		.2byte	0x482
ARM GAS  C:\Users\Reza\AppData\Local\Temp\cckOPwM0.s 			page 129


 5958 1abf 5E1B0000 		.4byte	0x1b5e
 5959 1ac3 0A130000 		.4byte	.LLST149
 5960 1ac7 20       		.uleb128 0x20
 5961 1ac8 0B090000 		.4byte	.LASF169
 5962 1acc 01       		.byte	0x1
 5963 1acd 8204     		.2byte	0x482
 5964 1acf 631B0000 		.4byte	0x1b63
 5965 1ad3 28130000 		.4byte	.LLST150
 5966 1ad7 20       		.uleb128 0x20
 5967 1ad8 95060000 		.4byte	.LASF170
 5968 1adc 01       		.byte	0x1
 5969 1add 8204     		.2byte	0x482
 5970 1adf 631B0000 		.4byte	0x1b63
 5971 1ae3 46130000 		.4byte	.LLST151
 5972 1ae7 25       		.uleb128 0x25
 5973 1ae8 4C0C0000 		.4byte	.LASF123
 5974 1aec 01       		.byte	0x1
 5975 1aed 8204     		.2byte	0x482
 5976 1aef 41010000 		.4byte	0x141
 5977 1af3 02       		.uleb128 0x2
 5978 1af4 91       		.byte	0x91
 5979 1af5 00       		.sleb128 0
 5980 1af6 21       		.uleb128 0x21
 5981 1af7 8E040000 		.4byte	.LASF76
 5982 1afb 01       		.byte	0x1
 5983 1afc 8404     		.2byte	0x484
 5984 1afe F3020000 		.4byte	0x2f3
 5985 1b02 64130000 		.4byte	.LLST152
 5986 1b06 21       		.uleb128 0x21
 5987 1b07 C60E0000 		.4byte	.LASF73
 5988 1b0b 01       		.byte	0x1
 5989 1b0c 8504     		.2byte	0x485
 5990 1b0e 2B010000 		.4byte	0x12b
 5991 1b12 82130000 		.4byte	.LLST153
 5992 1b16 16       		.uleb128 0x16
 5993 1b17 12000000 		.4byte	.LVL332
 5994 1b1b 14030000 		.4byte	0x314
 5995 1b1f 1A       		.uleb128 0x1a
 5996 1b20 24000000 		.4byte	.LVL335
 5997 1b24 D0250000 		.4byte	0x25d0
 5998 1b28 4D1B0000 		.4byte	0x1b4d
 5999 1b2c 1B       		.uleb128 0x1b
 6000 1b2d 01       		.uleb128 0x1
 6001 1b2e 50       		.byte	0x50
 6002 1b2f 02       		.uleb128 0x2
 6003 1b30 74       		.byte	0x74
 6004 1b31 00       		.sleb128 0
 6005 1b32 1B       		.uleb128 0x1b
 6006 1b33 01       		.uleb128 0x1
 6007 1b34 51       		.byte	0x51
 6008 1b35 02       		.uleb128 0x2
 6009 1b36 76       		.byte	0x76
 6010 1b37 00       		.sleb128 0
 6011 1b38 1B       		.uleb128 0x1b
 6012 1b39 01       		.uleb128 0x1
 6013 1b3a 52       		.byte	0x52
 6014 1b3b 02       		.uleb128 0x2
ARM GAS  C:\Users\Reza\AppData\Local\Temp\cckOPwM0.s 			page 130


 6015 1b3c 77       		.byte	0x77
 6016 1b3d 00       		.sleb128 0
 6017 1b3e 1B       		.uleb128 0x1b
 6018 1b3f 01       		.uleb128 0x1
 6019 1b40 53       		.byte	0x53
 6020 1b41 02       		.uleb128 0x2
 6021 1b42 78       		.byte	0x78
 6022 1b43 00       		.sleb128 0
 6023 1b44 1B       		.uleb128 0x1b
 6024 1b45 02       		.uleb128 0x2
 6025 1b46 7D       		.byte	0x7d
 6026 1b47 00       		.sleb128 0
 6027 1b48 03       		.uleb128 0x3
 6028 1b49 91       		.byte	0x91
 6029 1b4a 00       		.sleb128 0
 6030 1b4b 06       		.byte	0x6
 6031 1b4c 00       		.byte	0
 6032 1b4d 1C       		.uleb128 0x1c
 6033 1b4e 2C000000 		.4byte	.LVL338
 6034 1b52 7F030000 		.4byte	0x37f
 6035 1b56 1B       		.uleb128 0x1b
 6036 1b57 01       		.uleb128 0x1
 6037 1b58 50       		.byte	0x50
 6038 1b59 02       		.uleb128 0x2
 6039 1b5a 75       		.byte	0x75
 6040 1b5b 00       		.sleb128 0
 6041 1b5c 00       		.byte	0
 6042 1b5d 00       		.byte	0
 6043 1b5e 07       		.uleb128 0x7
 6044 1b5f F3020000 		.4byte	0x2f3
 6045 1b63 07       		.uleb128 0x7
 6046 1b64 2B010000 		.4byte	0x12b
 6047 1b68 22       		.uleb128 0x22
 6048 1b69 39090000 		.4byte	.LASF171
 6049 1b6d 01       		.byte	0x1
 6050 1b6e 8E04     		.2byte	0x48e
 6051 1b70 F3020000 		.4byte	0x2f3
 6052 1b74 00000000 		.4byte	.LFB117
 6053 1b78 20000000 		.4byte	.LFE117-.LFB117
 6054 1b7c 01       		.uleb128 0x1
 6055 1b7d 9C       		.byte	0x9c
 6056 1b7e F61B0000 		.4byte	0x1bf6
 6057 1b82 20       		.uleb128 0x20
 6058 1b83 5E060000 		.4byte	.LASF167
 6059 1b87 01       		.byte	0x1
 6060 1b88 8E04     		.2byte	0x48e
 6061 1b8a DD020000 		.4byte	0x2dd
 6062 1b8e A0130000 		.4byte	.LLST154
 6063 1b92 20       		.uleb128 0x20
 6064 1b93 E6090000 		.4byte	.LASF172
 6065 1b97 01       		.byte	0x1
 6066 1b98 8E04     		.2byte	0x48e
 6067 1b9a 5E1B0000 		.4byte	0x1b5e
 6068 1b9e CC130000 		.4byte	.LLST155
 6069 1ba2 21       		.uleb128 0x21
 6070 1ba3 8E040000 		.4byte	.LASF76
 6071 1ba7 01       		.byte	0x1
ARM GAS  C:\Users\Reza\AppData\Local\Temp\cckOPwM0.s 			page 131


 6072 1ba8 9004     		.2byte	0x490
 6073 1baa F3020000 		.4byte	0x2f3
 6074 1bae EA130000 		.4byte	.LLST156
 6075 1bb2 21       		.uleb128 0x21
 6076 1bb3 C60E0000 		.4byte	.LASF73
 6077 1bb7 01       		.byte	0x1
 6078 1bb8 9104     		.2byte	0x491
 6079 1bba 2B010000 		.4byte	0x12b
 6080 1bbe 08140000 		.4byte	.LLST157
 6081 1bc2 16       		.uleb128 0x16
 6082 1bc3 0A000000 		.4byte	.LVL340
 6083 1bc7 14030000 		.4byte	0x314
 6084 1bcb 1A       		.uleb128 0x1a
 6085 1bcc 14000000 		.4byte	.LVL343
 6086 1bd0 DC250000 		.4byte	0x25dc
 6087 1bd4 E51B0000 		.4byte	0x1be5
 6088 1bd8 1B       		.uleb128 0x1b
 6089 1bd9 01       		.uleb128 0x1
 6090 1bda 50       		.byte	0x50
 6091 1bdb 02       		.uleb128 0x2
 6092 1bdc 74       		.byte	0x74
 6093 1bdd 00       		.sleb128 0
 6094 1bde 1B       		.uleb128 0x1b
 6095 1bdf 01       		.uleb128 0x1
 6096 1be0 51       		.byte	0x51
 6097 1be1 02       		.uleb128 0x2
 6098 1be2 76       		.byte	0x76
 6099 1be3 00       		.sleb128 0
 6100 1be4 00       		.byte	0
 6101 1be5 1C       		.uleb128 0x1c
 6102 1be6 1C000000 		.4byte	.LVL346
 6103 1bea 7F030000 		.4byte	0x37f
 6104 1bee 1B       		.uleb128 0x1b
 6105 1bef 01       		.uleb128 0x1
 6106 1bf0 50       		.byte	0x50
 6107 1bf1 02       		.uleb128 0x2
 6108 1bf2 75       		.byte	0x75
 6109 1bf3 00       		.sleb128 0
 6110 1bf4 00       		.byte	0
 6111 1bf5 00       		.byte	0
 6112 1bf6 22       		.uleb128 0x22
 6113 1bf7 200E0000 		.4byte	.LASF173
 6114 1bfb 01       		.byte	0x1
 6115 1bfc 9A04     		.2byte	0x49a
 6116 1bfe F3020000 		.4byte	0x2f3
 6117 1c02 00000000 		.4byte	.LFB118
 6118 1c06 20000000 		.4byte	.LFE118-.LFB118
 6119 1c0a 01       		.uleb128 0x1
 6120 1c0b 9C       		.byte	0x9c
 6121 1c0c 841C0000 		.4byte	0x1c84
 6122 1c10 20       		.uleb128 0x20
 6123 1c11 5E060000 		.4byte	.LASF167
 6124 1c15 01       		.byte	0x1
 6125 1c16 9A04     		.2byte	0x49a
 6126 1c18 DD020000 		.4byte	0x2dd
 6127 1c1c 26140000 		.4byte	.LLST158
 6128 1c20 20       		.uleb128 0x20
ARM GAS  C:\Users\Reza\AppData\Local\Temp\cckOPwM0.s 			page 132


 6129 1c21 400C0000 		.4byte	.LASF174
 6130 1c25 01       		.byte	0x1
 6131 1c26 9A04     		.2byte	0x49a
 6132 1c28 5E1B0000 		.4byte	0x1b5e
 6133 1c2c 52140000 		.4byte	.LLST159
 6134 1c30 21       		.uleb128 0x21
 6135 1c31 8E040000 		.4byte	.LASF76
 6136 1c35 01       		.byte	0x1
 6137 1c36 9C04     		.2byte	0x49c
 6138 1c38 F3020000 		.4byte	0x2f3
 6139 1c3c 70140000 		.4byte	.LLST160
 6140 1c40 21       		.uleb128 0x21
 6141 1c41 C60E0000 		.4byte	.LASF73
 6142 1c45 01       		.byte	0x1
 6143 1c46 9D04     		.2byte	0x49d
 6144 1c48 2B010000 		.4byte	0x12b
 6145 1c4c 8E140000 		.4byte	.LLST161
 6146 1c50 16       		.uleb128 0x16
 6147 1c51 0A000000 		.4byte	.LVL348
 6148 1c55 14030000 		.4byte	0x314
 6149 1c59 1A       		.uleb128 0x1a
 6150 1c5a 14000000 		.4byte	.LVL351
 6151 1c5e E8250000 		.4byte	0x25e8
 6152 1c62 731C0000 		.4byte	0x1c73
 6153 1c66 1B       		.uleb128 0x1b
 6154 1c67 01       		.uleb128 0x1
 6155 1c68 50       		.byte	0x50
 6156 1c69 02       		.uleb128 0x2
 6157 1c6a 74       		.byte	0x74
 6158 1c6b 00       		.sleb128 0
 6159 1c6c 1B       		.uleb128 0x1b
 6160 1c6d 01       		.uleb128 0x1
 6161 1c6e 51       		.byte	0x51
 6162 1c6f 02       		.uleb128 0x2
 6163 1c70 76       		.byte	0x76
 6164 1c71 00       		.sleb128 0
 6165 1c72 00       		.byte	0
 6166 1c73 1C       		.uleb128 0x1c
 6167 1c74 1C000000 		.4byte	.LVL354
 6168 1c78 7F030000 		.4byte	0x37f
 6169 1c7c 1B       		.uleb128 0x1b
 6170 1c7d 01       		.uleb128 0x1
 6171 1c7e 50       		.byte	0x50
 6172 1c7f 02       		.uleb128 0x2
 6173 1c80 75       		.byte	0x75
 6174 1c81 00       		.sleb128 0
 6175 1c82 00       		.byte	0
 6176 1c83 00       		.byte	0
 6177 1c84 22       		.uleb128 0x22
 6178 1c85 81060000 		.4byte	.LASF175
 6179 1c89 01       		.byte	0x1
 6180 1c8a A604     		.2byte	0x4a6
 6181 1c8c F3020000 		.4byte	0x2f3
 6182 1c90 00000000 		.4byte	.LFB119
 6183 1c94 2C000000 		.4byte	.LFE119-.LFB119
 6184 1c98 01       		.uleb128 0x1
 6185 1c99 9C       		.byte	0x9c
ARM GAS  C:\Users\Reza\AppData\Local\Temp\cckOPwM0.s 			page 133


 6186 1c9a 3E1D0000 		.4byte	0x1d3e
 6187 1c9e 20       		.uleb128 0x20
 6188 1c9f 5E060000 		.4byte	.LASF167
 6189 1ca3 01       		.byte	0x1
 6190 1ca4 A604     		.2byte	0x4a6
 6191 1ca6 DD020000 		.4byte	0x2dd
 6192 1caa AC140000 		.4byte	.LLST162
 6193 1cae 20       		.uleb128 0x20
 6194 1caf 400C0000 		.4byte	.LASF174
 6195 1cb3 01       		.byte	0x1
 6196 1cb4 A604     		.2byte	0x4a6
 6197 1cb6 5E1B0000 		.4byte	0x1b5e
 6198 1cba D8140000 		.4byte	.LLST163
 6199 1cbe 20       		.uleb128 0x20
 6200 1cbf A7000000 		.4byte	.LASF168
 6201 1cc3 01       		.byte	0x1
 6202 1cc4 A604     		.2byte	0x4a6
 6203 1cc6 5E1B0000 		.4byte	0x1b5e
 6204 1cca F6140000 		.4byte	.LLST164
 6205 1cce 20       		.uleb128 0x20
 6206 1ccf 4C0C0000 		.4byte	.LASF123
 6207 1cd3 01       		.byte	0x1
 6208 1cd4 A604     		.2byte	0x4a6
 6209 1cd6 41010000 		.4byte	0x141
 6210 1cda 14150000 		.4byte	.LLST165
 6211 1cde 21       		.uleb128 0x21
 6212 1cdf 8E040000 		.4byte	.LASF76
 6213 1ce3 01       		.byte	0x1
 6214 1ce4 A804     		.2byte	0x4a8
 6215 1ce6 F3020000 		.4byte	0x2f3
 6216 1cea 32150000 		.4byte	.LLST166
 6217 1cee 21       		.uleb128 0x21
 6218 1cef C60E0000 		.4byte	.LASF73
 6219 1cf3 01       		.byte	0x1
 6220 1cf4 A904     		.2byte	0x4a9
 6221 1cf6 2B010000 		.4byte	0x12b
 6222 1cfa 50150000 		.4byte	.LLST167
 6223 1cfe 16       		.uleb128 0x16
 6224 1cff 10000000 		.4byte	.LVL356
 6225 1d03 14030000 		.4byte	0x314
 6226 1d07 1A       		.uleb128 0x1a
 6227 1d08 1E000000 		.4byte	.LVL359
 6228 1d0c F4250000 		.4byte	0x25f4
 6229 1d10 2D1D0000 		.4byte	0x1d2d
 6230 1d14 1B       		.uleb128 0x1b
 6231 1d15 01       		.uleb128 0x1
 6232 1d16 50       		.byte	0x50
 6233 1d17 02       		.uleb128 0x2
 6234 1d18 74       		.byte	0x74
 6235 1d19 00       		.sleb128 0
 6236 1d1a 1B       		.uleb128 0x1b
 6237 1d1b 01       		.uleb128 0x1
 6238 1d1c 51       		.byte	0x51
 6239 1d1d 02       		.uleb128 0x2
 6240 1d1e 76       		.byte	0x76
 6241 1d1f 00       		.sleb128 0
 6242 1d20 1B       		.uleb128 0x1b
ARM GAS  C:\Users\Reza\AppData\Local\Temp\cckOPwM0.s 			page 134


 6243 1d21 01       		.uleb128 0x1
 6244 1d22 52       		.byte	0x52
 6245 1d23 02       		.uleb128 0x2
 6246 1d24 77       		.byte	0x77
 6247 1d25 00       		.sleb128 0
 6248 1d26 1B       		.uleb128 0x1b
 6249 1d27 01       		.uleb128 0x1
 6250 1d28 53       		.byte	0x53
 6251 1d29 02       		.uleb128 0x2
 6252 1d2a 78       		.byte	0x78
 6253 1d2b 00       		.sleb128 0
 6254 1d2c 00       		.byte	0
 6255 1d2d 1C       		.uleb128 0x1c
 6256 1d2e 26000000 		.4byte	.LVL362
 6257 1d32 7F030000 		.4byte	0x37f
 6258 1d36 1B       		.uleb128 0x1b
 6259 1d37 01       		.uleb128 0x1
 6260 1d38 50       		.byte	0x50
 6261 1d39 02       		.uleb128 0x2
 6262 1d3a 75       		.byte	0x75
 6263 1d3b 00       		.sleb128 0
 6264 1d3c 00       		.byte	0
 6265 1d3d 00       		.byte	0
 6266 1d3e 1F       		.uleb128 0x1f
 6267 1d3f 36100000 		.4byte	.LASF176
 6268 1d43 01       		.byte	0x1
 6269 1d44 B204     		.2byte	0x4b2
 6270 1d46 00000000 		.4byte	.LFB120
 6271 1d4a 18000000 		.4byte	.LFE120-.LFB120
 6272 1d4e 01       		.uleb128 0x1
 6273 1d4f 9C       		.byte	0x9c
 6274 1d50 A21D0000 		.4byte	0x1da2
 6275 1d54 20       		.uleb128 0x20
 6276 1d55 5E060000 		.4byte	.LASF167
 6277 1d59 01       		.byte	0x1
 6278 1d5a B204     		.2byte	0x4b2
 6279 1d5c DD020000 		.4byte	0x2dd
 6280 1d60 6E150000 		.4byte	.LLST168
 6281 1d64 21       		.uleb128 0x21
 6282 1d65 C60E0000 		.4byte	.LASF73
 6283 1d69 01       		.byte	0x1
 6284 1d6a B404     		.2byte	0x4b4
 6285 1d6c 2B010000 		.4byte	0x12b
 6286 1d70 8C150000 		.4byte	.LLST169
 6287 1d74 16       		.uleb128 0x16
 6288 1d75 08000000 		.4byte	.LVL364
 6289 1d79 14030000 		.4byte	0x314
 6290 1d7d 1A       		.uleb128 0x1a
 6291 1d7e 10000000 		.4byte	.LVL367
 6292 1d82 00260000 		.4byte	0x2600
 6293 1d86 911D0000 		.4byte	0x1d91
 6294 1d8a 1B       		.uleb128 0x1b
 6295 1d8b 01       		.uleb128 0x1
 6296 1d8c 50       		.byte	0x50
 6297 1d8d 02       		.uleb128 0x2
 6298 1d8e 75       		.byte	0x75
 6299 1d8f 00       		.sleb128 0
ARM GAS  C:\Users\Reza\AppData\Local\Temp\cckOPwM0.s 			page 135


 6300 1d90 00       		.byte	0
 6301 1d91 1C       		.uleb128 0x1c
 6302 1d92 16000000 		.4byte	.LVL368
 6303 1d96 7F030000 		.4byte	0x37f
 6304 1d9a 1B       		.uleb128 0x1b
 6305 1d9b 01       		.uleb128 0x1
 6306 1d9c 50       		.byte	0x50
 6307 1d9d 02       		.uleb128 0x2
 6308 1d9e 74       		.byte	0x74
 6309 1d9f 00       		.sleb128 0
 6310 1da0 00       		.byte	0
 6311 1da1 00       		.byte	0
 6312 1da2 22       		.uleb128 0x22
 6313 1da3 11010000 		.4byte	.LASF177
 6314 1da7 01       		.byte	0x1
 6315 1da8 BB04     		.2byte	0x4bb
 6316 1daa 2C000000 		.4byte	0x2c
 6317 1dae 00000000 		.4byte	.LFB121
 6318 1db2 2C000000 		.4byte	.LFE121-.LFB121
 6319 1db6 01       		.uleb128 0x1
 6320 1db7 9C       		.byte	0x9c
 6321 1db8 5C1E0000 		.4byte	0x1e5c
 6322 1dbc 20       		.uleb128 0x20
 6323 1dbd 71070000 		.4byte	.LASF178
 6324 1dc1 01       		.byte	0x1
 6325 1dc2 BB04     		.2byte	0x4bb
 6326 1dc4 FE020000 		.4byte	0x2fe
 6327 1dc8 AA150000 		.4byte	.LLST170
 6328 1dcc 20       		.uleb128 0x20
 6329 1dcd BF100000 		.4byte	.LASF179
 6330 1dd1 01       		.byte	0x1
 6331 1dd2 BB04     		.2byte	0x4bb
 6332 1dd4 08120000 		.4byte	0x1208
 6333 1dd8 D6150000 		.4byte	.LLST171
 6334 1ddc 20       		.uleb128 0x20
 6335 1ddd 2E000000 		.4byte	.LASF180
 6336 1de1 01       		.byte	0x1
 6337 1de2 BB04     		.2byte	0x4bb
 6338 1de4 2C000000 		.4byte	0x2c
 6339 1de8 F4150000 		.4byte	.LLST172
 6340 1dec 20       		.uleb128 0x20
 6341 1ded 4C0C0000 		.4byte	.LASF123
 6342 1df1 01       		.byte	0x1
 6343 1df2 BB04     		.2byte	0x4bb
 6344 1df4 41010000 		.4byte	0x141
 6345 1df8 12160000 		.4byte	.LLST173
 6346 1dfc 21       		.uleb128 0x21
 6347 1dfd 8E040000 		.4byte	.LASF76
 6348 1e01 01       		.byte	0x1
 6349 1e02 BD04     		.2byte	0x4bd
 6350 1e04 2C000000 		.4byte	0x2c
 6351 1e08 30160000 		.4byte	.LLST174
 6352 1e0c 21       		.uleb128 0x21
 6353 1e0d C60E0000 		.4byte	.LASF73
 6354 1e11 01       		.byte	0x1
 6355 1e12 BE04     		.2byte	0x4be
 6356 1e14 2B010000 		.4byte	0x12b
ARM GAS  C:\Users\Reza\AppData\Local\Temp\cckOPwM0.s 			page 136


 6357 1e18 4E160000 		.4byte	.LLST175
 6358 1e1c 16       		.uleb128 0x16
 6359 1e1d 10000000 		.4byte	.LVL370
 6360 1e21 14030000 		.4byte	0x314
 6361 1e25 1A       		.uleb128 0x1a
 6362 1e26 1E000000 		.4byte	.LVL373
 6363 1e2a 0C260000 		.4byte	0x260c
 6364 1e2e 4B1E0000 		.4byte	0x1e4b
 6365 1e32 1B       		.uleb128 0x1b
 6366 1e33 01       		.uleb128 0x1
 6367 1e34 50       		.byte	0x50
 6368 1e35 02       		.uleb128 0x2
 6369 1e36 74       		.byte	0x74
 6370 1e37 00       		.sleb128 0
 6371 1e38 1B       		.uleb128 0x1b
 6372 1e39 01       		.uleb128 0x1
 6373 1e3a 51       		.byte	0x51
 6374 1e3b 02       		.uleb128 0x2
 6375 1e3c 76       		.byte	0x76
 6376 1e3d 00       		.sleb128 0
 6377 1e3e 1B       		.uleb128 0x1b
 6378 1e3f 01       		.uleb128 0x1
 6379 1e40 52       		.byte	0x52
 6380 1e41 02       		.uleb128 0x2
 6381 1e42 77       		.byte	0x77
 6382 1e43 00       		.sleb128 0
 6383 1e44 1B       		.uleb128 0x1b
 6384 1e45 01       		.uleb128 0x1
 6385 1e46 53       		.byte	0x53
 6386 1e47 02       		.uleb128 0x2
 6387 1e48 78       		.byte	0x78
 6388 1e49 00       		.sleb128 0
 6389 1e4a 00       		.byte	0
 6390 1e4b 1C       		.uleb128 0x1c
 6391 1e4c 26000000 		.4byte	.LVL376
 6392 1e50 7F030000 		.4byte	0x37f
 6393 1e54 1B       		.uleb128 0x1b
 6394 1e55 01       		.uleb128 0x1
 6395 1e56 50       		.byte	0x50
 6396 1e57 02       		.uleb128 0x2
 6397 1e58 75       		.byte	0x75
 6398 1e59 00       		.sleb128 0
 6399 1e5a 00       		.byte	0
 6400 1e5b 00       		.byte	0
 6401 1e5c 22       		.uleb128 0x22
 6402 1e5d DC110000 		.4byte	.LASF181
 6403 1e61 01       		.byte	0x1
 6404 1e62 C704     		.2byte	0x4c7
 6405 1e64 2C000000 		.4byte	0x2c
 6406 1e68 00000000 		.4byte	.LFB122
 6407 1e6c 1C000000 		.4byte	.LFE122-.LFB122
 6408 1e70 01       		.uleb128 0x1
 6409 1e71 9C       		.byte	0x9c
 6410 1e72 D41E0000 		.4byte	0x1ed4
 6411 1e76 20       		.uleb128 0x20
 6412 1e77 71070000 		.4byte	.LASF178
 6413 1e7b 01       		.byte	0x1
ARM GAS  C:\Users\Reza\AppData\Local\Temp\cckOPwM0.s 			page 137


 6414 1e7c C704     		.2byte	0x4c7
 6415 1e7e FE020000 		.4byte	0x2fe
 6416 1e82 6C160000 		.4byte	.LLST176
 6417 1e86 21       		.uleb128 0x21
 6418 1e87 8E040000 		.4byte	.LASF76
 6419 1e8b 01       		.byte	0x1
 6420 1e8c C904     		.2byte	0x4c9
 6421 1e8e 2C000000 		.4byte	0x2c
 6422 1e92 98160000 		.4byte	.LLST177
 6423 1e96 21       		.uleb128 0x21
 6424 1e97 C60E0000 		.4byte	.LASF73
 6425 1e9b 01       		.byte	0x1
 6426 1e9c CA04     		.2byte	0x4ca
 6427 1e9e 2B010000 		.4byte	0x12b
 6428 1ea2 B6160000 		.4byte	.LLST178
 6429 1ea6 16       		.uleb128 0x16
 6430 1ea7 08000000 		.4byte	.LVL378
 6431 1eab 14030000 		.4byte	0x314
 6432 1eaf 1A       		.uleb128 0x1a
 6433 1eb0 10000000 		.4byte	.LVL381
 6434 1eb4 18260000 		.4byte	0x2618
 6435 1eb8 C31E0000 		.4byte	0x1ec3
 6436 1ebc 1B       		.uleb128 0x1b
 6437 1ebd 01       		.uleb128 0x1
 6438 1ebe 50       		.byte	0x50
 6439 1ebf 02       		.uleb128 0x2
 6440 1ec0 74       		.byte	0x74
 6441 1ec1 00       		.sleb128 0
 6442 1ec2 00       		.byte	0
 6443 1ec3 1C       		.uleb128 0x1c
 6444 1ec4 18000000 		.4byte	.LVL384
 6445 1ec8 7F030000 		.4byte	0x37f
 6446 1ecc 1B       		.uleb128 0x1b
 6447 1ecd 01       		.uleb128 0x1
 6448 1ece 50       		.byte	0x50
 6449 1ecf 02       		.uleb128 0x2
 6450 1ed0 75       		.byte	0x75
 6451 1ed1 00       		.sleb128 0
 6452 1ed2 00       		.byte	0
 6453 1ed3 00       		.byte	0
 6454 1ed4 22       		.uleb128 0x22
 6455 1ed5 45060000 		.4byte	.LASF182
 6456 1ed9 01       		.byte	0x1
 6457 1eda D304     		.2byte	0x4d3
 6458 1edc 2C000000 		.4byte	0x2c
 6459 1ee0 00000000 		.4byte	.LFB123
 6460 1ee4 2C000000 		.4byte	.LFE123-.LFB123
 6461 1ee8 01       		.uleb128 0x1
 6462 1ee9 9C       		.byte	0x9c
 6463 1eea 8E1F0000 		.4byte	0x1f8e
 6464 1eee 20       		.uleb128 0x20
 6465 1eef 71070000 		.4byte	.LASF178
 6466 1ef3 01       		.byte	0x1
 6467 1ef4 D304     		.2byte	0x4d3
 6468 1ef6 FE020000 		.4byte	0x2fe
 6469 1efa D4160000 		.4byte	.LLST179
 6470 1efe 20       		.uleb128 0x20
ARM GAS  C:\Users\Reza\AppData\Local\Temp\cckOPwM0.s 			page 138


 6471 1eff A5060000 		.4byte	.LASF183
 6472 1f03 01       		.byte	0x1
 6473 1f04 D304     		.2byte	0x4d3
 6474 1f06 F1000000 		.4byte	0xf1
 6475 1f0a 00170000 		.4byte	.LLST180
 6476 1f0e 20       		.uleb128 0x20
 6477 1f0f E8010000 		.4byte	.LASF184
 6478 1f13 01       		.byte	0x1
 6479 1f14 D304     		.2byte	0x4d3
 6480 1f16 2C000000 		.4byte	0x2c
 6481 1f1a 1E170000 		.4byte	.LLST181
 6482 1f1e 20       		.uleb128 0x20
 6483 1f1f 4C0C0000 		.4byte	.LASF123
 6484 1f23 01       		.byte	0x1
 6485 1f24 D304     		.2byte	0x4d3
 6486 1f26 41010000 		.4byte	0x141
 6487 1f2a 3C170000 		.4byte	.LLST182
 6488 1f2e 21       		.uleb128 0x21
 6489 1f2f 8E040000 		.4byte	.LASF76
 6490 1f33 01       		.byte	0x1
 6491 1f34 D504     		.2byte	0x4d5
 6492 1f36 2C000000 		.4byte	0x2c
 6493 1f3a 5A170000 		.4byte	.LLST183
 6494 1f3e 21       		.uleb128 0x21
 6495 1f3f C60E0000 		.4byte	.LASF73
 6496 1f43 01       		.byte	0x1
 6497 1f44 D604     		.2byte	0x4d6
 6498 1f46 2B010000 		.4byte	0x12b
 6499 1f4a 78170000 		.4byte	.LLST184
 6500 1f4e 16       		.uleb128 0x16
 6501 1f4f 10000000 		.4byte	.LVL386
 6502 1f53 14030000 		.4byte	0x314
 6503 1f57 1A       		.uleb128 0x1a
 6504 1f58 1E000000 		.4byte	.LVL389
 6505 1f5c 24260000 		.4byte	0x2624
 6506 1f60 7D1F0000 		.4byte	0x1f7d
 6507 1f64 1B       		.uleb128 0x1b
 6508 1f65 01       		.uleb128 0x1
 6509 1f66 50       		.byte	0x50
 6510 1f67 02       		.uleb128 0x2
 6511 1f68 74       		.byte	0x74
 6512 1f69 00       		.sleb128 0
 6513 1f6a 1B       		.uleb128 0x1b
 6514 1f6b 01       		.uleb128 0x1
 6515 1f6c 51       		.byte	0x51
 6516 1f6d 02       		.uleb128 0x2
 6517 1f6e 76       		.byte	0x76
 6518 1f6f 00       		.sleb128 0
 6519 1f70 1B       		.uleb128 0x1b
 6520 1f71 01       		.uleb128 0x1
 6521 1f72 52       		.byte	0x52
 6522 1f73 02       		.uleb128 0x2
 6523 1f74 77       		.byte	0x77
 6524 1f75 00       		.sleb128 0
 6525 1f76 1B       		.uleb128 0x1b
 6526 1f77 01       		.uleb128 0x1
 6527 1f78 53       		.byte	0x53
ARM GAS  C:\Users\Reza\AppData\Local\Temp\cckOPwM0.s 			page 139


 6528 1f79 02       		.uleb128 0x2
 6529 1f7a 78       		.byte	0x78
 6530 1f7b 00       		.sleb128 0
 6531 1f7c 00       		.byte	0
 6532 1f7d 1C       		.uleb128 0x1c
 6533 1f7e 26000000 		.4byte	.LVL392
 6534 1f82 7F030000 		.4byte	0x37f
 6535 1f86 1B       		.uleb128 0x1b
 6536 1f87 01       		.uleb128 0x1
 6537 1f88 50       		.byte	0x50
 6538 1f89 02       		.uleb128 0x2
 6539 1f8a 75       		.byte	0x75
 6540 1f8b 00       		.sleb128 0
 6541 1f8c 00       		.byte	0
 6542 1f8d 00       		.byte	0
 6543 1f8e 1F       		.uleb128 0x1f
 6544 1f8f C5080000 		.4byte	.LASF185
 6545 1f93 01       		.byte	0x1
 6546 1f94 DF04     		.2byte	0x4df
 6547 1f96 00000000 		.4byte	.LFB124
 6548 1f9a 18000000 		.4byte	.LFE124-.LFB124
 6549 1f9e 01       		.uleb128 0x1
 6550 1f9f 9C       		.byte	0x9c
 6551 1fa0 F21F0000 		.4byte	0x1ff2
 6552 1fa4 20       		.uleb128 0x20
 6553 1fa5 71070000 		.4byte	.LASF178
 6554 1fa9 01       		.byte	0x1
 6555 1faa DF04     		.2byte	0x4df
 6556 1fac FE020000 		.4byte	0x2fe
 6557 1fb0 96170000 		.4byte	.LLST185
 6558 1fb4 21       		.uleb128 0x21
 6559 1fb5 C60E0000 		.4byte	.LASF73
 6560 1fb9 01       		.byte	0x1
 6561 1fba E104     		.2byte	0x4e1
 6562 1fbc 2B010000 		.4byte	0x12b
 6563 1fc0 B4170000 		.4byte	.LLST186
 6564 1fc4 16       		.uleb128 0x16
 6565 1fc5 08000000 		.4byte	.LVL394
 6566 1fc9 14030000 		.4byte	0x314
 6567 1fcd 1A       		.uleb128 0x1a
 6568 1fce 10000000 		.4byte	.LVL397
 6569 1fd2 30260000 		.4byte	0x2630
 6570 1fd6 E11F0000 		.4byte	0x1fe1
 6571 1fda 1B       		.uleb128 0x1b
 6572 1fdb 01       		.uleb128 0x1
 6573 1fdc 50       		.byte	0x50
 6574 1fdd 02       		.uleb128 0x2
 6575 1fde 75       		.byte	0x75
 6576 1fdf 00       		.sleb128 0
 6577 1fe0 00       		.byte	0
 6578 1fe1 1C       		.uleb128 0x1c
 6579 1fe2 16000000 		.4byte	.LVL398
 6580 1fe6 7F030000 		.4byte	0x37f
 6581 1fea 1B       		.uleb128 0x1b
 6582 1feb 01       		.uleb128 0x1
 6583 1fec 50       		.byte	0x50
 6584 1fed 02       		.uleb128 0x2
ARM GAS  C:\Users\Reza\AppData\Local\Temp\cckOPwM0.s 			page 140


 6585 1fee 74       		.byte	0x74
 6586 1fef 00       		.sleb128 0
 6587 1ff0 00       		.byte	0
 6588 1ff1 00       		.byte	0
 6589 1ff2 22       		.uleb128 0x22
 6590 1ff3 2A070000 		.4byte	.LASF186
 6591 1ff7 01       		.byte	0x1
 6592 1ff8 E804     		.2byte	0x4e8
 6593 1ffa 2B010000 		.4byte	0x12b
 6594 1ffe 00000000 		.4byte	.LFB125
 6595 2002 1C000000 		.4byte	.LFE125-.LFB125
 6596 2006 01       		.uleb128 0x1
 6597 2007 9C       		.byte	0x9c
 6598 2008 6A200000 		.4byte	0x206a
 6599 200c 20       		.uleb128 0x20
 6600 200d 71070000 		.4byte	.LASF178
 6601 2011 01       		.byte	0x1
 6602 2012 E804     		.2byte	0x4e8
 6603 2014 FE020000 		.4byte	0x2fe
 6604 2018 D2170000 		.4byte	.LLST187
 6605 201c 21       		.uleb128 0x21
 6606 201d 8E040000 		.4byte	.LASF76
 6607 2021 01       		.byte	0x1
 6608 2022 EA04     		.2byte	0x4ea
 6609 2024 2B010000 		.4byte	0x12b
 6610 2028 FE170000 		.4byte	.LLST188
 6611 202c 21       		.uleb128 0x21
 6612 202d C60E0000 		.4byte	.LASF73
 6613 2031 01       		.byte	0x1
 6614 2032 EB04     		.2byte	0x4eb
 6615 2034 2B010000 		.4byte	0x12b
 6616 2038 1C180000 		.4byte	.LLST189
 6617 203c 16       		.uleb128 0x16
 6618 203d 08000000 		.4byte	.LVL400
 6619 2041 14030000 		.4byte	0x314
 6620 2045 1A       		.uleb128 0x1a
 6621 2046 10000000 		.4byte	.LVL403
 6622 204a 3C260000 		.4byte	0x263c
 6623 204e 59200000 		.4byte	0x2059
 6624 2052 1B       		.uleb128 0x1b
 6625 2053 01       		.uleb128 0x1
 6626 2054 50       		.byte	0x50
 6627 2055 02       		.uleb128 0x2
 6628 2056 74       		.byte	0x74
 6629 2057 00       		.sleb128 0
 6630 2058 00       		.byte	0
 6631 2059 1C       		.uleb128 0x1c
 6632 205a 18000000 		.4byte	.LVL406
 6633 205e 7F030000 		.4byte	0x37f
 6634 2062 1B       		.uleb128 0x1b
 6635 2063 01       		.uleb128 0x1
 6636 2064 50       		.byte	0x50
 6637 2065 02       		.uleb128 0x2
 6638 2066 75       		.byte	0x75
 6639 2067 00       		.sleb128 0
 6640 2068 00       		.byte	0
 6641 2069 00       		.byte	0
ARM GAS  C:\Users\Reza\AppData\Local\Temp\cckOPwM0.s 			page 141


 6642 206a 22       		.uleb128 0x22
 6643 206b 4D0F0000 		.4byte	.LASF187
 6644 206f 01       		.byte	0x1
 6645 2070 F404     		.2byte	0x4f4
 6646 2072 2B010000 		.4byte	0x12b
 6647 2076 00000000 		.4byte	.LFB126
 6648 207a 1C000000 		.4byte	.LFE126-.LFB126
 6649 207e 01       		.uleb128 0x1
 6650 207f 9C       		.byte	0x9c
 6651 2080 E2200000 		.4byte	0x20e2
 6652 2084 20       		.uleb128 0x20
 6653 2085 71070000 		.4byte	.LASF178
 6654 2089 01       		.byte	0x1
 6655 208a F404     		.2byte	0x4f4
 6656 208c FE020000 		.4byte	0x2fe
 6657 2090 3A180000 		.4byte	.LLST190
 6658 2094 21       		.uleb128 0x21
 6659 2095 8E040000 		.4byte	.LASF76
 6660 2099 01       		.byte	0x1
 6661 209a F604     		.2byte	0x4f6
 6662 209c 2B010000 		.4byte	0x12b
 6663 20a0 66180000 		.4byte	.LLST191
 6664 20a4 21       		.uleb128 0x21
 6665 20a5 C60E0000 		.4byte	.LASF73
 6666 20a9 01       		.byte	0x1
 6667 20aa F704     		.2byte	0x4f7
 6668 20ac 2B010000 		.4byte	0x12b
 6669 20b0 84180000 		.4byte	.LLST192
 6670 20b4 16       		.uleb128 0x16
 6671 20b5 08000000 		.4byte	.LVL408
 6672 20b9 14030000 		.4byte	0x314
 6673 20bd 1A       		.uleb128 0x1a
 6674 20be 10000000 		.4byte	.LVL411
 6675 20c2 48260000 		.4byte	0x2648
 6676 20c6 D1200000 		.4byte	0x20d1
 6677 20ca 1B       		.uleb128 0x1b
 6678 20cb 01       		.uleb128 0x1
 6679 20cc 50       		.byte	0x50
 6680 20cd 02       		.uleb128 0x2
 6681 20ce 74       		.byte	0x74
 6682 20cf 00       		.sleb128 0
 6683 20d0 00       		.byte	0
 6684 20d1 1C       		.uleb128 0x1c
 6685 20d2 18000000 		.4byte	.LVL414
 6686 20d6 7F030000 		.4byte	0x37f
 6687 20da 1B       		.uleb128 0x1b
 6688 20db 01       		.uleb128 0x1
 6689 20dc 50       		.byte	0x50
 6690 20dd 02       		.uleb128 0x2
 6691 20de 75       		.byte	0x75
 6692 20df 00       		.sleb128 0
 6693 20e0 00       		.byte	0
 6694 20e1 00       		.byte	0
 6695 20e2 22       		.uleb128 0x22
 6696 20e3 D2060000 		.4byte	.LASF188
 6697 20e7 01       		.byte	0x1
 6698 20e8 0005     		.2byte	0x500
ARM GAS  C:\Users\Reza\AppData\Local\Temp\cckOPwM0.s 			page 142


 6699 20ea 2B010000 		.4byte	0x12b
 6700 20ee 00000000 		.4byte	.LFB127
 6701 20f2 1C000000 		.4byte	.LFE127-.LFB127
 6702 20f6 01       		.uleb128 0x1
 6703 20f7 9C       		.byte	0x9c
 6704 20f8 5A210000 		.4byte	0x215a
 6705 20fc 20       		.uleb128 0x20
 6706 20fd 71070000 		.4byte	.LASF178
 6707 2101 01       		.byte	0x1
 6708 2102 0005     		.2byte	0x500
 6709 2104 FE020000 		.4byte	0x2fe
 6710 2108 A2180000 		.4byte	.LLST193
 6711 210c 21       		.uleb128 0x21
 6712 210d 8E040000 		.4byte	.LASF76
 6713 2111 01       		.byte	0x1
 6714 2112 0205     		.2byte	0x502
 6715 2114 2B010000 		.4byte	0x12b
 6716 2118 CE180000 		.4byte	.LLST194
 6717 211c 21       		.uleb128 0x21
 6718 211d C60E0000 		.4byte	.LASF73
 6719 2121 01       		.byte	0x1
 6720 2122 0305     		.2byte	0x503
 6721 2124 2B010000 		.4byte	0x12b
 6722 2128 EC180000 		.4byte	.LLST195
 6723 212c 16       		.uleb128 0x16
 6724 212d 08000000 		.4byte	.LVL416
 6725 2131 14030000 		.4byte	0x314
 6726 2135 1A       		.uleb128 0x1a
 6727 2136 10000000 		.4byte	.LVL419
 6728 213a 54260000 		.4byte	0x2654
 6729 213e 49210000 		.4byte	0x2149
 6730 2142 1B       		.uleb128 0x1b
 6731 2143 01       		.uleb128 0x1
 6732 2144 50       		.byte	0x50
 6733 2145 02       		.uleb128 0x2
 6734 2146 74       		.byte	0x74
 6735 2147 00       		.sleb128 0
 6736 2148 00       		.byte	0
 6737 2149 1C       		.uleb128 0x1c
 6738 214a 18000000 		.4byte	.LVL422
 6739 214e 7F030000 		.4byte	0x37f
 6740 2152 1B       		.uleb128 0x1b
 6741 2153 01       		.uleb128 0x1
 6742 2154 50       		.byte	0x50
 6743 2155 02       		.uleb128 0x2
 6744 2156 75       		.byte	0x75
 6745 2157 00       		.sleb128 0
 6746 2158 00       		.byte	0
 6747 2159 00       		.byte	0
 6748 215a 22       		.uleb128 0x22
 6749 215b EB0A0000 		.4byte	.LASF189
 6750 215f 01       		.byte	0x1
 6751 2160 0C05     		.2byte	0x50c
 6752 2162 2C000000 		.4byte	0x2c
 6753 2166 00000000 		.4byte	.LFB128
 6754 216a 1C000000 		.4byte	.LFE128-.LFB128
 6755 216e 01       		.uleb128 0x1
ARM GAS  C:\Users\Reza\AppData\Local\Temp\cckOPwM0.s 			page 143


 6756 216f 9C       		.byte	0x9c
 6757 2170 D2210000 		.4byte	0x21d2
 6758 2174 20       		.uleb128 0x20
 6759 2175 71070000 		.4byte	.LASF178
 6760 2179 01       		.byte	0x1
 6761 217a 0C05     		.2byte	0x50c
 6762 217c FE020000 		.4byte	0x2fe
 6763 2180 0A190000 		.4byte	.LLST196
 6764 2184 21       		.uleb128 0x21
 6765 2185 8E040000 		.4byte	.LASF76
 6766 2189 01       		.byte	0x1
 6767 218a 0E05     		.2byte	0x50e
 6768 218c 2C000000 		.4byte	0x2c
 6769 2190 36190000 		.4byte	.LLST197
 6770 2194 21       		.uleb128 0x21
 6771 2195 C60E0000 		.4byte	.LASF73
 6772 2199 01       		.byte	0x1
 6773 219a 0F05     		.2byte	0x50f
 6774 219c 2B010000 		.4byte	0x12b
 6775 21a0 54190000 		.4byte	.LLST198
 6776 21a4 16       		.uleb128 0x16
 6777 21a5 08000000 		.4byte	.LVL424
 6778 21a9 14030000 		.4byte	0x314
 6779 21ad 1A       		.uleb128 0x1a
 6780 21ae 10000000 		.4byte	.LVL427
 6781 21b2 60260000 		.4byte	0x2660
 6782 21b6 C1210000 		.4byte	0x21c1
 6783 21ba 1B       		.uleb128 0x1b
 6784 21bb 01       		.uleb128 0x1
 6785 21bc 50       		.byte	0x50
 6786 21bd 02       		.uleb128 0x2
 6787 21be 74       		.byte	0x74
 6788 21bf 00       		.sleb128 0
 6789 21c0 00       		.byte	0
 6790 21c1 1C       		.uleb128 0x1c
 6791 21c2 18000000 		.4byte	.LVL430
 6792 21c6 7F030000 		.4byte	0x37f
 6793 21ca 1B       		.uleb128 0x1b
 6794 21cb 01       		.uleb128 0x1
 6795 21cc 50       		.byte	0x50
 6796 21cd 02       		.uleb128 0x2
 6797 21ce 75       		.byte	0x75
 6798 21cf 00       		.sleb128 0
 6799 21d0 00       		.byte	0
 6800 21d1 00       		.byte	0
 6801 21d2 22       		.uleb128 0x22
 6802 21d3 0C0B0000 		.4byte	.LASF190
 6803 21d7 01       		.byte	0x1
 6804 21d8 1805     		.2byte	0x518
 6805 21da 2C000000 		.4byte	0x2c
 6806 21de 00000000 		.4byte	.LFB129
 6807 21e2 1C000000 		.4byte	.LFE129-.LFB129
 6808 21e6 01       		.uleb128 0x1
 6809 21e7 9C       		.byte	0x9c
 6810 21e8 4A220000 		.4byte	0x224a
 6811 21ec 20       		.uleb128 0x20
 6812 21ed 71070000 		.4byte	.LASF178
ARM GAS  C:\Users\Reza\AppData\Local\Temp\cckOPwM0.s 			page 144


 6813 21f1 01       		.byte	0x1
 6814 21f2 1805     		.2byte	0x518
 6815 21f4 FE020000 		.4byte	0x2fe
 6816 21f8 72190000 		.4byte	.LLST199
 6817 21fc 21       		.uleb128 0x21
 6818 21fd 8E040000 		.4byte	.LASF76
 6819 2201 01       		.byte	0x1
 6820 2202 1A05     		.2byte	0x51a
 6821 2204 2C000000 		.4byte	0x2c
 6822 2208 9E190000 		.4byte	.LLST200
 6823 220c 21       		.uleb128 0x21
 6824 220d C60E0000 		.4byte	.LASF73
 6825 2211 01       		.byte	0x1
 6826 2212 1B05     		.2byte	0x51b
 6827 2214 2B010000 		.4byte	0x12b
 6828 2218 BC190000 		.4byte	.LLST201
 6829 221c 16       		.uleb128 0x16
 6830 221d 08000000 		.4byte	.LVL432
 6831 2221 14030000 		.4byte	0x314
 6832 2225 1A       		.uleb128 0x1a
 6833 2226 10000000 		.4byte	.LVL435
 6834 222a 6C260000 		.4byte	0x266c
 6835 222e 39220000 		.4byte	0x2239
 6836 2232 1B       		.uleb128 0x1b
 6837 2233 01       		.uleb128 0x1
 6838 2234 50       		.byte	0x50
 6839 2235 02       		.uleb128 0x2
 6840 2236 74       		.byte	0x74
 6841 2237 00       		.sleb128 0
 6842 2238 00       		.byte	0
 6843 2239 1C       		.uleb128 0x1c
 6844 223a 18000000 		.4byte	.LVL438
 6845 223e 7F030000 		.4byte	0x37f
 6846 2242 1B       		.uleb128 0x1b
 6847 2243 01       		.uleb128 0x1
 6848 2244 50       		.byte	0x50
 6849 2245 02       		.uleb128 0x2
 6850 2246 75       		.byte	0x75
 6851 2247 00       		.sleb128 0
 6852 2248 00       		.byte	0
 6853 2249 00       		.byte	0
 6854 224a 22       		.uleb128 0x22
 6855 224b 18090000 		.4byte	.LASF191
 6856 224f 01       		.byte	0x1
 6857 2250 2405     		.2byte	0x524
 6858 2252 2B010000 		.4byte	0x12b
 6859 2256 00000000 		.4byte	.LFB130
 6860 225a 20000000 		.4byte	.LFE130-.LFB130
 6861 225e 01       		.uleb128 0x1
 6862 225f 9C       		.byte	0x9c
 6863 2260 D8220000 		.4byte	0x22d8
 6864 2264 20       		.uleb128 0x20
 6865 2265 71070000 		.4byte	.LASF178
 6866 2269 01       		.byte	0x1
 6867 226a 2405     		.2byte	0x524
 6868 226c FE020000 		.4byte	0x2fe
 6869 2270 DA190000 		.4byte	.LLST202
ARM GAS  C:\Users\Reza\AppData\Local\Temp\cckOPwM0.s 			page 145


 6870 2274 20       		.uleb128 0x20
 6871 2275 CA0F0000 		.4byte	.LASF192
 6872 2279 01       		.byte	0x1
 6873 227a 2405     		.2byte	0x524
 6874 227c 2C000000 		.4byte	0x2c
 6875 2280 061A0000 		.4byte	.LLST203
 6876 2284 21       		.uleb128 0x21
 6877 2285 8E040000 		.4byte	.LASF76
 6878 2289 01       		.byte	0x1
 6879 228a 2605     		.2byte	0x526
 6880 228c 2B010000 		.4byte	0x12b
 6881 2290 241A0000 		.4byte	.LLST204
 6882 2294 21       		.uleb128 0x21
 6883 2295 C60E0000 		.4byte	.LASF73
 6884 2299 01       		.byte	0x1
 6885 229a 2705     		.2byte	0x527
 6886 229c 2B010000 		.4byte	0x12b
 6887 22a0 421A0000 		.4byte	.LLST205
 6888 22a4 16       		.uleb128 0x16
 6889 22a5 0A000000 		.4byte	.LVL440
 6890 22a9 14030000 		.4byte	0x314
 6891 22ad 1A       		.uleb128 0x1a
 6892 22ae 14000000 		.4byte	.LVL443
 6893 22b2 78260000 		.4byte	0x2678
 6894 22b6 C7220000 		.4byte	0x22c7
 6895 22ba 1B       		.uleb128 0x1b
 6896 22bb 01       		.uleb128 0x1
 6897 22bc 50       		.byte	0x50
 6898 22bd 02       		.uleb128 0x2
 6899 22be 74       		.byte	0x74
 6900 22bf 00       		.sleb128 0
 6901 22c0 1B       		.uleb128 0x1b
 6902 22c1 01       		.uleb128 0x1
 6903 22c2 51       		.byte	0x51
 6904 22c3 02       		.uleb128 0x2
 6905 22c4 76       		.byte	0x76
 6906 22c5 00       		.sleb128 0
 6907 22c6 00       		.byte	0
 6908 22c7 1C       		.uleb128 0x1c
 6909 22c8 1C000000 		.4byte	.LVL446
 6910 22cc 7F030000 		.4byte	0x37f
 6911 22d0 1B       		.uleb128 0x1b
 6912 22d1 01       		.uleb128 0x1
 6913 22d2 50       		.byte	0x50
 6914 22d3 02       		.uleb128 0x2
 6915 22d4 75       		.byte	0x75
 6916 22d5 00       		.sleb128 0
 6917 22d6 00       		.byte	0
 6918 22d7 00       		.byte	0
 6919 22d8 22       		.uleb128 0x22
 6920 22d9 420E0000 		.4byte	.LASF193
 6921 22dd 01       		.byte	0x1
 6922 22de 3105     		.2byte	0x531
 6923 22e0 FE020000 		.4byte	0x2fe
 6924 22e4 00000000 		.4byte	.LFB131
 6925 22e8 24000000 		.4byte	.LFE131-.LFB131
 6926 22ec 01       		.uleb128 0x1
ARM GAS  C:\Users\Reza\AppData\Local\Temp\cckOPwM0.s 			page 146


 6927 22ed 9C       		.byte	0x9c
 6928 22ee 7C230000 		.4byte	0x237c
 6929 22f2 20       		.uleb128 0x20
 6930 22f3 38120000 		.4byte	.LASF194
 6931 22f7 01       		.byte	0x1
 6932 22f8 3105     		.2byte	0x531
 6933 22fa 2C000000 		.4byte	0x2c
 6934 22fe 601A0000 		.4byte	.LLST206
 6935 2302 20       		.uleb128 0x20
 6936 2303 EE070000 		.4byte	.LASF195
 6937 2307 01       		.byte	0x1
 6938 2308 3105     		.2byte	0x531
 6939 230a 2C000000 		.4byte	0x2c
 6940 230e 8C1A0000 		.4byte	.LLST207
 6941 2312 20       		.uleb128 0x20
 6942 2313 A40F0000 		.4byte	.LASF196
 6943 2317 01       		.byte	0x1
 6944 2318 3105     		.2byte	0x531
 6945 231a 2B010000 		.4byte	0x12b
 6946 231e AA1A0000 		.4byte	.LLST208
 6947 2322 21       		.uleb128 0x21
 6948 2323 8E040000 		.4byte	.LASF76
 6949 2327 01       		.byte	0x1
 6950 2328 3305     		.2byte	0x533
 6951 232a FE020000 		.4byte	0x2fe
 6952 232e C81A0000 		.4byte	.LLST209
 6953 2332 21       		.uleb128 0x21
 6954 2333 C60E0000 		.4byte	.LASF73
 6955 2337 01       		.byte	0x1
 6956 2338 3405     		.2byte	0x534
 6957 233a 2B010000 		.4byte	0x12b
 6958 233e E61A0000 		.4byte	.LLST210
 6959 2342 16       		.uleb128 0x16
 6960 2343 0C000000 		.4byte	.LVL448
 6961 2347 14030000 		.4byte	0x314
 6962 234b 1A       		.uleb128 0x1a
 6963 234c 18000000 		.4byte	.LVL451
 6964 2350 84260000 		.4byte	0x2684
 6965 2354 6B230000 		.4byte	0x236b
 6966 2358 1B       		.uleb128 0x1b
 6967 2359 01       		.uleb128 0x1
 6968 235a 50       		.byte	0x50
 6969 235b 02       		.uleb128 0x2
 6970 235c 74       		.byte	0x74
 6971 235d 00       		.sleb128 0
 6972 235e 1B       		.uleb128 0x1b
 6973 235f 01       		.uleb128 0x1
 6974 2360 51       		.byte	0x51
 6975 2361 02       		.uleb128 0x2
 6976 2362 76       		.byte	0x76
 6977 2363 00       		.sleb128 0
 6978 2364 1B       		.uleb128 0x1b
 6979 2365 01       		.uleb128 0x1
 6980 2366 52       		.byte	0x52
 6981 2367 02       		.uleb128 0x2
 6982 2368 77       		.byte	0x77
 6983 2369 00       		.sleb128 0
ARM GAS  C:\Users\Reza\AppData\Local\Temp\cckOPwM0.s 			page 147


 6984 236a 00       		.byte	0
 6985 236b 1C       		.uleb128 0x1c
 6986 236c 20000000 		.4byte	.LVL454
 6987 2370 7F030000 		.4byte	0x37f
 6988 2374 1B       		.uleb128 0x1b
 6989 2375 01       		.uleb128 0x1
 6990 2376 50       		.byte	0x50
 6991 2377 02       		.uleb128 0x2
 6992 2378 75       		.byte	0x75
 6993 2379 00       		.sleb128 0
 6994 237a 00       		.byte	0
 6995 237b 00       		.byte	0
 6996 237c 26       		.uleb128 0x26
 6997 237d 810A0000 		.4byte	.LASF261
 6998 2381 0C       		.byte	0xc
 6999 2382 1207     		.2byte	0x712
 7000 2384 88230000 		.4byte	0x2388
 7001 2388 27       		.uleb128 0x27
 7002 2389 BF000000 		.4byte	0xbf
 7003 238d 28       		.uleb128 0x28
 7004 238e 3E040000 		.4byte	.LASF69
 7005 2392 3E040000 		.4byte	.LASF69
 7006 2396 01       		.byte	0x1
 7007 2397 49       		.byte	0x49
 7008 2398 28       		.uleb128 0x28
 7009 2399 5E050000 		.4byte	.LASF68
 7010 239d 5E050000 		.4byte	.LASF68
 7011 23a1 01       		.byte	0x1
 7012 23a2 44       		.byte	0x44
 7013 23a3 28       		.uleb128 0x28
 7014 23a4 0B070000 		.4byte	.LASF70
 7015 23a8 0B070000 		.4byte	.LASF70
 7016 23ac 01       		.byte	0x1
 7017 23ad 54       		.byte	0x54
 7018 23ae 28       		.uleb128 0x28
 7019 23af 2F060000 		.4byte	.LASF77
 7020 23b3 2F060000 		.4byte	.LASF77
 7021 23b7 01       		.byte	0x1
 7022 23b8 5F       		.byte	0x5f
 7023 23b9 29       		.uleb128 0x29
 7024 23ba 790C0000 		.4byte	.LASF197
 7025 23be 790C0000 		.4byte	.LASF197
 7026 23c2 07       		.byte	0x7
 7027 23c3 4A01     		.2byte	0x14a
 7028 23c5 29       		.uleb128 0x29
 7029 23c6 B0030000 		.4byte	.LASF198
 7030 23ca B0030000 		.4byte	.LASF198
 7031 23ce 07       		.byte	0x7
 7032 23cf 9902     		.2byte	0x299
 7033 23d1 29       		.uleb128 0x29
 7034 23d2 23060000 		.4byte	.LASF199
 7035 23d6 23060000 		.4byte	.LASF199
 7036 23da 07       		.byte	0x7
 7037 23db C202     		.2byte	0x2c2
 7038 23dd 29       		.uleb128 0x29
 7039 23de 100E0000 		.4byte	.LASF200
 7040 23e2 100E0000 		.4byte	.LASF200
ARM GAS  C:\Users\Reza\AppData\Local\Temp\cckOPwM0.s 			page 148


 7041 23e6 07       		.byte	0x7
 7042 23e7 3103     		.2byte	0x331
 7043 23e9 29       		.uleb128 0x29
 7044 23ea 810D0000 		.4byte	.LASF201
 7045 23ee 810D0000 		.4byte	.LASF201
 7046 23f2 07       		.byte	0x7
 7047 23f3 F602     		.2byte	0x2f6
 7048 23f5 29       		.uleb128 0x29
 7049 23f6 D30C0000 		.4byte	.LASF202
 7050 23fa D30C0000 		.4byte	.LASF202
 7051 23fe 07       		.byte	0x7
 7052 23ff 7E03     		.2byte	0x37e
 7053 2401 29       		.uleb128 0x29
 7054 2402 BC070000 		.4byte	.LASF203
 7055 2406 BC070000 		.4byte	.LASF203
 7056 240a 07       		.byte	0x7
 7057 240b FA03     		.2byte	0x3fa
 7058 240d 29       		.uleb128 0x29
 7059 240e 780E0000 		.4byte	.LASF204
 7060 2412 780E0000 		.4byte	.LASF204
 7061 2416 07       		.byte	0x7
 7062 2417 9803     		.2byte	0x398
 7063 2419 29       		.uleb128 0x29
 7064 241a 320D0000 		.4byte	.LASF205
 7065 241e 320D0000 		.4byte	.LASF205
 7066 2422 07       		.byte	0x7
 7067 2423 2D04     		.2byte	0x42d
 7068 2425 29       		.uleb128 0x29
 7069 2426 84010000 		.4byte	.LASF206
 7070 242a 84010000 		.4byte	.LASF206
 7071 242e 07       		.byte	0x7
 7072 242f 5E04     		.2byte	0x45e
 7073 2431 29       		.uleb128 0x29
 7074 2432 9A0B0000 		.4byte	.LASF207
 7075 2436 9A0B0000 		.4byte	.LASF207
 7076 243a 07       		.byte	0x7
 7077 243b 0705     		.2byte	0x507
 7078 243d 29       		.uleb128 0x29
 7079 243e 6A0C0000 		.4byte	.LASF208
 7080 2442 6A0C0000 		.4byte	.LASF208
 7081 2446 07       		.byte	0x7
 7082 2447 3D05     		.2byte	0x53d
 7083 2449 29       		.uleb128 0x29
 7084 244a B9020000 		.4byte	.LASF209
 7085 244e B9020000 		.4byte	.LASF209
 7086 2452 07       		.byte	0x7
 7087 2453 4C05     		.2byte	0x54c
 7088 2455 29       		.uleb128 0x29
 7089 2456 90010000 		.4byte	.LASF210
 7090 245a 90010000 		.4byte	.LASF210
 7091 245e 07       		.byte	0x7
 7092 245f 6A05     		.2byte	0x56a
 7093 2461 29       		.uleb128 0x29
 7094 2462 4A080000 		.4byte	.LASF211
 7095 2466 4A080000 		.4byte	.LASF211
 7096 246a 07       		.byte	0x7
 7097 246b 7705     		.2byte	0x577
ARM GAS  C:\Users\Reza\AppData\Local\Temp\cckOPwM0.s 			page 149


 7098 246d 29       		.uleb128 0x29
 7099 246e C8030000 		.4byte	.LASF212
 7100 2472 C8030000 		.4byte	.LASF212
 7101 2476 07       		.byte	0x7
 7102 2477 CA09     		.2byte	0x9ca
 7103 2479 29       		.uleb128 0x29
 7104 247a AA0B0000 		.4byte	.LASF213
 7105 247e AA0B0000 		.4byte	.LASF213
 7106 2482 07       		.byte	0x7
 7107 2483 A205     		.2byte	0x5a2
 7108 2485 29       		.uleb128 0x29
 7109 2486 24080000 		.4byte	.LASF214
 7110 248a 24080000 		.4byte	.LASF214
 7111 248e 07       		.byte	0x7
 7112 248f BF08     		.2byte	0x8bf
 7113 2491 29       		.uleb128 0x29
 7114 2492 A0080000 		.4byte	.LASF215
 7115 2496 A0080000 		.4byte	.LASF215
 7116 249a 07       		.byte	0x7
 7117 249b 1209     		.2byte	0x912
 7118 249d 29       		.uleb128 0x29
 7119 249e 38010000 		.4byte	.LASF216
 7120 24a2 38010000 		.4byte	.LASF216
 7121 24a6 07       		.byte	0x7
 7122 24a7 3D07     		.2byte	0x73d
 7123 24a9 29       		.uleb128 0x29
 7124 24aa 04120000 		.4byte	.LASF217
 7125 24ae 04120000 		.4byte	.LASF217
 7126 24b2 07       		.byte	0x7
 7127 24b3 E507     		.2byte	0x7e5
 7128 24b5 29       		.uleb128 0x29
 7129 24b6 AD110000 		.4byte	.LASF218
 7130 24ba AD110000 		.4byte	.LASF218
 7131 24be 07       		.byte	0x7
 7132 24bf 8F08     		.2byte	0x88f
 7133 24c1 29       		.uleb128 0x29
 7134 24c2 D90E0000 		.4byte	.LASF219
 7135 24c6 D90E0000 		.4byte	.LASF219
 7136 24ca 07       		.byte	0x7
 7137 24cb 9F08     		.2byte	0x89f
 7138 24cd 29       		.uleb128 0x29
 7139 24ce 6A060000 		.4byte	.LASF220
 7140 24d2 6A060000 		.4byte	.LASF220
 7141 24d6 07       		.byte	0x7
 7142 24d7 B108     		.2byte	0x8b1
 7143 24d9 29       		.uleb128 0x29
 7144 24da BD040000 		.4byte	.LASF221
 7145 24de BD040000 		.4byte	.LASF221
 7146 24e2 08       		.byte	0x8
 7147 24e3 D805     		.2byte	0x5d8
 7148 24e5 29       		.uleb128 0x29
 7149 24e6 4B050000 		.4byte	.LASF222
 7150 24ea 4B050000 		.4byte	.LASF222
 7151 24ee 08       		.byte	0x8
 7152 24ef 6C06     		.2byte	0x66c
 7153 24f1 29       		.uleb128 0x29
 7154 24f2 CD070000 		.4byte	.LASF223
ARM GAS  C:\Users\Reza\AppData\Local\Temp\cckOPwM0.s 			page 150


 7155 24f6 CD070000 		.4byte	.LASF223
 7156 24fa 08       		.byte	0x8
 7157 24fb 8A02     		.2byte	0x28a
 7158 24fd 29       		.uleb128 0x29
 7159 24fe 610E0000 		.4byte	.LASF224
 7160 2502 610E0000 		.4byte	.LASF224
 7161 2506 08       		.byte	0x8
 7162 2507 7303     		.2byte	0x373
 7163 2509 29       		.uleb128 0x29
 7164 250a 10100000 		.4byte	.LASF225
 7165 250e 10100000 		.4byte	.LASF225
 7166 2512 08       		.byte	0x8
 7167 2513 8403     		.2byte	0x384
 7168 2515 29       		.uleb128 0x29
 7169 2516 7F080000 		.4byte	.LASF226
 7170 251a 7F080000 		.4byte	.LASF226
 7171 251e 08       		.byte	0x8
 7172 251f 6403     		.2byte	0x364
 7173 2521 29       		.uleb128 0x29
 7174 2522 58070000 		.4byte	.LASF227
 7175 2526 58070000 		.4byte	.LASF227
 7176 252a 08       		.byte	0x8
 7177 252b E802     		.2byte	0x2e8
 7178 252d 29       		.uleb128 0x29
 7179 252e 990E0000 		.4byte	.LASF228
 7180 2532 990E0000 		.4byte	.LASF228
 7181 2536 08       		.byte	0x8
 7182 2537 8A05     		.2byte	0x58a
 7183 2539 29       		.uleb128 0x29
 7184 253a 34050000 		.4byte	.LASF229
 7185 253e 34050000 		.4byte	.LASF229
 7186 2542 08       		.byte	0x8
 7187 2543 8605     		.2byte	0x586
 7188 2545 29       		.uleb128 0x29
 7189 2546 BE110000 		.4byte	.LASF230
 7190 254a BE110000 		.4byte	.LASF230
 7191 254e 08       		.byte	0x8
 7192 254f 8805     		.2byte	0x588
 7193 2551 29       		.uleb128 0x29
 7194 2552 EB0D0000 		.4byte	.LASF231
 7195 2556 EB0D0000 		.4byte	.LASF231
 7196 255a 08       		.byte	0x8
 7197 255b 9205     		.2byte	0x592
 7198 255d 29       		.uleb128 0x29
 7199 255e 22020000 		.4byte	.LASF232
 7200 2562 22020000 		.4byte	.LASF232
 7201 2566 08       		.byte	0x8
 7202 2567 9305     		.2byte	0x593
 7203 2569 29       		.uleb128 0x29
 7204 256a 65090000 		.4byte	.LASF233
 7205 256e 65090000 		.4byte	.LASF233
 7206 2572 08       		.byte	0x8
 7207 2573 B205     		.2byte	0x5b2
 7208 2575 29       		.uleb128 0x29
 7209 2576 9D050000 		.4byte	.LASF234
 7210 257a 9D050000 		.4byte	.LASF234
 7211 257e 08       		.byte	0x8
ARM GAS  C:\Users\Reza\AppData\Local\Temp\cckOPwM0.s 			page 151


 7212 257f C005     		.2byte	0x5c0
 7213 2581 29       		.uleb128 0x29
 7214 2582 310C0000 		.4byte	.LASF235
 7215 2586 310C0000 		.4byte	.LASF235
 7216 258a 08       		.byte	0x8
 7217 258b CF05     		.2byte	0x5cf
 7218 258d 29       		.uleb128 0x29
 7219 258e E9060000 		.4byte	.LASF236
 7220 2592 E9060000 		.4byte	.LASF236
 7221 2596 08       		.byte	0x8
 7222 2597 9203     		.2byte	0x392
 7223 2599 28       		.uleb128 0x28
 7224 259a F3030000 		.4byte	.LASF237
 7225 259e F3030000 		.4byte	.LASF237
 7226 25a2 0B       		.byte	0xb
 7227 25a3 A3       		.byte	0xa3
 7228 25a4 28       		.uleb128 0x28
 7229 25a5 68110000 		.4byte	.LASF238
 7230 25a9 68110000 		.4byte	.LASF238
 7231 25ad 0B       		.byte	0xb
 7232 25ae A4       		.byte	0xa4
 7233 25af 28       		.uleb128 0x28
 7234 25b0 3F000000 		.4byte	.LASF239
 7235 25b4 3F000000 		.4byte	.LASF239
 7236 25b8 0B       		.byte	0xb
 7237 25b9 A5       		.byte	0xa5
 7238 25ba 28       		.uleb128 0x28
 7239 25bb F2000000 		.4byte	.LASF240
 7240 25bf F2000000 		.4byte	.LASF240
 7241 25c3 0B       		.byte	0xb
 7242 25c4 A6       		.byte	0xa6
 7243 25c5 28       		.uleb128 0x28
 7244 25c6 A00D0000 		.4byte	.LASF241
 7245 25ca A00D0000 		.4byte	.LASF241
 7246 25ce 09       		.byte	0x9
 7247 25cf 93       		.byte	0x93
 7248 25d0 29       		.uleb128 0x29
 7249 25d1 14120000 		.4byte	.LASF242
 7250 25d5 14120000 		.4byte	.LASF242
 7251 25d9 09       		.byte	0x9
 7252 25da 2701     		.2byte	0x127
 7253 25dc 29       		.uleb128 0x29
 7254 25dd F6080000 		.4byte	.LASF243
 7255 25e1 F6080000 		.4byte	.LASF243
 7256 25e5 09       		.byte	0x9
 7257 25e6 6001     		.2byte	0x160
 7258 25e8 29       		.uleb128 0x29
 7259 25e9 52090000 		.4byte	.LASF244
 7260 25ed 52090000 		.4byte	.LASF244
 7261 25f1 09       		.byte	0x9
 7262 25f2 E501     		.2byte	0x1e5
 7263 25f4 29       		.uleb128 0x29
 7264 25f5 92030000 		.4byte	.LASF245
 7265 25f9 92030000 		.4byte	.LASF245
 7266 25fd 09       		.byte	0x9
 7267 25fe B102     		.2byte	0x2b1
 7268 2600 29       		.uleb128 0x29
ARM GAS  C:\Users\Reza\AppData\Local\Temp\cckOPwM0.s 			page 152


 7269 2601 6D080000 		.4byte	.LASF246
 7270 2605 6D080000 		.4byte	.LASF246
 7271 2609 09       		.byte	0x9
 7272 260a E302     		.2byte	0x2e3
 7273 260c 29       		.uleb128 0x29
 7274 260d 72110000 		.4byte	.LASF247
 7275 2611 72110000 		.4byte	.LASF247
 7276 2615 0A       		.byte	0xa
 7277 2616 3801     		.2byte	0x138
 7278 2618 29       		.uleb128 0x29
 7279 2619 AE060000 		.4byte	.LASF248
 7280 261d AE060000 		.4byte	.LASF248
 7281 2621 0A       		.byte	0xa
 7282 2622 4F03     		.2byte	0x34f
 7283 2624 29       		.uleb128 0x29
 7284 2625 1D0D0000 		.4byte	.LASF249
 7285 2629 1D0D0000 		.4byte	.LASF249
 7286 262d 0A       		.byte	0xa
 7287 262e F601     		.2byte	0x1f6
 7288 2630 29       		.uleb128 0x29
 7289 2631 8C0D0000 		.4byte	.LASF250
 7290 2635 8C0D0000 		.4byte	.LASF250
 7291 2639 0A       		.byte	0xa
 7292 263a 6502     		.2byte	0x265
 7293 263c 29       		.uleb128 0x29
 7294 263d 1D0C0000 		.4byte	.LASF251
 7295 2641 1D0C0000 		.4byte	.LASF251
 7296 2645 0A       		.byte	0xa
 7297 2646 7902     		.2byte	0x279
 7298 2648 29       		.uleb128 0x29
 7299 2649 B50F0000 		.4byte	.LASF252
 7300 264d B50F0000 		.4byte	.LASF252
 7301 2651 0A       		.byte	0xa
 7302 2652 8D02     		.2byte	0x28d
 7303 2654 29       		.uleb128 0x29
 7304 2655 F1020000 		.4byte	.LASF253
 7305 2659 F1020000 		.4byte	.LASF253
 7306 265d 0A       		.byte	0xa
 7307 265e A402     		.2byte	0x2a4
 7308 2660 29       		.uleb128 0x29
 7309 2661 59020000 		.4byte	.LASF254
 7310 2665 59020000 		.4byte	.LASF254
 7311 2669 0A       		.byte	0xa
 7312 266a B902     		.2byte	0x2b9
 7313 266c 29       		.uleb128 0x29
 7314 266d A7010000 		.4byte	.LASF255
 7315 2671 A7010000 		.4byte	.LASF255
 7316 2675 0A       		.byte	0xa
 7317 2676 CE02     		.2byte	0x2ce
 7318 2678 29       		.uleb128 0x29
 7319 2679 66100000 		.4byte	.LASF256
 7320 267d 66100000 		.4byte	.LASF256
 7321 2681 0A       		.byte	0xa
 7322 2682 F302     		.2byte	0x2f3
 7323 2684 29       		.uleb128 0x29
 7324 2685 7F020000 		.4byte	.LASF257
 7325 2689 7F020000 		.4byte	.LASF257
ARM GAS  C:\Users\Reza\AppData\Local\Temp\cckOPwM0.s 			page 153


 7326 268d 0A       		.byte	0xa
 7327 268e 4503     		.2byte	0x345
 7328 2690 00       		.byte	0
 7329              		.section	.debug_abbrev,"",%progbits
 7330              	.Ldebug_abbrev0:
 7331 0000 01       		.uleb128 0x1
 7332 0001 11       		.uleb128 0x11
 7333 0002 01       		.byte	0x1
 7334 0003 25       		.uleb128 0x25
 7335 0004 0E       		.uleb128 0xe
 7336 0005 13       		.uleb128 0x13
 7337 0006 0B       		.uleb128 0xb
 7338 0007 03       		.uleb128 0x3
 7339 0008 0E       		.uleb128 0xe
 7340 0009 1B       		.uleb128 0x1b
 7341 000a 0E       		.uleb128 0xe
 7342 000b 55       		.uleb128 0x55
 7343 000c 17       		.uleb128 0x17
 7344 000d 11       		.uleb128 0x11
 7345 000e 01       		.uleb128 0x1
 7346 000f 10       		.uleb128 0x10
 7347 0010 17       		.uleb128 0x17
 7348 0011 00       		.byte	0
 7349 0012 00       		.byte	0
 7350 0013 02       		.uleb128 0x2
 7351 0014 24       		.uleb128 0x24
 7352 0015 00       		.byte	0
 7353 0016 0B       		.uleb128 0xb
 7354 0017 0B       		.uleb128 0xb
 7355 0018 3E       		.uleb128 0x3e
 7356 0019 0B       		.uleb128 0xb
 7357 001a 03       		.uleb128 0x3
 7358 001b 08       		.uleb128 0x8
 7359 001c 00       		.byte	0
 7360 001d 00       		.byte	0
 7361 001e 03       		.uleb128 0x3
 7362 001f 16       		.uleb128 0x16
 7363 0020 00       		.byte	0
 7364 0021 03       		.uleb128 0x3
 7365 0022 0E       		.uleb128 0xe
 7366 0023 3A       		.uleb128 0x3a
 7367 0024 0B       		.uleb128 0xb
 7368 0025 3B       		.uleb128 0x3b
 7369 0026 0B       		.uleb128 0xb
 7370 0027 49       		.uleb128 0x49
 7371 0028 13       		.uleb128 0x13
 7372 0029 00       		.byte	0
 7373 002a 00       		.byte	0
 7374 002b 04       		.uleb128 0x4
 7375 002c 24       		.uleb128 0x24
 7376 002d 00       		.byte	0
 7377 002e 0B       		.uleb128 0xb
 7378 002f 0B       		.uleb128 0xb
 7379 0030 3E       		.uleb128 0x3e
 7380 0031 0B       		.uleb128 0xb
 7381 0032 03       		.uleb128 0x3
 7382 0033 0E       		.uleb128 0xe
ARM GAS  C:\Users\Reza\AppData\Local\Temp\cckOPwM0.s 			page 154


 7383 0034 00       		.byte	0
 7384 0035 00       		.byte	0
 7385 0036 05       		.uleb128 0x5
 7386 0037 0F       		.uleb128 0xf
 7387 0038 00       		.byte	0
 7388 0039 0B       		.uleb128 0xb
 7389 003a 0B       		.uleb128 0xb
 7390 003b 00       		.byte	0
 7391 003c 00       		.byte	0
 7392 003d 06       		.uleb128 0x6
 7393 003e 0F       		.uleb128 0xf
 7394 003f 00       		.byte	0
 7395 0040 0B       		.uleb128 0xb
 7396 0041 0B       		.uleb128 0xb
 7397 0042 49       		.uleb128 0x49
 7398 0043 13       		.uleb128 0x13
 7399 0044 00       		.byte	0
 7400 0045 00       		.byte	0
 7401 0046 07       		.uleb128 0x7
 7402 0047 26       		.uleb128 0x26
 7403 0048 00       		.byte	0
 7404 0049 49       		.uleb128 0x49
 7405 004a 13       		.uleb128 0x13
 7406 004b 00       		.byte	0
 7407 004c 00       		.byte	0
 7408 004d 08       		.uleb128 0x8
 7409 004e 15       		.uleb128 0x15
 7410 004f 01       		.byte	0x1
 7411 0050 27       		.uleb128 0x27
 7412 0051 19       		.uleb128 0x19
 7413 0052 01       		.uleb128 0x1
 7414 0053 13       		.uleb128 0x13
 7415 0054 00       		.byte	0
 7416 0055 00       		.byte	0
 7417 0056 09       		.uleb128 0x9
 7418 0057 05       		.uleb128 0x5
 7419 0058 00       		.byte	0
 7420 0059 49       		.uleb128 0x49
 7421 005a 13       		.uleb128 0x13
 7422 005b 00       		.byte	0
 7423 005c 00       		.byte	0
 7424 005d 0A       		.uleb128 0xa
 7425 005e 13       		.uleb128 0x13
 7426 005f 00       		.byte	0
 7427 0060 03       		.uleb128 0x3
 7428 0061 0E       		.uleb128 0xe
 7429 0062 3C       		.uleb128 0x3c
 7430 0063 19       		.uleb128 0x19
 7431 0064 00       		.byte	0
 7432 0065 00       		.byte	0
 7433 0066 0B       		.uleb128 0xb
 7434 0067 04       		.uleb128 0x4
 7435 0068 01       		.byte	0x1
 7436 0069 0B       		.uleb128 0xb
 7437 006a 0B       		.uleb128 0xb
 7438 006b 49       		.uleb128 0x49
 7439 006c 13       		.uleb128 0x13
ARM GAS  C:\Users\Reza\AppData\Local\Temp\cckOPwM0.s 			page 155


 7440 006d 3A       		.uleb128 0x3a
 7441 006e 0B       		.uleb128 0xb
 7442 006f 3B       		.uleb128 0x3b
 7443 0070 0B       		.uleb128 0xb
 7444 0071 01       		.uleb128 0x1
 7445 0072 13       		.uleb128 0x13
 7446 0073 00       		.byte	0
 7447 0074 00       		.byte	0
 7448 0075 0C       		.uleb128 0xc
 7449 0076 28       		.uleb128 0x28
 7450 0077 00       		.byte	0
 7451 0078 03       		.uleb128 0x3
 7452 0079 0E       		.uleb128 0xe
 7453 007a 1C       		.uleb128 0x1c
 7454 007b 0B       		.uleb128 0xb
 7455 007c 00       		.byte	0
 7456 007d 00       		.byte	0
 7457 007e 0D       		.uleb128 0xd
 7458 007f 13       		.uleb128 0x13
 7459 0080 01       		.byte	0x1
 7460 0081 03       		.uleb128 0x3
 7461 0082 0E       		.uleb128 0xe
 7462 0083 0B       		.uleb128 0xb
 7463 0084 0B       		.uleb128 0xb
 7464 0085 3A       		.uleb128 0x3a
 7465 0086 0B       		.uleb128 0xb
 7466 0087 3B       		.uleb128 0x3b
 7467 0088 0B       		.uleb128 0xb
 7468 0089 01       		.uleb128 0x1
 7469 008a 13       		.uleb128 0x13
 7470 008b 00       		.byte	0
 7471 008c 00       		.byte	0
 7472 008d 0E       		.uleb128 0xe
 7473 008e 0D       		.uleb128 0xd
 7474 008f 00       		.byte	0
 7475 0090 03       		.uleb128 0x3
 7476 0091 0E       		.uleb128 0xe
 7477 0092 3A       		.uleb128 0x3a
 7478 0093 0B       		.uleb128 0xb
 7479 0094 3B       		.uleb128 0x3b
 7480 0095 0B       		.uleb128 0xb
 7481 0096 49       		.uleb128 0x49
 7482 0097 13       		.uleb128 0x13
 7483 0098 38       		.uleb128 0x38
 7484 0099 0B       		.uleb128 0xb
 7485 009a 00       		.byte	0
 7486 009b 00       		.byte	0
 7487 009c 0F       		.uleb128 0xf
 7488 009d 01       		.uleb128 0x1
 7489 009e 01       		.byte	0x1
 7490 009f 49       		.uleb128 0x49
 7491 00a0 13       		.uleb128 0x13
 7492 00a1 01       		.uleb128 0x1
 7493 00a2 13       		.uleb128 0x13
 7494 00a3 00       		.byte	0
 7495 00a4 00       		.byte	0
 7496 00a5 10       		.uleb128 0x10
ARM GAS  C:\Users\Reza\AppData\Local\Temp\cckOPwM0.s 			page 156


 7497 00a6 21       		.uleb128 0x21
 7498 00a7 00       		.byte	0
 7499 00a8 49       		.uleb128 0x49
 7500 00a9 13       		.uleb128 0x13
 7501 00aa 2F       		.uleb128 0x2f
 7502 00ab 0B       		.uleb128 0xb
 7503 00ac 00       		.byte	0
 7504 00ad 00       		.byte	0
 7505 00ae 11       		.uleb128 0x11
 7506 00af 2E       		.uleb128 0x2e
 7507 00b0 01       		.byte	0x1
 7508 00b1 3F       		.uleb128 0x3f
 7509 00b2 19       		.uleb128 0x19
 7510 00b3 03       		.uleb128 0x3
 7511 00b4 0E       		.uleb128 0xe
 7512 00b5 3A       		.uleb128 0x3a
 7513 00b6 0B       		.uleb128 0xb
 7514 00b7 3B       		.uleb128 0x3b
 7515 00b8 0B       		.uleb128 0xb
 7516 00b9 27       		.uleb128 0x27
 7517 00ba 19       		.uleb128 0x19
 7518 00bb 49       		.uleb128 0x49
 7519 00bc 13       		.uleb128 0x13
 7520 00bd 11       		.uleb128 0x11
 7521 00be 01       		.uleb128 0x1
 7522 00bf 12       		.uleb128 0x12
 7523 00c0 06       		.uleb128 0x6
 7524 00c1 40       		.uleb128 0x40
 7525 00c2 18       		.uleb128 0x18
 7526 00c3 9742     		.uleb128 0x2117
 7527 00c5 19       		.uleb128 0x19
 7528 00c6 01       		.uleb128 0x1
 7529 00c7 13       		.uleb128 0x13
 7530 00c8 00       		.byte	0
 7531 00c9 00       		.byte	0
 7532 00ca 12       		.uleb128 0x12
 7533 00cb 34       		.uleb128 0x34
 7534 00cc 00       		.byte	0
 7535 00cd 03       		.uleb128 0x3
 7536 00ce 0E       		.uleb128 0xe
 7537 00cf 3A       		.uleb128 0x3a
 7538 00d0 0B       		.uleb128 0xb
 7539 00d1 3B       		.uleb128 0x3b
 7540 00d2 0B       		.uleb128 0xb
 7541 00d3 49       		.uleb128 0x49
 7542 00d4 13       		.uleb128 0x13
 7543 00d5 02       		.uleb128 0x2
 7544 00d6 17       		.uleb128 0x17
 7545 00d7 00       		.byte	0
 7546 00d8 00       		.byte	0
 7547 00d9 13       		.uleb128 0x13
 7548 00da 2E       		.uleb128 0x2e
 7549 00db 01       		.byte	0x1
 7550 00dc 3F       		.uleb128 0x3f
 7551 00dd 19       		.uleb128 0x19
 7552 00de 03       		.uleb128 0x3
 7553 00df 0E       		.uleb128 0xe
ARM GAS  C:\Users\Reza\AppData\Local\Temp\cckOPwM0.s 			page 157


 7554 00e0 3A       		.uleb128 0x3a
 7555 00e1 0B       		.uleb128 0xb
 7556 00e2 3B       		.uleb128 0x3b
 7557 00e3 0B       		.uleb128 0xb
 7558 00e4 49       		.uleb128 0x49
 7559 00e5 13       		.uleb128 0x13
 7560 00e6 3C       		.uleb128 0x3c
 7561 00e7 19       		.uleb128 0x19
 7562 00e8 01       		.uleb128 0x1
 7563 00e9 13       		.uleb128 0x13
 7564 00ea 00       		.byte	0
 7565 00eb 00       		.byte	0
 7566 00ec 14       		.uleb128 0x14
 7567 00ed 18       		.uleb128 0x18
 7568 00ee 00       		.byte	0
 7569 00ef 00       		.byte	0
 7570 00f0 00       		.byte	0
 7571 00f1 15       		.uleb128 0x15
 7572 00f2 0B       		.uleb128 0xb
 7573 00f3 01       		.byte	0x1
 7574 00f4 11       		.uleb128 0x11
 7575 00f5 01       		.uleb128 0x1
 7576 00f6 12       		.uleb128 0x12
 7577 00f7 06       		.uleb128 0x6
 7578 00f8 01       		.uleb128 0x1
 7579 00f9 13       		.uleb128 0x13
 7580 00fa 00       		.byte	0
 7581 00fb 00       		.byte	0
 7582 00fc 16       		.uleb128 0x16
 7583 00fd 898201   		.uleb128 0x4109
 7584 0100 00       		.byte	0
 7585 0101 11       		.uleb128 0x11
 7586 0102 01       		.uleb128 0x1
 7587 0103 31       		.uleb128 0x31
 7588 0104 13       		.uleb128 0x13
 7589 0105 00       		.byte	0
 7590 0106 00       		.byte	0
 7591 0107 17       		.uleb128 0x17
 7592 0108 2E       		.uleb128 0x2e
 7593 0109 01       		.byte	0x1
 7594 010a 3F       		.uleb128 0x3f
 7595 010b 19       		.uleb128 0x19
 7596 010c 03       		.uleb128 0x3
 7597 010d 0E       		.uleb128 0xe
 7598 010e 3A       		.uleb128 0x3a
 7599 010f 0B       		.uleb128 0xb
 7600 0110 3B       		.uleb128 0x3b
 7601 0111 0B       		.uleb128 0xb
 7602 0112 27       		.uleb128 0x27
 7603 0113 19       		.uleb128 0x19
 7604 0114 11       		.uleb128 0x11
 7605 0115 01       		.uleb128 0x1
 7606 0116 12       		.uleb128 0x12
 7607 0117 06       		.uleb128 0x6
 7608 0118 40       		.uleb128 0x40
 7609 0119 18       		.uleb128 0x18
 7610 011a 9742     		.uleb128 0x2117
ARM GAS  C:\Users\Reza\AppData\Local\Temp\cckOPwM0.s 			page 158


 7611 011c 19       		.uleb128 0x19
 7612 011d 01       		.uleb128 0x1
 7613 011e 13       		.uleb128 0x13
 7614 011f 00       		.byte	0
 7615 0120 00       		.byte	0
 7616 0121 18       		.uleb128 0x18
 7617 0122 05       		.uleb128 0x5
 7618 0123 00       		.byte	0
 7619 0124 03       		.uleb128 0x3
 7620 0125 0E       		.uleb128 0xe
 7621 0126 3A       		.uleb128 0x3a
 7622 0127 0B       		.uleb128 0xb
 7623 0128 3B       		.uleb128 0x3b
 7624 0129 0B       		.uleb128 0xb
 7625 012a 49       		.uleb128 0x49
 7626 012b 13       		.uleb128 0x13
 7627 012c 02       		.uleb128 0x2
 7628 012d 17       		.uleb128 0x17
 7629 012e 00       		.byte	0
 7630 012f 00       		.byte	0
 7631 0130 19       		.uleb128 0x19
 7632 0131 0B       		.uleb128 0xb
 7633 0132 01       		.byte	0x1
 7634 0133 11       		.uleb128 0x11
 7635 0134 01       		.uleb128 0x1
 7636 0135 12       		.uleb128 0x12
 7637 0136 06       		.uleb128 0x6
 7638 0137 00       		.byte	0
 7639 0138 00       		.byte	0
 7640 0139 1A       		.uleb128 0x1a
 7641 013a 898201   		.uleb128 0x4109
 7642 013d 01       		.byte	0x1
 7643 013e 11       		.uleb128 0x11
 7644 013f 01       		.uleb128 0x1
 7645 0140 31       		.uleb128 0x31
 7646 0141 13       		.uleb128 0x13
 7647 0142 01       		.uleb128 0x1
 7648 0143 13       		.uleb128 0x13
 7649 0144 00       		.byte	0
 7650 0145 00       		.byte	0
 7651 0146 1B       		.uleb128 0x1b
 7652 0147 8A8201   		.uleb128 0x410a
 7653 014a 00       		.byte	0
 7654 014b 02       		.uleb128 0x2
 7655 014c 18       		.uleb128 0x18
 7656 014d 9142     		.uleb128 0x2111
 7657 014f 18       		.uleb128 0x18
 7658 0150 00       		.byte	0
 7659 0151 00       		.byte	0
 7660 0152 1C       		.uleb128 0x1c
 7661 0153 898201   		.uleb128 0x4109
 7662 0156 01       		.byte	0x1
 7663 0157 11       		.uleb128 0x11
 7664 0158 01       		.uleb128 0x1
 7665 0159 31       		.uleb128 0x31
 7666 015a 13       		.uleb128 0x13
 7667 015b 00       		.byte	0
ARM GAS  C:\Users\Reza\AppData\Local\Temp\cckOPwM0.s 			page 159


 7668 015c 00       		.byte	0
 7669 015d 1D       		.uleb128 0x1d
 7670 015e 05       		.uleb128 0x5
 7671 015f 00       		.byte	0
 7672 0160 03       		.uleb128 0x3
 7673 0161 0E       		.uleb128 0xe
 7674 0162 3A       		.uleb128 0x3a
 7675 0163 0B       		.uleb128 0xb
 7676 0164 3B       		.uleb128 0x3b
 7677 0165 0B       		.uleb128 0xb
 7678 0166 49       		.uleb128 0x49
 7679 0167 13       		.uleb128 0x13
 7680 0168 02       		.uleb128 0x2
 7681 0169 18       		.uleb128 0x18
 7682 016a 00       		.byte	0
 7683 016b 00       		.byte	0
 7684 016c 1E       		.uleb128 0x1e
 7685 016d 34       		.uleb128 0x34
 7686 016e 00       		.byte	0
 7687 016f 03       		.uleb128 0x3
 7688 0170 0E       		.uleb128 0xe
 7689 0171 3A       		.uleb128 0x3a
 7690 0172 0B       		.uleb128 0xb
 7691 0173 3B       		.uleb128 0x3b
 7692 0174 0B       		.uleb128 0xb
 7693 0175 49       		.uleb128 0x49
 7694 0176 13       		.uleb128 0x13
 7695 0177 02       		.uleb128 0x2
 7696 0178 18       		.uleb128 0x18
 7697 0179 00       		.byte	0
 7698 017a 00       		.byte	0
 7699 017b 1F       		.uleb128 0x1f
 7700 017c 2E       		.uleb128 0x2e
 7701 017d 01       		.byte	0x1
 7702 017e 3F       		.uleb128 0x3f
 7703 017f 19       		.uleb128 0x19
 7704 0180 03       		.uleb128 0x3
 7705 0181 0E       		.uleb128 0xe
 7706 0182 3A       		.uleb128 0x3a
 7707 0183 0B       		.uleb128 0xb
 7708 0184 3B       		.uleb128 0x3b
 7709 0185 05       		.uleb128 0x5
 7710 0186 27       		.uleb128 0x27
 7711 0187 19       		.uleb128 0x19
 7712 0188 11       		.uleb128 0x11
 7713 0189 01       		.uleb128 0x1
 7714 018a 12       		.uleb128 0x12
 7715 018b 06       		.uleb128 0x6
 7716 018c 40       		.uleb128 0x40
 7717 018d 18       		.uleb128 0x18
 7718 018e 9742     		.uleb128 0x2117
 7719 0190 19       		.uleb128 0x19
 7720 0191 01       		.uleb128 0x1
 7721 0192 13       		.uleb128 0x13
 7722 0193 00       		.byte	0
 7723 0194 00       		.byte	0
 7724 0195 20       		.uleb128 0x20
ARM GAS  C:\Users\Reza\AppData\Local\Temp\cckOPwM0.s 			page 160


 7725 0196 05       		.uleb128 0x5
 7726 0197 00       		.byte	0
 7727 0198 03       		.uleb128 0x3
 7728 0199 0E       		.uleb128 0xe
 7729 019a 3A       		.uleb128 0x3a
 7730 019b 0B       		.uleb128 0xb
 7731 019c 3B       		.uleb128 0x3b
 7732 019d 05       		.uleb128 0x5
 7733 019e 49       		.uleb128 0x49
 7734 019f 13       		.uleb128 0x13
 7735 01a0 02       		.uleb128 0x2
 7736 01a1 17       		.uleb128 0x17
 7737 01a2 00       		.byte	0
 7738 01a3 00       		.byte	0
 7739 01a4 21       		.uleb128 0x21
 7740 01a5 34       		.uleb128 0x34
 7741 01a6 00       		.byte	0
 7742 01a7 03       		.uleb128 0x3
 7743 01a8 0E       		.uleb128 0xe
 7744 01a9 3A       		.uleb128 0x3a
 7745 01aa 0B       		.uleb128 0xb
 7746 01ab 3B       		.uleb128 0x3b
 7747 01ac 05       		.uleb128 0x5
 7748 01ad 49       		.uleb128 0x49
 7749 01ae 13       		.uleb128 0x13
 7750 01af 02       		.uleb128 0x2
 7751 01b0 17       		.uleb128 0x17
 7752 01b1 00       		.byte	0
 7753 01b2 00       		.byte	0
 7754 01b3 22       		.uleb128 0x22
 7755 01b4 2E       		.uleb128 0x2e
 7756 01b5 01       		.byte	0x1
 7757 01b6 3F       		.uleb128 0x3f
 7758 01b7 19       		.uleb128 0x19
 7759 01b8 03       		.uleb128 0x3
 7760 01b9 0E       		.uleb128 0xe
 7761 01ba 3A       		.uleb128 0x3a
 7762 01bb 0B       		.uleb128 0xb
 7763 01bc 3B       		.uleb128 0x3b
 7764 01bd 05       		.uleb128 0x5
 7765 01be 27       		.uleb128 0x27
 7766 01bf 19       		.uleb128 0x19
 7767 01c0 49       		.uleb128 0x49
 7768 01c1 13       		.uleb128 0x13
 7769 01c2 11       		.uleb128 0x11
 7770 01c3 01       		.uleb128 0x1
 7771 01c4 12       		.uleb128 0x12
 7772 01c5 06       		.uleb128 0x6
 7773 01c6 40       		.uleb128 0x40
 7774 01c7 18       		.uleb128 0x18
 7775 01c8 9742     		.uleb128 0x2117
 7776 01ca 19       		.uleb128 0x19
 7777 01cb 01       		.uleb128 0x1
 7778 01cc 13       		.uleb128 0x13
 7779 01cd 00       		.byte	0
 7780 01ce 00       		.byte	0
 7781 01cf 23       		.uleb128 0x23
ARM GAS  C:\Users\Reza\AppData\Local\Temp\cckOPwM0.s 			page 161


 7782 01d0 26       		.uleb128 0x26
 7783 01d1 00       		.byte	0
 7784 01d2 00       		.byte	0
 7785 01d3 00       		.byte	0
 7786 01d4 24       		.uleb128 0x24
 7787 01d5 05       		.uleb128 0x5
 7788 01d6 00       		.byte	0
 7789 01d7 03       		.uleb128 0x3
 7790 01d8 08       		.uleb128 0x8
 7791 01d9 3A       		.uleb128 0x3a
 7792 01da 0B       		.uleb128 0xb
 7793 01db 3B       		.uleb128 0x3b
 7794 01dc 05       		.uleb128 0x5
 7795 01dd 49       		.uleb128 0x49
 7796 01de 13       		.uleb128 0x13
 7797 01df 02       		.uleb128 0x2
 7798 01e0 17       		.uleb128 0x17
 7799 01e1 00       		.byte	0
 7800 01e2 00       		.byte	0
 7801 01e3 25       		.uleb128 0x25
 7802 01e4 05       		.uleb128 0x5
 7803 01e5 00       		.byte	0
 7804 01e6 03       		.uleb128 0x3
 7805 01e7 0E       		.uleb128 0xe
 7806 01e8 3A       		.uleb128 0x3a
 7807 01e9 0B       		.uleb128 0xb
 7808 01ea 3B       		.uleb128 0x3b
 7809 01eb 05       		.uleb128 0x5
 7810 01ec 49       		.uleb128 0x49
 7811 01ed 13       		.uleb128 0x13
 7812 01ee 02       		.uleb128 0x2
 7813 01ef 18       		.uleb128 0x18
 7814 01f0 00       		.byte	0
 7815 01f1 00       		.byte	0
 7816 01f2 26       		.uleb128 0x26
 7817 01f3 34       		.uleb128 0x34
 7818 01f4 00       		.byte	0
 7819 01f5 03       		.uleb128 0x3
 7820 01f6 0E       		.uleb128 0xe
 7821 01f7 3A       		.uleb128 0x3a
 7822 01f8 0B       		.uleb128 0xb
 7823 01f9 3B       		.uleb128 0x3b
 7824 01fa 05       		.uleb128 0x5
 7825 01fb 49       		.uleb128 0x49
 7826 01fc 13       		.uleb128 0x13
 7827 01fd 3F       		.uleb128 0x3f
 7828 01fe 19       		.uleb128 0x19
 7829 01ff 3C       		.uleb128 0x3c
 7830 0200 19       		.uleb128 0x19
 7831 0201 00       		.byte	0
 7832 0202 00       		.byte	0
 7833 0203 27       		.uleb128 0x27
 7834 0204 35       		.uleb128 0x35
 7835 0205 00       		.byte	0
 7836 0206 49       		.uleb128 0x49
 7837 0207 13       		.uleb128 0x13
 7838 0208 00       		.byte	0
ARM GAS  C:\Users\Reza\AppData\Local\Temp\cckOPwM0.s 			page 162


 7839 0209 00       		.byte	0
 7840 020a 28       		.uleb128 0x28
 7841 020b 2E       		.uleb128 0x2e
 7842 020c 00       		.byte	0
 7843 020d 3F       		.uleb128 0x3f
 7844 020e 19       		.uleb128 0x19
 7845 020f 3C       		.uleb128 0x3c
 7846 0210 19       		.uleb128 0x19
 7847 0211 6E       		.uleb128 0x6e
 7848 0212 0E       		.uleb128 0xe
 7849 0213 03       		.uleb128 0x3
 7850 0214 0E       		.uleb128 0xe
 7851 0215 3A       		.uleb128 0x3a
 7852 0216 0B       		.uleb128 0xb
 7853 0217 3B       		.uleb128 0x3b
 7854 0218 0B       		.uleb128 0xb
 7855 0219 00       		.byte	0
 7856 021a 00       		.byte	0
 7857 021b 29       		.uleb128 0x29
 7858 021c 2E       		.uleb128 0x2e
 7859 021d 00       		.byte	0
 7860 021e 3F       		.uleb128 0x3f
 7861 021f 19       		.uleb128 0x19
 7862 0220 3C       		.uleb128 0x3c
 7863 0221 19       		.uleb128 0x19
 7864 0222 6E       		.uleb128 0x6e
 7865 0223 0E       		.uleb128 0xe
 7866 0224 03       		.uleb128 0x3
 7867 0225 0E       		.uleb128 0xe
 7868 0226 3A       		.uleb128 0x3a
 7869 0227 0B       		.uleb128 0xb
 7870 0228 3B       		.uleb128 0x3b
 7871 0229 05       		.uleb128 0x5
 7872 022a 00       		.byte	0
 7873 022b 00       		.byte	0
 7874 022c 00       		.byte	0
 7875              		.section	.debug_loc,"",%progbits
 7876              	.Ldebug_loc0:
 7877              	.LLST0:
 7878 0000 08000000 		.4byte	.LVL1
 7879 0004 0F000000 		.4byte	.LVL2-1
 7880 0008 0100     		.2byte	0x1
 7881 000a 50       		.byte	0x50
 7882 000b 0F000000 		.4byte	.LVL2-1
 7883 000f 14000000 		.4byte	.LFE68
 7884 0013 0100     		.2byte	0x1
 7885 0015 54       		.byte	0x54
 7886 0016 00000000 		.4byte	0
 7887 001a 00000000 		.4byte	0
 7888              	.LLST1:
 7889 001e 00000000 		.4byte	.LVL3
 7890 0022 09000000 		.4byte	.LVL4-1
 7891 0026 0100     		.2byte	0x1
 7892 0028 50       		.byte	0x50
 7893 0029 09000000 		.4byte	.LVL4-1
 7894 002d 0C000000 		.4byte	.LVL5
 7895 0031 0400     		.2byte	0x4
ARM GAS  C:\Users\Reza\AppData\Local\Temp\cckOPwM0.s 			page 163


 7896 0033 F3       		.byte	0xf3
 7897 0034 01       		.uleb128 0x1
 7898 0035 50       		.byte	0x50
 7899 0036 9F       		.byte	0x9f
 7900 0037 0C000000 		.4byte	.LVL5
 7901 003b 0E000000 		.4byte	.LFE69
 7902 003f 0100     		.2byte	0x1
 7903 0041 50       		.byte	0x50
 7904 0042 00000000 		.4byte	0
 7905 0046 00000000 		.4byte	0
 7906              	.LLST2:
 7907 004a 00000000 		.4byte	.LVL6
 7908 004e 09000000 		.4byte	.LVL7-1
 7909 0052 0100     		.2byte	0x1
 7910 0054 50       		.byte	0x50
 7911 0055 09000000 		.4byte	.LVL7-1
 7912 0059 16000000 		.4byte	.LVL11
 7913 005d 0100     		.2byte	0x1
 7914 005f 54       		.byte	0x54
 7915 0060 16000000 		.4byte	.LVL11
 7916 0064 20000000 		.4byte	.LFE70
 7917 0068 0400     		.2byte	0x4
 7918 006a F3       		.byte	0xf3
 7919 006b 01       		.uleb128 0x1
 7920 006c 50       		.byte	0x50
 7921 006d 9F       		.byte	0x9f
 7922 006e 00000000 		.4byte	0
 7923 0072 00000000 		.4byte	0
 7924              	.LLST3:
 7925 0076 00000000 		.4byte	.LVL6
 7926 007a 09000000 		.4byte	.LVL7-1
 7927 007e 0100     		.2byte	0x1
 7928 0080 51       		.byte	0x51
 7929 0081 09000000 		.4byte	.LVL7-1
 7930 0085 20000000 		.4byte	.LFE70
 7931 0089 0100     		.2byte	0x1
 7932 008b 56       		.byte	0x56
 7933 008c 00000000 		.4byte	0
 7934 0090 00000000 		.4byte	0
 7935              	.LLST4:
 7936 0094 16000000 		.4byte	.LVL11
 7937 0098 18000000 		.4byte	.LVL12
 7938 009c 0100     		.2byte	0x1
 7939 009e 50       		.byte	0x50
 7940 009f 18000000 		.4byte	.LVL12
 7941 00a3 20000000 		.4byte	.LFE70
 7942 00a7 0100     		.2byte	0x1
 7943 00a9 54       		.byte	0x54
 7944 00aa 00000000 		.4byte	0
 7945 00ae 00000000 		.4byte	0
 7946              	.LLST5:
 7947 00b2 0C000000 		.4byte	.LVL8
 7948 00b6 10000000 		.4byte	.LVL9
 7949 00ba 0100     		.2byte	0x1
 7950 00bc 50       		.byte	0x50
 7951 00bd 10000000 		.4byte	.LVL9
 7952 00c1 20000000 		.4byte	.LFE70
ARM GAS  C:\Users\Reza\AppData\Local\Temp\cckOPwM0.s 			page 164


 7953 00c5 0100     		.2byte	0x1
 7954 00c7 55       		.byte	0x55
 7955 00c8 00000000 		.4byte	0
 7956 00cc 00000000 		.4byte	0
 7957              	.LLST6:
 7958 00d0 00000000 		.4byte	.LVL14
 7959 00d4 11000000 		.4byte	.LVL15-1
 7960 00d8 0100     		.2byte	0x1
 7961 00da 50       		.byte	0x50
 7962 00db 11000000 		.4byte	.LVL15-1
 7963 00df 2A000000 		.4byte	.LVL19
 7964 00e3 0100     		.2byte	0x1
 7965 00e5 54       		.byte	0x54
 7966 00e6 2A000000 		.4byte	.LVL19
 7967 00ea 38000000 		.4byte	.LFE71
 7968 00ee 0400     		.2byte	0x4
 7969 00f0 F3       		.byte	0xf3
 7970 00f1 01       		.uleb128 0x1
 7971 00f2 50       		.byte	0x50
 7972 00f3 9F       		.byte	0x9f
 7973 00f4 00000000 		.4byte	0
 7974 00f8 00000000 		.4byte	0
 7975              	.LLST7:
 7976 00fc 00000000 		.4byte	.LVL14
 7977 0100 11000000 		.4byte	.LVL15-1
 7978 0104 0100     		.2byte	0x1
 7979 0106 51       		.byte	0x51
 7980 0107 11000000 		.4byte	.LVL15-1
 7981 010b 38000000 		.4byte	.LFE71
 7982 010f 0100     		.2byte	0x1
 7983 0111 56       		.byte	0x56
 7984 0112 00000000 		.4byte	0
 7985 0116 00000000 		.4byte	0
 7986              	.LLST8:
 7987 011a 00000000 		.4byte	.LVL14
 7988 011e 11000000 		.4byte	.LVL15-1
 7989 0122 0100     		.2byte	0x1
 7990 0124 52       		.byte	0x52
 7991 0125 11000000 		.4byte	.LVL15-1
 7992 0129 38000000 		.4byte	.LFE71
 7993 012d 0400     		.2byte	0x4
 7994 012f F3       		.byte	0xf3
 7995 0130 01       		.uleb128 0x1
 7996 0131 52       		.byte	0x52
 7997 0132 9F       		.byte	0x9f
 7998 0133 00000000 		.4byte	0
 7999 0137 00000000 		.4byte	0
 8000              	.LLST9:
 8001 013b 00000000 		.4byte	.LVL14
 8002 013f 11000000 		.4byte	.LVL15-1
 8003 0143 0100     		.2byte	0x1
 8004 0145 53       		.byte	0x53
 8005 0146 11000000 		.4byte	.LVL15-1
 8006 014a 38000000 		.4byte	.LFE71
 8007 014e 0100     		.2byte	0x1
 8008 0150 58       		.byte	0x58
 8009 0151 00000000 		.4byte	0
ARM GAS  C:\Users\Reza\AppData\Local\Temp\cckOPwM0.s 			page 165


 8010 0155 00000000 		.4byte	0
 8011              	.LLST10:
 8012 0159 2A000000 		.4byte	.LVL19
 8013 015d 2C000000 		.4byte	.LVL20
 8014 0161 0100     		.2byte	0x1
 8015 0163 50       		.byte	0x50
 8016 0164 2C000000 		.4byte	.LVL20
 8017 0168 38000000 		.4byte	.LFE71
 8018 016c 0100     		.2byte	0x1
 8019 016e 54       		.byte	0x54
 8020 016f 00000000 		.4byte	0
 8021 0173 00000000 		.4byte	0
 8022              	.LLST11:
 8023 0177 14000000 		.4byte	.LVL16
 8024 017b 24000000 		.4byte	.LVL17
 8025 017f 0100     		.2byte	0x1
 8026 0181 50       		.byte	0x50
 8027 0182 24000000 		.4byte	.LVL17
 8028 0186 38000000 		.4byte	.LFE71
 8029 018a 0100     		.2byte	0x1
 8030 018c 55       		.byte	0x55
 8031 018d 00000000 		.4byte	0
 8032 0191 00000000 		.4byte	0
 8033              	.LLST12:
 8034 0195 00000000 		.4byte	.LVL22
 8035 0199 09000000 		.4byte	.LVL23-1
 8036 019d 0100     		.2byte	0x1
 8037 019f 50       		.byte	0x50
 8038 01a0 09000000 		.4byte	.LVL23-1
 8039 01a4 1C000000 		.4byte	.LFE72
 8040 01a8 0100     		.2byte	0x1
 8041 01aa 55       		.byte	0x55
 8042 01ab 00000000 		.4byte	0
 8043 01af 00000000 		.4byte	0
 8044              	.LLST13:
 8045 01b3 00000000 		.4byte	.LVL22
 8046 01b7 09000000 		.4byte	.LVL23-1
 8047 01bb 0100     		.2byte	0x1
 8048 01bd 51       		.byte	0x51
 8049 01be 09000000 		.4byte	.LVL23-1
 8050 01c2 1C000000 		.4byte	.LFE72
 8051 01c6 0100     		.2byte	0x1
 8052 01c8 56       		.byte	0x56
 8053 01c9 00000000 		.4byte	0
 8054 01cd 00000000 		.4byte	0
 8055              	.LLST14:
 8056 01d1 0C000000 		.4byte	.LVL24
 8057 01d5 10000000 		.4byte	.LVL25
 8058 01d9 0100     		.2byte	0x1
 8059 01db 50       		.byte	0x50
 8060 01dc 10000000 		.4byte	.LVL25
 8061 01e0 1C000000 		.4byte	.LFE72
 8062 01e4 0100     		.2byte	0x1
 8063 01e6 54       		.byte	0x54
 8064 01e7 00000000 		.4byte	0
 8065 01eb 00000000 		.4byte	0
 8066              	.LLST15:
ARM GAS  C:\Users\Reza\AppData\Local\Temp\cckOPwM0.s 			page 166


 8067 01ef 00000000 		.4byte	.LVL28
 8068 01f3 07000000 		.4byte	.LVL29-1
 8069 01f7 0100     		.2byte	0x1
 8070 01f9 50       		.byte	0x50
 8071 01fa 07000000 		.4byte	.LVL29-1
 8072 01fe 18000000 		.4byte	.LFE73
 8073 0202 0100     		.2byte	0x1
 8074 0204 55       		.byte	0x55
 8075 0205 00000000 		.4byte	0
 8076 0209 00000000 		.4byte	0
 8077              	.LLST16:
 8078 020d 0A000000 		.4byte	.LVL30
 8079 0211 0C000000 		.4byte	.LVL31
 8080 0215 0100     		.2byte	0x1
 8081 0217 50       		.byte	0x50
 8082 0218 0C000000 		.4byte	.LVL31
 8083 021c 18000000 		.4byte	.LFE73
 8084 0220 0100     		.2byte	0x1
 8085 0222 54       		.byte	0x54
 8086 0223 00000000 		.4byte	0
 8087 0227 00000000 		.4byte	0
 8088              	.LLST17:
 8089 022b 00000000 		.4byte	.LVL34
 8090 022f 09000000 		.4byte	.LVL35-1
 8091 0233 0100     		.2byte	0x1
 8092 0235 50       		.byte	0x50
 8093 0236 09000000 		.4byte	.LVL35-1
 8094 023a 1C000000 		.4byte	.LFE74
 8095 023e 0100     		.2byte	0x1
 8096 0240 55       		.byte	0x55
 8097 0241 00000000 		.4byte	0
 8098 0245 00000000 		.4byte	0
 8099              	.LLST18:
 8100 0249 00000000 		.4byte	.LVL34
 8101 024d 09000000 		.4byte	.LVL35-1
 8102 0251 0100     		.2byte	0x1
 8103 0253 51       		.byte	0x51
 8104 0254 09000000 		.4byte	.LVL35-1
 8105 0258 1C000000 		.4byte	.LFE74
 8106 025c 0100     		.2byte	0x1
 8107 025e 56       		.byte	0x56
 8108 025f 00000000 		.4byte	0
 8109 0263 00000000 		.4byte	0
 8110              	.LLST19:
 8111 0267 0C000000 		.4byte	.LVL36
 8112 026b 10000000 		.4byte	.LVL37
 8113 026f 0100     		.2byte	0x1
 8114 0271 50       		.byte	0x50
 8115 0272 10000000 		.4byte	.LVL37
 8116 0276 1C000000 		.4byte	.LFE74
 8117 027a 0100     		.2byte	0x1
 8118 027c 54       		.byte	0x54
 8119 027d 00000000 		.4byte	0
 8120 0281 00000000 		.4byte	0
 8121              	.LLST20:
 8122 0285 00000000 		.4byte	.LVL40
 8123 0289 07000000 		.4byte	.LVL41-1
ARM GAS  C:\Users\Reza\AppData\Local\Temp\cckOPwM0.s 			page 167


 8124 028d 0100     		.2byte	0x1
 8125 028f 50       		.byte	0x50
 8126 0290 07000000 		.4byte	.LVL41-1
 8127 0294 18000000 		.4byte	.LFE75
 8128 0298 0100     		.2byte	0x1
 8129 029a 55       		.byte	0x55
 8130 029b 00000000 		.4byte	0
 8131 029f 00000000 		.4byte	0
 8132              	.LLST21:
 8133 02a3 0A000000 		.4byte	.LVL42
 8134 02a7 0C000000 		.4byte	.LVL43
 8135 02ab 0100     		.2byte	0x1
 8136 02ad 50       		.byte	0x50
 8137 02ae 0C000000 		.4byte	.LVL43
 8138 02b2 18000000 		.4byte	.LFE75
 8139 02b6 0100     		.2byte	0x1
 8140 02b8 54       		.byte	0x54
 8141 02b9 00000000 		.4byte	0
 8142 02bd 00000000 		.4byte	0
 8143              	.LLST22:
 8144 02c1 00000000 		.4byte	.LVL46
 8145 02c5 07000000 		.4byte	.LVL47-1
 8146 02c9 0100     		.2byte	0x1
 8147 02cb 50       		.byte	0x50
 8148 02cc 07000000 		.4byte	.LVL47-1
 8149 02d0 12000000 		.4byte	.LVL51
 8150 02d4 0100     		.2byte	0x1
 8151 02d6 54       		.byte	0x54
 8152 02d7 12000000 		.4byte	.LVL51
 8153 02db 1C000000 		.4byte	.LFE76
 8154 02df 0400     		.2byte	0x4
 8155 02e1 F3       		.byte	0xf3
 8156 02e2 01       		.uleb128 0x1
 8157 02e3 50       		.byte	0x50
 8158 02e4 9F       		.byte	0x9f
 8159 02e5 00000000 		.4byte	0
 8160 02e9 00000000 		.4byte	0
 8161              	.LLST23:
 8162 02ed 12000000 		.4byte	.LVL51
 8163 02f1 14000000 		.4byte	.LVL52
 8164 02f5 0100     		.2byte	0x1
 8165 02f7 50       		.byte	0x50
 8166 02f8 14000000 		.4byte	.LVL52
 8167 02fc 1C000000 		.4byte	.LFE76
 8168 0300 0100     		.2byte	0x1
 8169 0302 54       		.byte	0x54
 8170 0303 00000000 		.4byte	0
 8171 0307 00000000 		.4byte	0
 8172              	.LLST24:
 8173 030b 0A000000 		.4byte	.LVL48
 8174 030f 0C000000 		.4byte	.LVL49
 8175 0313 0100     		.2byte	0x1
 8176 0315 50       		.byte	0x50
 8177 0316 0C000000 		.4byte	.LVL49
 8178 031a 1C000000 		.4byte	.LFE76
 8179 031e 0100     		.2byte	0x1
 8180 0320 55       		.byte	0x55
ARM GAS  C:\Users\Reza\AppData\Local\Temp\cckOPwM0.s 			page 168


 8181 0321 00000000 		.4byte	0
 8182 0325 00000000 		.4byte	0
 8183              	.LLST25:
 8184 0329 00000000 		.4byte	.LVL54
 8185 032d 09000000 		.4byte	.LVL55-1
 8186 0331 0100     		.2byte	0x1
 8187 0333 50       		.byte	0x50
 8188 0334 09000000 		.4byte	.LVL55-1
 8189 0338 1C000000 		.4byte	.LFE77
 8190 033c 0100     		.2byte	0x1
 8191 033e 55       		.byte	0x55
 8192 033f 00000000 		.4byte	0
 8193 0343 00000000 		.4byte	0
 8194              	.LLST26:
 8195 0347 00000000 		.4byte	.LVL54
 8196 034b 09000000 		.4byte	.LVL55-1
 8197 034f 0100     		.2byte	0x1
 8198 0351 51       		.byte	0x51
 8199 0352 09000000 		.4byte	.LVL55-1
 8200 0356 1C000000 		.4byte	.LFE77
 8201 035a 0100     		.2byte	0x1
 8202 035c 56       		.byte	0x56
 8203 035d 00000000 		.4byte	0
 8204 0361 00000000 		.4byte	0
 8205              	.LLST27:
 8206 0365 0C000000 		.4byte	.LVL56
 8207 0369 10000000 		.4byte	.LVL57
 8208 036d 0100     		.2byte	0x1
 8209 036f 50       		.byte	0x50
 8210 0370 10000000 		.4byte	.LVL57
 8211 0374 1C000000 		.4byte	.LFE77
 8212 0378 0100     		.2byte	0x1
 8213 037a 54       		.byte	0x54
 8214 037b 00000000 		.4byte	0
 8215 037f 00000000 		.4byte	0
 8216              	.LLST28:
 8217 0383 00000000 		.4byte	.LVL60
 8218 0387 07000000 		.4byte	.LVL61-1
 8219 038b 0100     		.2byte	0x1
 8220 038d 50       		.byte	0x50
 8221 038e 07000000 		.4byte	.LVL61-1
 8222 0392 12000000 		.4byte	.LVL65
 8223 0396 0100     		.2byte	0x1
 8224 0398 54       		.byte	0x54
 8225 0399 12000000 		.4byte	.LVL65
 8226 039d 1C000000 		.4byte	.LFE78
 8227 03a1 0400     		.2byte	0x4
 8228 03a3 F3       		.byte	0xf3
 8229 03a4 01       		.uleb128 0x1
 8230 03a5 50       		.byte	0x50
 8231 03a6 9F       		.byte	0x9f
 8232 03a7 00000000 		.4byte	0
 8233 03ab 00000000 		.4byte	0
 8234              	.LLST29:
 8235 03af 0A000000 		.4byte	.LVL62
 8236 03b3 0C000000 		.4byte	.LVL63
 8237 03b7 0100     		.2byte	0x1
ARM GAS  C:\Users\Reza\AppData\Local\Temp\cckOPwM0.s 			page 169


 8238 03b9 50       		.byte	0x50
 8239 03ba 0C000000 		.4byte	.LVL63
 8240 03be 1C000000 		.4byte	.LFE78
 8241 03c2 0100     		.2byte	0x1
 8242 03c4 55       		.byte	0x55
 8243 03c5 00000000 		.4byte	0
 8244 03c9 00000000 		.4byte	0
 8245              	.LLST30:
 8246 03cd 00000000 		.4byte	.LVL67
 8247 03d1 07000000 		.4byte	.LVL68-1
 8248 03d5 0100     		.2byte	0x1
 8249 03d7 50       		.byte	0x50
 8250 03d8 07000000 		.4byte	.LVL68-1
 8251 03dc 18000000 		.4byte	.LFE79
 8252 03e0 0100     		.2byte	0x1
 8253 03e2 55       		.byte	0x55
 8254 03e3 00000000 		.4byte	0
 8255 03e7 00000000 		.4byte	0
 8256              	.LLST31:
 8257 03eb 0A000000 		.4byte	.LVL69
 8258 03ef 0C000000 		.4byte	.LVL70
 8259 03f3 0100     		.2byte	0x1
 8260 03f5 50       		.byte	0x50
 8261 03f6 0C000000 		.4byte	.LVL70
 8262 03fa 18000000 		.4byte	.LFE79
 8263 03fe 0100     		.2byte	0x1
 8264 0400 54       		.byte	0x54
 8265 0401 00000000 		.4byte	0
 8266 0405 00000000 		.4byte	0
 8267              	.LLST32:
 8268 0409 00000000 		.4byte	.LVL73
 8269 040d 07000000 		.4byte	.LVL74-1
 8270 0411 0100     		.2byte	0x1
 8271 0413 50       		.byte	0x50
 8272 0414 07000000 		.4byte	.LVL74-1
 8273 0418 18000000 		.4byte	.LFE80
 8274 041c 0100     		.2byte	0x1
 8275 041e 55       		.byte	0x55
 8276 041f 00000000 		.4byte	0
 8277 0423 00000000 		.4byte	0
 8278              	.LLST33:
 8279 0427 0A000000 		.4byte	.LVL75
 8280 042b 0C000000 		.4byte	.LVL76
 8281 042f 0100     		.2byte	0x1
 8282 0431 50       		.byte	0x50
 8283 0432 0C000000 		.4byte	.LVL76
 8284 0436 18000000 		.4byte	.LFE80
 8285 043a 0100     		.2byte	0x1
 8286 043c 54       		.byte	0x54
 8287 043d 00000000 		.4byte	0
 8288 0441 00000000 		.4byte	0
 8289              	.LLST34:
 8290 0445 08000000 		.4byte	.LVL80
 8291 0449 0B000000 		.4byte	.LVL81-1
 8292 044d 0100     		.2byte	0x1
 8293 044f 50       		.byte	0x50
 8294 0450 0B000000 		.4byte	.LVL81-1
ARM GAS  C:\Users\Reza\AppData\Local\Temp\cckOPwM0.s 			page 170


 8295 0454 14000000 		.4byte	.LFE81
 8296 0458 0100     		.2byte	0x1
 8297 045a 54       		.byte	0x54
 8298 045b 00000000 		.4byte	0
 8299 045f 00000000 		.4byte	0
 8300              	.LLST35:
 8301 0463 0E000000 		.4byte	.LVL86
 8302 0467 10000000 		.4byte	.LVL87
 8303 046b 0100     		.2byte	0x1
 8304 046d 50       		.byte	0x50
 8305 046e 10000000 		.4byte	.LVL87
 8306 0472 18000000 		.4byte	.LFE82
 8307 0476 0100     		.2byte	0x1
 8308 0478 54       		.byte	0x54
 8309 0479 00000000 		.4byte	0
 8310 047d 00000000 		.4byte	0
 8311              	.LLST36:
 8312 0481 08000000 		.4byte	.LVL84
 8313 0485 0B000000 		.4byte	.LVL85-1
 8314 0489 0100     		.2byte	0x1
 8315 048b 50       		.byte	0x50
 8316 048c 0B000000 		.4byte	.LVL85-1
 8317 0490 18000000 		.4byte	.LFE82
 8318 0494 0100     		.2byte	0x1
 8319 0496 55       		.byte	0x55
 8320 0497 00000000 		.4byte	0
 8321 049b 00000000 		.4byte	0
 8322              	.LLST37:
 8323 049f 0E000000 		.4byte	.LVL92
 8324 04a3 10000000 		.4byte	.LVL93
 8325 04a7 0100     		.2byte	0x1
 8326 04a9 50       		.byte	0x50
 8327 04aa 10000000 		.4byte	.LVL93
 8328 04ae 18000000 		.4byte	.LFE83
 8329 04b2 0100     		.2byte	0x1
 8330 04b4 54       		.byte	0x54
 8331 04b5 00000000 		.4byte	0
 8332 04b9 00000000 		.4byte	0
 8333              	.LLST38:
 8334 04bd 08000000 		.4byte	.LVL90
 8335 04c1 0B000000 		.4byte	.LVL91-1
 8336 04c5 0100     		.2byte	0x1
 8337 04c7 50       		.byte	0x50
 8338 04c8 0B000000 		.4byte	.LVL91-1
 8339 04cc 18000000 		.4byte	.LFE83
 8340 04d0 0100     		.2byte	0x1
 8341 04d2 55       		.byte	0x55
 8342 04d3 00000000 		.4byte	0
 8343 04d7 00000000 		.4byte	0
 8344              	.LLST39:
 8345 04db 0E000000 		.4byte	.LVL98
 8346 04df 10000000 		.4byte	.LVL99
 8347 04e3 0100     		.2byte	0x1
 8348 04e5 50       		.byte	0x50
 8349 04e6 10000000 		.4byte	.LVL99
 8350 04ea 18000000 		.4byte	.LFE84
 8351 04ee 0100     		.2byte	0x1
ARM GAS  C:\Users\Reza\AppData\Local\Temp\cckOPwM0.s 			page 171


 8352 04f0 54       		.byte	0x54
 8353 04f1 00000000 		.4byte	0
 8354 04f5 00000000 		.4byte	0
 8355              	.LLST40:
 8356 04f9 08000000 		.4byte	.LVL96
 8357 04fd 0B000000 		.4byte	.LVL97-1
 8358 0501 0100     		.2byte	0x1
 8359 0503 50       		.byte	0x50
 8360 0504 0B000000 		.4byte	.LVL97-1
 8361 0508 18000000 		.4byte	.LFE84
 8362 050c 0100     		.2byte	0x1
 8363 050e 55       		.byte	0x55
 8364 050f 00000000 		.4byte	0
 8365 0513 00000000 		.4byte	0
 8366              	.LLST41:
 8367 0517 00000000 		.4byte	.LVL101
 8368 051b 07000000 		.4byte	.LVL102-1
 8369 051f 0100     		.2byte	0x1
 8370 0521 50       		.byte	0x50
 8371 0522 07000000 		.4byte	.LVL102-1
 8372 0526 12000000 		.4byte	.LVL106
 8373 052a 0100     		.2byte	0x1
 8374 052c 54       		.byte	0x54
 8375 052d 12000000 		.4byte	.LVL106
 8376 0531 1C000000 		.4byte	.LFE85
 8377 0535 0400     		.2byte	0x4
 8378 0537 F3       		.byte	0xf3
 8379 0538 01       		.uleb128 0x1
 8380 0539 50       		.byte	0x50
 8381 053a 9F       		.byte	0x9f
 8382 053b 00000000 		.4byte	0
 8383 053f 00000000 		.4byte	0
 8384              	.LLST42:
 8385 0543 12000000 		.4byte	.LVL106
 8386 0547 14000000 		.4byte	.LVL107
 8387 054b 0100     		.2byte	0x1
 8388 054d 50       		.byte	0x50
 8389 054e 14000000 		.4byte	.LVL107
 8390 0552 1C000000 		.4byte	.LFE85
 8391 0556 0100     		.2byte	0x1
 8392 0558 54       		.byte	0x54
 8393 0559 00000000 		.4byte	0
 8394 055d 00000000 		.4byte	0
 8395              	.LLST43:
 8396 0561 0A000000 		.4byte	.LVL103
 8397 0565 0C000000 		.4byte	.LVL104
 8398 0569 0100     		.2byte	0x1
 8399 056b 50       		.byte	0x50
 8400 056c 0C000000 		.4byte	.LVL104
 8401 0570 1C000000 		.4byte	.LFE85
 8402 0574 0100     		.2byte	0x1
 8403 0576 55       		.byte	0x55
 8404 0577 00000000 		.4byte	0
 8405 057b 00000000 		.4byte	0
 8406              	.LLST44:
 8407 057f 00000000 		.4byte	.LVL109
 8408 0583 07000000 		.4byte	.LVL110-1
ARM GAS  C:\Users\Reza\AppData\Local\Temp\cckOPwM0.s 			page 172


 8409 0587 0100     		.2byte	0x1
 8410 0589 50       		.byte	0x50
 8411 058a 07000000 		.4byte	.LVL110-1
 8412 058e 12000000 		.4byte	.LVL114
 8413 0592 0100     		.2byte	0x1
 8414 0594 54       		.byte	0x54
 8415 0595 12000000 		.4byte	.LVL114
 8416 0599 1C000000 		.4byte	.LFE86
 8417 059d 0400     		.2byte	0x4
 8418 059f F3       		.byte	0xf3
 8419 05a0 01       		.uleb128 0x1
 8420 05a1 50       		.byte	0x50
 8421 05a2 9F       		.byte	0x9f
 8422 05a3 00000000 		.4byte	0
 8423 05a7 00000000 		.4byte	0
 8424              	.LLST45:
 8425 05ab 12000000 		.4byte	.LVL114
 8426 05af 14000000 		.4byte	.LVL115
 8427 05b3 0100     		.2byte	0x1
 8428 05b5 50       		.byte	0x50
 8429 05b6 14000000 		.4byte	.LVL115
 8430 05ba 1C000000 		.4byte	.LFE86
 8431 05be 0100     		.2byte	0x1
 8432 05c0 54       		.byte	0x54
 8433 05c1 00000000 		.4byte	0
 8434 05c5 00000000 		.4byte	0
 8435              	.LLST46:
 8436 05c9 0A000000 		.4byte	.LVL111
 8437 05cd 0C000000 		.4byte	.LVL112
 8438 05d1 0100     		.2byte	0x1
 8439 05d3 50       		.byte	0x50
 8440 05d4 0C000000 		.4byte	.LVL112
 8441 05d8 1C000000 		.4byte	.LFE86
 8442 05dc 0100     		.2byte	0x1
 8443 05de 55       		.byte	0x55
 8444 05df 00000000 		.4byte	0
 8445 05e3 00000000 		.4byte	0
 8446              	.LLST47:
 8447 05e7 00000000 		.4byte	.LVL117
 8448 05eb 07000000 		.4byte	.LVL118-1
 8449 05ef 0100     		.2byte	0x1
 8450 05f1 50       		.byte	0x50
 8451 05f2 07000000 		.4byte	.LVL118-1
 8452 05f6 12000000 		.4byte	.LVL122
 8453 05fa 0100     		.2byte	0x1
 8454 05fc 54       		.byte	0x54
 8455 05fd 12000000 		.4byte	.LVL122
 8456 0601 1C000000 		.4byte	.LFE87
 8457 0605 0400     		.2byte	0x4
 8458 0607 F3       		.byte	0xf3
 8459 0608 01       		.uleb128 0x1
 8460 0609 50       		.byte	0x50
 8461 060a 9F       		.byte	0x9f
 8462 060b 00000000 		.4byte	0
 8463 060f 00000000 		.4byte	0
 8464              	.LLST48:
 8465 0613 12000000 		.4byte	.LVL122
ARM GAS  C:\Users\Reza\AppData\Local\Temp\cckOPwM0.s 			page 173


 8466 0617 14000000 		.4byte	.LVL123
 8467 061b 0100     		.2byte	0x1
 8468 061d 50       		.byte	0x50
 8469 061e 14000000 		.4byte	.LVL123
 8470 0622 1C000000 		.4byte	.LFE87
 8471 0626 0100     		.2byte	0x1
 8472 0628 54       		.byte	0x54
 8473 0629 00000000 		.4byte	0
 8474 062d 00000000 		.4byte	0
 8475              	.LLST49:
 8476 0631 0A000000 		.4byte	.LVL119
 8477 0635 0C000000 		.4byte	.LVL120
 8478 0639 0100     		.2byte	0x1
 8479 063b 50       		.byte	0x50
 8480 063c 0C000000 		.4byte	.LVL120
 8481 0640 1C000000 		.4byte	.LFE87
 8482 0644 0100     		.2byte	0x1
 8483 0646 55       		.byte	0x55
 8484 0647 00000000 		.4byte	0
 8485 064b 00000000 		.4byte	0
 8486              	.LLST50:
 8487 064f 00000000 		.4byte	.LVL125
 8488 0653 07000000 		.4byte	.LVL126-1
 8489 0657 0100     		.2byte	0x1
 8490 0659 50       		.byte	0x50
 8491 065a 07000000 		.4byte	.LVL126-1
 8492 065e 18000000 		.4byte	.LFE88
 8493 0662 0100     		.2byte	0x1
 8494 0664 55       		.byte	0x55
 8495 0665 00000000 		.4byte	0
 8496 0669 00000000 		.4byte	0
 8497              	.LLST51:
 8498 066d 0A000000 		.4byte	.LVL127
 8499 0671 0C000000 		.4byte	.LVL128
 8500 0675 0100     		.2byte	0x1
 8501 0677 50       		.byte	0x50
 8502 0678 0C000000 		.4byte	.LVL128
 8503 067c 18000000 		.4byte	.LFE88
 8504 0680 0100     		.2byte	0x1
 8505 0682 54       		.byte	0x54
 8506 0683 00000000 		.4byte	0
 8507 0687 00000000 		.4byte	0
 8508              	.LLST52:
 8509 068b 00000000 		.4byte	.LVL131
 8510 068f 09000000 		.4byte	.LVL132-1
 8511 0693 0100     		.2byte	0x1
 8512 0695 50       		.byte	0x50
 8513 0696 09000000 		.4byte	.LVL132-1
 8514 069a 16000000 		.4byte	.LVL136
 8515 069e 0100     		.2byte	0x1
 8516 06a0 54       		.byte	0x54
 8517 06a1 16000000 		.4byte	.LVL136
 8518 06a5 20000000 		.4byte	.LFE89
 8519 06a9 0400     		.2byte	0x4
 8520 06ab F3       		.byte	0xf3
 8521 06ac 01       		.uleb128 0x1
 8522 06ad 50       		.byte	0x50
ARM GAS  C:\Users\Reza\AppData\Local\Temp\cckOPwM0.s 			page 174


 8523 06ae 9F       		.byte	0x9f
 8524 06af 00000000 		.4byte	0
 8525 06b3 00000000 		.4byte	0
 8526              	.LLST53:
 8527 06b7 00000000 		.4byte	.LVL131
 8528 06bb 09000000 		.4byte	.LVL132-1
 8529 06bf 0100     		.2byte	0x1
 8530 06c1 51       		.byte	0x51
 8531 06c2 09000000 		.4byte	.LVL132-1
 8532 06c6 20000000 		.4byte	.LFE89
 8533 06ca 0100     		.2byte	0x1
 8534 06cc 56       		.byte	0x56
 8535 06cd 00000000 		.4byte	0
 8536 06d1 00000000 		.4byte	0
 8537              	.LLST54:
 8538 06d5 16000000 		.4byte	.LVL136
 8539 06d9 18000000 		.4byte	.LVL137
 8540 06dd 0100     		.2byte	0x1
 8541 06df 50       		.byte	0x50
 8542 06e0 18000000 		.4byte	.LVL137
 8543 06e4 20000000 		.4byte	.LFE89
 8544 06e8 0100     		.2byte	0x1
 8545 06ea 54       		.byte	0x54
 8546 06eb 00000000 		.4byte	0
 8547 06ef 00000000 		.4byte	0
 8548              	.LLST55:
 8549 06f3 0C000000 		.4byte	.LVL133
 8550 06f7 10000000 		.4byte	.LVL134
 8551 06fb 0100     		.2byte	0x1
 8552 06fd 50       		.byte	0x50
 8553 06fe 10000000 		.4byte	.LVL134
 8554 0702 20000000 		.4byte	.LFE89
 8555 0706 0100     		.2byte	0x1
 8556 0708 55       		.byte	0x55
 8557 0709 00000000 		.4byte	0
 8558 070d 00000000 		.4byte	0
 8559              	.LLST56:
 8560 0711 00000000 		.4byte	.LVL139
 8561 0715 0F000000 		.4byte	.LVL140-1
 8562 0719 0100     		.2byte	0x1
 8563 071b 50       		.byte	0x50
 8564 071c 0F000000 		.4byte	.LVL140-1
 8565 0720 20000000 		.4byte	.LVL144
 8566 0724 0100     		.2byte	0x1
 8567 0726 54       		.byte	0x54
 8568 0727 20000000 		.4byte	.LVL144
 8569 072b 2C000000 		.4byte	.LFE90
 8570 072f 0400     		.2byte	0x4
 8571 0731 F3       		.byte	0xf3
 8572 0732 01       		.uleb128 0x1
 8573 0733 50       		.byte	0x50
 8574 0734 9F       		.byte	0x9f
 8575 0735 00000000 		.4byte	0
 8576 0739 00000000 		.4byte	0
 8577              	.LLST57:
 8578 073d 00000000 		.4byte	.LVL139
 8579 0741 0F000000 		.4byte	.LVL140-1
ARM GAS  C:\Users\Reza\AppData\Local\Temp\cckOPwM0.s 			page 175


 8580 0745 0100     		.2byte	0x1
 8581 0747 51       		.byte	0x51
 8582 0748 0F000000 		.4byte	.LVL140-1
 8583 074c 2C000000 		.4byte	.LFE90
 8584 0750 0100     		.2byte	0x1
 8585 0752 56       		.byte	0x56
 8586 0753 00000000 		.4byte	0
 8587 0757 00000000 		.4byte	0
 8588              	.LLST58:
 8589 075b 00000000 		.4byte	.LVL139
 8590 075f 0F000000 		.4byte	.LVL140-1
 8591 0763 0100     		.2byte	0x1
 8592 0765 52       		.byte	0x52
 8593 0766 0F000000 		.4byte	.LVL140-1
 8594 076a 2C000000 		.4byte	.LFE90
 8595 076e 0400     		.2byte	0x4
 8596 0770 F3       		.byte	0xf3
 8597 0771 01       		.uleb128 0x1
 8598 0772 52       		.byte	0x52
 8599 0773 9F       		.byte	0x9f
 8600 0774 00000000 		.4byte	0
 8601 0778 00000000 		.4byte	0
 8602              	.LLST59:
 8603 077c 00000000 		.4byte	.LVL139
 8604 0780 0F000000 		.4byte	.LVL140-1
 8605 0784 0100     		.2byte	0x1
 8606 0786 53       		.byte	0x53
 8607 0787 0F000000 		.4byte	.LVL140-1
 8608 078b 2C000000 		.4byte	.LFE90
 8609 078f 0100     		.2byte	0x1
 8610 0791 58       		.byte	0x58
 8611 0792 00000000 		.4byte	0
 8612 0796 00000000 		.4byte	0
 8613              	.LLST60:
 8614 079a 20000000 		.4byte	.LVL144
 8615 079e 22000000 		.4byte	.LVL145
 8616 07a2 0100     		.2byte	0x1
 8617 07a4 50       		.byte	0x50
 8618 07a5 22000000 		.4byte	.LVL145
 8619 07a9 2C000000 		.4byte	.LFE90
 8620 07ad 0100     		.2byte	0x1
 8621 07af 54       		.byte	0x54
 8622 07b0 00000000 		.4byte	0
 8623 07b4 00000000 		.4byte	0
 8624              	.LLST61:
 8625 07b8 12000000 		.4byte	.LVL141
 8626 07bc 1A000000 		.4byte	.LVL142
 8627 07c0 0100     		.2byte	0x1
 8628 07c2 50       		.byte	0x50
 8629 07c3 1A000000 		.4byte	.LVL142
 8630 07c7 2C000000 		.4byte	.LFE90
 8631 07cb 0100     		.2byte	0x1
 8632 07cd 55       		.byte	0x55
 8633 07ce 00000000 		.4byte	0
 8634 07d2 00000000 		.4byte	0
 8635              	.LLST62:
 8636 07d6 00000000 		.4byte	.LVL147
ARM GAS  C:\Users\Reza\AppData\Local\Temp\cckOPwM0.s 			page 176


 8637 07da 0F000000 		.4byte	.LVL148-1
 8638 07de 0100     		.2byte	0x1
 8639 07e0 50       		.byte	0x50
 8640 07e1 0F000000 		.4byte	.LVL148-1
 8641 07e5 20000000 		.4byte	.LVL152
 8642 07e9 0100     		.2byte	0x1
 8643 07eb 54       		.byte	0x54
 8644 07ec 20000000 		.4byte	.LVL152
 8645 07f0 2C000000 		.4byte	.LFE91
 8646 07f4 0400     		.2byte	0x4
 8647 07f6 F3       		.byte	0xf3
 8648 07f7 01       		.uleb128 0x1
 8649 07f8 50       		.byte	0x50
 8650 07f9 9F       		.byte	0x9f
 8651 07fa 00000000 		.4byte	0
 8652 07fe 00000000 		.4byte	0
 8653              	.LLST63:
 8654 0802 00000000 		.4byte	.LVL147
 8655 0806 0F000000 		.4byte	.LVL148-1
 8656 080a 0100     		.2byte	0x1
 8657 080c 51       		.byte	0x51
 8658 080d 0F000000 		.4byte	.LVL148-1
 8659 0811 2C000000 		.4byte	.LFE91
 8660 0815 0100     		.2byte	0x1
 8661 0817 56       		.byte	0x56
 8662 0818 00000000 		.4byte	0
 8663 081c 00000000 		.4byte	0
 8664              	.LLST64:
 8665 0820 00000000 		.4byte	.LVL147
 8666 0824 0F000000 		.4byte	.LVL148-1
 8667 0828 0100     		.2byte	0x1
 8668 082a 52       		.byte	0x52
 8669 082b 0F000000 		.4byte	.LVL148-1
 8670 082f 2C000000 		.4byte	.LFE91
 8671 0833 0100     		.2byte	0x1
 8672 0835 57       		.byte	0x57
 8673 0836 00000000 		.4byte	0
 8674 083a 00000000 		.4byte	0
 8675              	.LLST65:
 8676 083e 00000000 		.4byte	.LVL147
 8677 0842 0F000000 		.4byte	.LVL148-1
 8678 0846 0100     		.2byte	0x1
 8679 0848 53       		.byte	0x53
 8680 0849 0F000000 		.4byte	.LVL148-1
 8681 084d 2C000000 		.4byte	.LFE91
 8682 0851 0100     		.2byte	0x1
 8683 0853 58       		.byte	0x58
 8684 0854 00000000 		.4byte	0
 8685 0858 00000000 		.4byte	0
 8686              	.LLST66:
 8687 085c 20000000 		.4byte	.LVL152
 8688 0860 22000000 		.4byte	.LVL153
 8689 0864 0100     		.2byte	0x1
 8690 0866 50       		.byte	0x50
 8691 0867 22000000 		.4byte	.LVL153
 8692 086b 2C000000 		.4byte	.LFE91
 8693 086f 0100     		.2byte	0x1
ARM GAS  C:\Users\Reza\AppData\Local\Temp\cckOPwM0.s 			page 177


 8694 0871 54       		.byte	0x54
 8695 0872 00000000 		.4byte	0
 8696 0876 00000000 		.4byte	0
 8697              	.LLST67:
 8698 087a 12000000 		.4byte	.LVL149
 8699 087e 1A000000 		.4byte	.LVL150
 8700 0882 0100     		.2byte	0x1
 8701 0884 50       		.byte	0x50
 8702 0885 1A000000 		.4byte	.LVL150
 8703 0889 2C000000 		.4byte	.LFE91
 8704 088d 0100     		.2byte	0x1
 8705 088f 55       		.byte	0x55
 8706 0890 00000000 		.4byte	0
 8707 0894 00000000 		.4byte	0
 8708              	.LLST68:
 8709 0898 00000000 		.4byte	.LVL155
 8710 089c 09000000 		.4byte	.LVL156-1
 8711 08a0 0100     		.2byte	0x1
 8712 08a2 50       		.byte	0x50
 8713 08a3 09000000 		.4byte	.LVL156-1
 8714 08a7 16000000 		.4byte	.LVL160
 8715 08ab 0100     		.2byte	0x1
 8716 08ad 54       		.byte	0x54
 8717 08ae 16000000 		.4byte	.LVL160
 8718 08b2 20000000 		.4byte	.LFE92
 8719 08b6 0400     		.2byte	0x4
 8720 08b8 F3       		.byte	0xf3
 8721 08b9 01       		.uleb128 0x1
 8722 08ba 50       		.byte	0x50
 8723 08bb 9F       		.byte	0x9f
 8724 08bc 00000000 		.4byte	0
 8725 08c0 00000000 		.4byte	0
 8726              	.LLST69:
 8727 08c4 00000000 		.4byte	.LVL155
 8728 08c8 09000000 		.4byte	.LVL156-1
 8729 08cc 0100     		.2byte	0x1
 8730 08ce 51       		.byte	0x51
 8731 08cf 09000000 		.4byte	.LVL156-1
 8732 08d3 20000000 		.4byte	.LFE92
 8733 08d7 0100     		.2byte	0x1
 8734 08d9 56       		.byte	0x56
 8735 08da 00000000 		.4byte	0
 8736 08de 00000000 		.4byte	0
 8737              	.LLST70:
 8738 08e2 16000000 		.4byte	.LVL160
 8739 08e6 18000000 		.4byte	.LVL161
 8740 08ea 0100     		.2byte	0x1
 8741 08ec 50       		.byte	0x50
 8742 08ed 18000000 		.4byte	.LVL161
 8743 08f1 20000000 		.4byte	.LFE92
 8744 08f5 0100     		.2byte	0x1
 8745 08f7 54       		.byte	0x54
 8746 08f8 00000000 		.4byte	0
 8747 08fc 00000000 		.4byte	0
 8748              	.LLST71:
 8749 0900 0C000000 		.4byte	.LVL157
 8750 0904 10000000 		.4byte	.LVL158
ARM GAS  C:\Users\Reza\AppData\Local\Temp\cckOPwM0.s 			page 178


 8751 0908 0100     		.2byte	0x1
 8752 090a 50       		.byte	0x50
 8753 090b 10000000 		.4byte	.LVL158
 8754 090f 20000000 		.4byte	.LFE92
 8755 0913 0100     		.2byte	0x1
 8756 0915 55       		.byte	0x55
 8757 0916 00000000 		.4byte	0
 8758 091a 00000000 		.4byte	0
 8759              	.LLST72:
 8760 091e 00000000 		.4byte	.LVL163
 8761 0922 07000000 		.4byte	.LVL164-1
 8762 0926 0100     		.2byte	0x1
 8763 0928 50       		.byte	0x50
 8764 0929 07000000 		.4byte	.LVL164-1
 8765 092d 12000000 		.4byte	.LVL168
 8766 0931 0100     		.2byte	0x1
 8767 0933 54       		.byte	0x54
 8768 0934 12000000 		.4byte	.LVL168
 8769 0938 1C000000 		.4byte	.LFE93
 8770 093c 0400     		.2byte	0x4
 8771 093e F3       		.byte	0xf3
 8772 093f 01       		.uleb128 0x1
 8773 0940 50       		.byte	0x50
 8774 0941 9F       		.byte	0x9f
 8775 0942 00000000 		.4byte	0
 8776 0946 00000000 		.4byte	0
 8777              	.LLST73:
 8778 094a 12000000 		.4byte	.LVL168
 8779 094e 14000000 		.4byte	.LVL169
 8780 0952 0100     		.2byte	0x1
 8781 0954 50       		.byte	0x50
 8782 0955 14000000 		.4byte	.LVL169
 8783 0959 1C000000 		.4byte	.LFE93
 8784 095d 0100     		.2byte	0x1
 8785 095f 54       		.byte	0x54
 8786 0960 00000000 		.4byte	0
 8787 0964 00000000 		.4byte	0
 8788              	.LLST74:
 8789 0968 0A000000 		.4byte	.LVL165
 8790 096c 0C000000 		.4byte	.LVL166
 8791 0970 0100     		.2byte	0x1
 8792 0972 50       		.byte	0x50
 8793 0973 0C000000 		.4byte	.LVL166
 8794 0977 1C000000 		.4byte	.LFE93
 8795 097b 0100     		.2byte	0x1
 8796 097d 55       		.byte	0x55
 8797 097e 00000000 		.4byte	0
 8798 0982 00000000 		.4byte	0
 8799              	.LLST75:
 8800 0986 00000000 		.4byte	.LVL171
 8801 098a 09000000 		.4byte	.LVL172-1
 8802 098e 0100     		.2byte	0x1
 8803 0990 50       		.byte	0x50
 8804 0991 09000000 		.4byte	.LVL172-1
 8805 0995 16000000 		.4byte	.LVL176
 8806 0999 0100     		.2byte	0x1
 8807 099b 54       		.byte	0x54
ARM GAS  C:\Users\Reza\AppData\Local\Temp\cckOPwM0.s 			page 179


 8808 099c 16000000 		.4byte	.LVL176
 8809 09a0 20000000 		.4byte	.LFE94
 8810 09a4 0400     		.2byte	0x4
 8811 09a6 F3       		.byte	0xf3
 8812 09a7 01       		.uleb128 0x1
 8813 09a8 50       		.byte	0x50
 8814 09a9 9F       		.byte	0x9f
 8815 09aa 00000000 		.4byte	0
 8816 09ae 00000000 		.4byte	0
 8817              	.LLST76:
 8818 09b2 00000000 		.4byte	.LVL171
 8819 09b6 09000000 		.4byte	.LVL172-1
 8820 09ba 0100     		.2byte	0x1
 8821 09bc 51       		.byte	0x51
 8822 09bd 09000000 		.4byte	.LVL172-1
 8823 09c1 20000000 		.4byte	.LFE94
 8824 09c5 0100     		.2byte	0x1
 8825 09c7 56       		.byte	0x56
 8826 09c8 00000000 		.4byte	0
 8827 09cc 00000000 		.4byte	0
 8828              	.LLST77:
 8829 09d0 16000000 		.4byte	.LVL176
 8830 09d4 18000000 		.4byte	.LVL177
 8831 09d8 0100     		.2byte	0x1
 8832 09da 50       		.byte	0x50
 8833 09db 18000000 		.4byte	.LVL177
 8834 09df 20000000 		.4byte	.LFE94
 8835 09e3 0100     		.2byte	0x1
 8836 09e5 54       		.byte	0x54
 8837 09e6 00000000 		.4byte	0
 8838 09ea 00000000 		.4byte	0
 8839              	.LLST78:
 8840 09ee 0C000000 		.4byte	.LVL173
 8841 09f2 10000000 		.4byte	.LVL174
 8842 09f6 0100     		.2byte	0x1
 8843 09f8 50       		.byte	0x50
 8844 09f9 10000000 		.4byte	.LVL174
 8845 09fd 20000000 		.4byte	.LFE94
 8846 0a01 0100     		.2byte	0x1
 8847 0a03 55       		.byte	0x55
 8848 0a04 00000000 		.4byte	0
 8849 0a08 00000000 		.4byte	0
 8850              	.LLST79:
 8851 0a0c 00000000 		.4byte	.LVL179
 8852 0a10 0B000000 		.4byte	.LVL180-1
 8853 0a14 0100     		.2byte	0x1
 8854 0a16 50       		.byte	0x50
 8855 0a17 0B000000 		.4byte	.LVL180-1
 8856 0a1b 1A000000 		.4byte	.LVL184
 8857 0a1f 0100     		.2byte	0x1
 8858 0a21 54       		.byte	0x54
 8859 0a22 1A000000 		.4byte	.LVL184
 8860 0a26 24000000 		.4byte	.LFE95
 8861 0a2a 0400     		.2byte	0x4
 8862 0a2c F3       		.byte	0xf3
 8863 0a2d 01       		.uleb128 0x1
 8864 0a2e 50       		.byte	0x50
ARM GAS  C:\Users\Reza\AppData\Local\Temp\cckOPwM0.s 			page 180


 8865 0a2f 9F       		.byte	0x9f
 8866 0a30 00000000 		.4byte	0
 8867 0a34 00000000 		.4byte	0
 8868              	.LLST80:
 8869 0a38 00000000 		.4byte	.LVL179
 8870 0a3c 0B000000 		.4byte	.LVL180-1
 8871 0a40 0100     		.2byte	0x1
 8872 0a42 51       		.byte	0x51
 8873 0a43 0B000000 		.4byte	.LVL180-1
 8874 0a47 24000000 		.4byte	.LFE95
 8875 0a4b 0100     		.2byte	0x1
 8876 0a4d 56       		.byte	0x56
 8877 0a4e 00000000 		.4byte	0
 8878 0a52 00000000 		.4byte	0
 8879              	.LLST81:
 8880 0a56 00000000 		.4byte	.LVL179
 8881 0a5a 0B000000 		.4byte	.LVL180-1
 8882 0a5e 0100     		.2byte	0x1
 8883 0a60 52       		.byte	0x52
 8884 0a61 0B000000 		.4byte	.LVL180-1
 8885 0a65 24000000 		.4byte	.LFE95
 8886 0a69 0400     		.2byte	0x4
 8887 0a6b F3       		.byte	0xf3
 8888 0a6c 01       		.uleb128 0x1
 8889 0a6d 52       		.byte	0x52
 8890 0a6e 9F       		.byte	0x9f
 8891 0a6f 00000000 		.4byte	0
 8892 0a73 00000000 		.4byte	0
 8893              	.LLST82:
 8894 0a77 1A000000 		.4byte	.LVL184
 8895 0a7b 1C000000 		.4byte	.LVL185
 8896 0a7f 0100     		.2byte	0x1
 8897 0a81 50       		.byte	0x50
 8898 0a82 1C000000 		.4byte	.LVL185
 8899 0a86 24000000 		.4byte	.LFE95
 8900 0a8a 0100     		.2byte	0x1
 8901 0a8c 54       		.byte	0x54
 8902 0a8d 00000000 		.4byte	0
 8903 0a91 00000000 		.4byte	0
 8904              	.LLST83:
 8905 0a95 0E000000 		.4byte	.LVL181
 8906 0a99 14000000 		.4byte	.LVL182
 8907 0a9d 0100     		.2byte	0x1
 8908 0a9f 50       		.byte	0x50
 8909 0aa0 14000000 		.4byte	.LVL182
 8910 0aa4 24000000 		.4byte	.LFE95
 8911 0aa8 0100     		.2byte	0x1
 8912 0aaa 55       		.byte	0x55
 8913 0aab 00000000 		.4byte	0
 8914 0aaf 00000000 		.4byte	0
 8915              	.LLST84:
 8916 0ab3 00000000 		.4byte	.LVL187
 8917 0ab7 09000000 		.4byte	.LVL188-1
 8918 0abb 0100     		.2byte	0x1
 8919 0abd 50       		.byte	0x50
 8920 0abe 09000000 		.4byte	.LVL188-1
 8921 0ac2 16000000 		.4byte	.LVL192
ARM GAS  C:\Users\Reza\AppData\Local\Temp\cckOPwM0.s 			page 181


 8922 0ac6 0100     		.2byte	0x1
 8923 0ac8 54       		.byte	0x54
 8924 0ac9 16000000 		.4byte	.LVL192
 8925 0acd 20000000 		.4byte	.LFE96
 8926 0ad1 0400     		.2byte	0x4
 8927 0ad3 F3       		.byte	0xf3
 8928 0ad4 01       		.uleb128 0x1
 8929 0ad5 50       		.byte	0x50
 8930 0ad6 9F       		.byte	0x9f
 8931 0ad7 00000000 		.4byte	0
 8932 0adb 00000000 		.4byte	0
 8933              	.LLST85:
 8934 0adf 00000000 		.4byte	.LVL187
 8935 0ae3 09000000 		.4byte	.LVL188-1
 8936 0ae7 0100     		.2byte	0x1
 8937 0ae9 51       		.byte	0x51
 8938 0aea 09000000 		.4byte	.LVL188-1
 8939 0aee 20000000 		.4byte	.LFE96
 8940 0af2 0100     		.2byte	0x1
 8941 0af4 56       		.byte	0x56
 8942 0af5 00000000 		.4byte	0
 8943 0af9 00000000 		.4byte	0
 8944              	.LLST86:
 8945 0afd 16000000 		.4byte	.LVL192
 8946 0b01 18000000 		.4byte	.LVL193
 8947 0b05 0100     		.2byte	0x1
 8948 0b07 50       		.byte	0x50
 8949 0b08 18000000 		.4byte	.LVL193
 8950 0b0c 20000000 		.4byte	.LFE96
 8951 0b10 0100     		.2byte	0x1
 8952 0b12 54       		.byte	0x54
 8953 0b13 00000000 		.4byte	0
 8954 0b17 00000000 		.4byte	0
 8955              	.LLST87:
 8956 0b1b 0C000000 		.4byte	.LVL189
 8957 0b1f 10000000 		.4byte	.LVL190
 8958 0b23 0100     		.2byte	0x1
 8959 0b25 50       		.byte	0x50
 8960 0b26 10000000 		.4byte	.LVL190
 8961 0b2a 20000000 		.4byte	.LFE96
 8962 0b2e 0100     		.2byte	0x1
 8963 0b30 55       		.byte	0x55
 8964 0b31 00000000 		.4byte	0
 8965 0b35 00000000 		.4byte	0
 8966              	.LLST88:
 8967 0b39 00000000 		.4byte	.LVL195
 8968 0b3d 0F000000 		.4byte	.LVL196-1
 8969 0b41 0100     		.2byte	0x1
 8970 0b43 50       		.byte	0x50
 8971 0b44 0F000000 		.4byte	.LVL196-1
 8972 0b48 20000000 		.4byte	.LVL200
 8973 0b4c 0100     		.2byte	0x1
 8974 0b4e 54       		.byte	0x54
 8975 0b4f 20000000 		.4byte	.LVL200
 8976 0b53 2C000000 		.4byte	.LFE97
 8977 0b57 0400     		.2byte	0x4
 8978 0b59 F3       		.byte	0xf3
ARM GAS  C:\Users\Reza\AppData\Local\Temp\cckOPwM0.s 			page 182


 8979 0b5a 01       		.uleb128 0x1
 8980 0b5b 50       		.byte	0x50
 8981 0b5c 9F       		.byte	0x9f
 8982 0b5d 00000000 		.4byte	0
 8983 0b61 00000000 		.4byte	0
 8984              	.LLST89:
 8985 0b65 00000000 		.4byte	.LVL195
 8986 0b69 0F000000 		.4byte	.LVL196-1
 8987 0b6d 0100     		.2byte	0x1
 8988 0b6f 51       		.byte	0x51
 8989 0b70 0F000000 		.4byte	.LVL196-1
 8990 0b74 2C000000 		.4byte	.LFE97
 8991 0b78 0100     		.2byte	0x1
 8992 0b7a 56       		.byte	0x56
 8993 0b7b 00000000 		.4byte	0
 8994 0b7f 00000000 		.4byte	0
 8995              	.LLST90:
 8996 0b83 00000000 		.4byte	.LVL195
 8997 0b87 0F000000 		.4byte	.LVL196-1
 8998 0b8b 0100     		.2byte	0x1
 8999 0b8d 52       		.byte	0x52
 9000 0b8e 0F000000 		.4byte	.LVL196-1
 9001 0b92 2C000000 		.4byte	.LFE97
 9002 0b96 0100     		.2byte	0x1
 9003 0b98 57       		.byte	0x57
 9004 0b99 00000000 		.4byte	0
 9005 0b9d 00000000 		.4byte	0
 9006              	.LLST91:
 9007 0ba1 00000000 		.4byte	.LVL195
 9008 0ba5 0F000000 		.4byte	.LVL196-1
 9009 0ba9 0100     		.2byte	0x1
 9010 0bab 53       		.byte	0x53
 9011 0bac 0F000000 		.4byte	.LVL196-1
 9012 0bb0 2C000000 		.4byte	.LFE97
 9013 0bb4 0100     		.2byte	0x1
 9014 0bb6 58       		.byte	0x58
 9015 0bb7 00000000 		.4byte	0
 9016 0bbb 00000000 		.4byte	0
 9017              	.LLST92:
 9018 0bbf 20000000 		.4byte	.LVL200
 9019 0bc3 22000000 		.4byte	.LVL201
 9020 0bc7 0100     		.2byte	0x1
 9021 0bc9 50       		.byte	0x50
 9022 0bca 22000000 		.4byte	.LVL201
 9023 0bce 2C000000 		.4byte	.LFE97
 9024 0bd2 0100     		.2byte	0x1
 9025 0bd4 54       		.byte	0x54
 9026 0bd5 00000000 		.4byte	0
 9027 0bd9 00000000 		.4byte	0
 9028              	.LLST93:
 9029 0bdd 12000000 		.4byte	.LVL197
 9030 0be1 1A000000 		.4byte	.LVL198
 9031 0be5 0100     		.2byte	0x1
 9032 0be7 50       		.byte	0x50
 9033 0be8 1A000000 		.4byte	.LVL198
 9034 0bec 2C000000 		.4byte	.LFE97
 9035 0bf0 0100     		.2byte	0x1
ARM GAS  C:\Users\Reza\AppData\Local\Temp\cckOPwM0.s 			page 183


 9036 0bf2 55       		.byte	0x55
 9037 0bf3 00000000 		.4byte	0
 9038 0bf7 00000000 		.4byte	0
 9039              	.LLST94:
 9040 0bfb 00000000 		.4byte	.LVL203
 9041 0bff 07000000 		.4byte	.LVL204-1
 9042 0c03 0100     		.2byte	0x1
 9043 0c05 50       		.byte	0x50
 9044 0c06 07000000 		.4byte	.LVL204-1
 9045 0c0a 12000000 		.4byte	.LVL208
 9046 0c0e 0100     		.2byte	0x1
 9047 0c10 54       		.byte	0x54
 9048 0c11 12000000 		.4byte	.LVL208
 9049 0c15 1C000000 		.4byte	.LFE98
 9050 0c19 0400     		.2byte	0x4
 9051 0c1b F3       		.byte	0xf3
 9052 0c1c 01       		.uleb128 0x1
 9053 0c1d 50       		.byte	0x50
 9054 0c1e 9F       		.byte	0x9f
 9055 0c1f 00000000 		.4byte	0
 9056 0c23 00000000 		.4byte	0
 9057              	.LLST95:
 9058 0c27 0A000000 		.4byte	.LVL205
 9059 0c2b 0C000000 		.4byte	.LVL206
 9060 0c2f 0100     		.2byte	0x1
 9061 0c31 50       		.byte	0x50
 9062 0c32 0C000000 		.4byte	.LVL206
 9063 0c36 1C000000 		.4byte	.LFE98
 9064 0c3a 0100     		.2byte	0x1
 9065 0c3c 55       		.byte	0x55
 9066 0c3d 00000000 		.4byte	0
 9067 0c41 00000000 		.4byte	0
 9068              	.LLST96:
 9069 0c45 12000000 		.4byte	.LVL208
 9070 0c49 14000000 		.4byte	.LVL209
 9071 0c4d 0100     		.2byte	0x1
 9072 0c4f 50       		.byte	0x50
 9073 0c50 14000000 		.4byte	.LVL209
 9074 0c54 1C000000 		.4byte	.LFE98
 9075 0c58 0100     		.2byte	0x1
 9076 0c5a 54       		.byte	0x54
 9077 0c5b 00000000 		.4byte	0
 9078 0c5f 00000000 		.4byte	0
 9079              	.LLST97:
 9080 0c63 00000000 		.4byte	.LVL211
 9081 0c67 07000000 		.4byte	.LVL212-1
 9082 0c6b 0100     		.2byte	0x1
 9083 0c6d 50       		.byte	0x50
 9084 0c6e 07000000 		.4byte	.LVL212-1
 9085 0c72 12000000 		.4byte	.LVL216
 9086 0c76 0100     		.2byte	0x1
 9087 0c78 54       		.byte	0x54
 9088 0c79 12000000 		.4byte	.LVL216
 9089 0c7d 1C000000 		.4byte	.LFE99
 9090 0c81 0400     		.2byte	0x4
 9091 0c83 F3       		.byte	0xf3
 9092 0c84 01       		.uleb128 0x1
ARM GAS  C:\Users\Reza\AppData\Local\Temp\cckOPwM0.s 			page 184


 9093 0c85 50       		.byte	0x50
 9094 0c86 9F       		.byte	0x9f
 9095 0c87 00000000 		.4byte	0
 9096 0c8b 00000000 		.4byte	0
 9097              	.LLST98:
 9098 0c8f 0A000000 		.4byte	.LVL213
 9099 0c93 0C000000 		.4byte	.LVL214
 9100 0c97 0100     		.2byte	0x1
 9101 0c99 50       		.byte	0x50
 9102 0c9a 0C000000 		.4byte	.LVL214
 9103 0c9e 1C000000 		.4byte	.LFE99
 9104 0ca2 0100     		.2byte	0x1
 9105 0ca4 55       		.byte	0x55
 9106 0ca5 00000000 		.4byte	0
 9107 0ca9 00000000 		.4byte	0
 9108              	.LLST99:
 9109 0cad 12000000 		.4byte	.LVL216
 9110 0cb1 14000000 		.4byte	.LVL217
 9111 0cb5 0100     		.2byte	0x1
 9112 0cb7 50       		.byte	0x50
 9113 0cb8 14000000 		.4byte	.LVL217
 9114 0cbc 1C000000 		.4byte	.LFE99
 9115 0cc0 0100     		.2byte	0x1
 9116 0cc2 54       		.byte	0x54
 9117 0cc3 00000000 		.4byte	0
 9118 0cc7 00000000 		.4byte	0
 9119              	.LLST100:
 9120 0ccb 00000000 		.4byte	.LVL219
 9121 0ccf 0B000000 		.4byte	.LVL220-1
 9122 0cd3 0100     		.2byte	0x1
 9123 0cd5 50       		.byte	0x50
 9124 0cd6 0B000000 		.4byte	.LVL220-1
 9125 0cda 1A000000 		.4byte	.LVL224
 9126 0cde 0100     		.2byte	0x1
 9127 0ce0 54       		.byte	0x54
 9128 0ce1 1A000000 		.4byte	.LVL224
 9129 0ce5 24000000 		.4byte	.LFE100
 9130 0ce9 0400     		.2byte	0x4
 9131 0ceb F3       		.byte	0xf3
 9132 0cec 01       		.uleb128 0x1
 9133 0ced 50       		.byte	0x50
 9134 0cee 9F       		.byte	0x9f
 9135 0cef 00000000 		.4byte	0
 9136 0cf3 00000000 		.4byte	0
 9137              	.LLST101:
 9138 0cf7 00000000 		.4byte	.LVL219
 9139 0cfb 0B000000 		.4byte	.LVL220-1
 9140 0cff 0100     		.2byte	0x1
 9141 0d01 51       		.byte	0x51
 9142 0d02 0B000000 		.4byte	.LVL220-1
 9143 0d06 24000000 		.4byte	.LFE100
 9144 0d0a 0100     		.2byte	0x1
 9145 0d0c 56       		.byte	0x56
 9146 0d0d 00000000 		.4byte	0
 9147 0d11 00000000 		.4byte	0
 9148              	.LLST102:
 9149 0d15 00000000 		.4byte	.LVL219
ARM GAS  C:\Users\Reza\AppData\Local\Temp\cckOPwM0.s 			page 185


 9150 0d19 0B000000 		.4byte	.LVL220-1
 9151 0d1d 0100     		.2byte	0x1
 9152 0d1f 52       		.byte	0x52
 9153 0d20 0B000000 		.4byte	.LVL220-1
 9154 0d24 24000000 		.4byte	.LFE100
 9155 0d28 0100     		.2byte	0x1
 9156 0d2a 57       		.byte	0x57
 9157 0d2b 00000000 		.4byte	0
 9158 0d2f 00000000 		.4byte	0
 9159              	.LLST103:
 9160 0d33 0E000000 		.4byte	.LVL221
 9161 0d37 14000000 		.4byte	.LVL222
 9162 0d3b 0100     		.2byte	0x1
 9163 0d3d 50       		.byte	0x50
 9164 0d3e 14000000 		.4byte	.LVL222
 9165 0d42 24000000 		.4byte	.LFE100
 9166 0d46 0100     		.2byte	0x1
 9167 0d48 55       		.byte	0x55
 9168 0d49 00000000 		.4byte	0
 9169 0d4d 00000000 		.4byte	0
 9170              	.LLST104:
 9171 0d51 1A000000 		.4byte	.LVL224
 9172 0d55 1C000000 		.4byte	.LVL225
 9173 0d59 0100     		.2byte	0x1
 9174 0d5b 50       		.byte	0x50
 9175 0d5c 1C000000 		.4byte	.LVL225
 9176 0d60 24000000 		.4byte	.LFE100
 9177 0d64 0100     		.2byte	0x1
 9178 0d66 54       		.byte	0x54
 9179 0d67 00000000 		.4byte	0
 9180 0d6b 00000000 		.4byte	0
 9181              	.LLST105:
 9182 0d6f 00000000 		.4byte	.LVL227
 9183 0d73 0B000000 		.4byte	.LVL228-1
 9184 0d77 0100     		.2byte	0x1
 9185 0d79 50       		.byte	0x50
 9186 0d7a 0B000000 		.4byte	.LVL228-1
 9187 0d7e 1A000000 		.4byte	.LVL232
 9188 0d82 0100     		.2byte	0x1
 9189 0d84 54       		.byte	0x54
 9190 0d85 1A000000 		.4byte	.LVL232
 9191 0d89 24000000 		.4byte	.LFE101
 9192 0d8d 0400     		.2byte	0x4
 9193 0d8f F3       		.byte	0xf3
 9194 0d90 01       		.uleb128 0x1
 9195 0d91 50       		.byte	0x50
 9196 0d92 9F       		.byte	0x9f
 9197 0d93 00000000 		.4byte	0
 9198 0d97 00000000 		.4byte	0
 9199              	.LLST106:
 9200 0d9b 00000000 		.4byte	.LVL227
 9201 0d9f 0B000000 		.4byte	.LVL228-1
 9202 0da3 0100     		.2byte	0x1
 9203 0da5 51       		.byte	0x51
 9204 0da6 0B000000 		.4byte	.LVL228-1
 9205 0daa 24000000 		.4byte	.LFE101
 9206 0dae 0100     		.2byte	0x1
ARM GAS  C:\Users\Reza\AppData\Local\Temp\cckOPwM0.s 			page 186


 9207 0db0 56       		.byte	0x56
 9208 0db1 00000000 		.4byte	0
 9209 0db5 00000000 		.4byte	0
 9210              	.LLST107:
 9211 0db9 00000000 		.4byte	.LVL227
 9212 0dbd 0B000000 		.4byte	.LVL228-1
 9213 0dc1 0100     		.2byte	0x1
 9214 0dc3 52       		.byte	0x52
 9215 0dc4 0B000000 		.4byte	.LVL228-1
 9216 0dc8 24000000 		.4byte	.LFE101
 9217 0dcc 0100     		.2byte	0x1
 9218 0dce 57       		.byte	0x57
 9219 0dcf 00000000 		.4byte	0
 9220 0dd3 00000000 		.4byte	0
 9221              	.LLST108:
 9222 0dd7 0E000000 		.4byte	.LVL229
 9223 0ddb 14000000 		.4byte	.LVL230
 9224 0ddf 0100     		.2byte	0x1
 9225 0de1 50       		.byte	0x50
 9226 0de2 14000000 		.4byte	.LVL230
 9227 0de6 24000000 		.4byte	.LFE101
 9228 0dea 0100     		.2byte	0x1
 9229 0dec 55       		.byte	0x55
 9230 0ded 00000000 		.4byte	0
 9231 0df1 00000000 		.4byte	0
 9232              	.LLST109:
 9233 0df5 1A000000 		.4byte	.LVL232
 9234 0df9 1C000000 		.4byte	.LVL233
 9235 0dfd 0100     		.2byte	0x1
 9236 0dff 50       		.byte	0x50
 9237 0e00 1C000000 		.4byte	.LVL233
 9238 0e04 24000000 		.4byte	.LFE101
 9239 0e08 0100     		.2byte	0x1
 9240 0e0a 54       		.byte	0x54
 9241 0e0b 00000000 		.4byte	0
 9242 0e0f 00000000 		.4byte	0
 9243              	.LLST110:
 9244 0e13 00000000 		.4byte	.LVL235
 9245 0e17 09000000 		.4byte	.LVL236-1
 9246 0e1b 0100     		.2byte	0x1
 9247 0e1d 50       		.byte	0x50
 9248 0e1e 09000000 		.4byte	.LVL236-1
 9249 0e22 16000000 		.4byte	.LVL240
 9250 0e26 0100     		.2byte	0x1
 9251 0e28 54       		.byte	0x54
 9252 0e29 16000000 		.4byte	.LVL240
 9253 0e2d 20000000 		.4byte	.LFE102
 9254 0e31 0400     		.2byte	0x4
 9255 0e33 F3       		.byte	0xf3
 9256 0e34 01       		.uleb128 0x1
 9257 0e35 50       		.byte	0x50
 9258 0e36 9F       		.byte	0x9f
 9259 0e37 00000000 		.4byte	0
 9260 0e3b 00000000 		.4byte	0
 9261              	.LLST111:
 9262 0e3f 00000000 		.4byte	.LVL235
 9263 0e43 09000000 		.4byte	.LVL236-1
ARM GAS  C:\Users\Reza\AppData\Local\Temp\cckOPwM0.s 			page 187


 9264 0e47 0100     		.2byte	0x1
 9265 0e49 51       		.byte	0x51
 9266 0e4a 09000000 		.4byte	.LVL236-1
 9267 0e4e 20000000 		.4byte	.LFE102
 9268 0e52 0100     		.2byte	0x1
 9269 0e54 56       		.byte	0x56
 9270 0e55 00000000 		.4byte	0
 9271 0e59 00000000 		.4byte	0
 9272              	.LLST112:
 9273 0e5d 0C000000 		.4byte	.LVL237
 9274 0e61 10000000 		.4byte	.LVL238
 9275 0e65 0100     		.2byte	0x1
 9276 0e67 50       		.byte	0x50
 9277 0e68 10000000 		.4byte	.LVL238
 9278 0e6c 20000000 		.4byte	.LFE102
 9279 0e70 0100     		.2byte	0x1
 9280 0e72 55       		.byte	0x55
 9281 0e73 00000000 		.4byte	0
 9282 0e77 00000000 		.4byte	0
 9283              	.LLST113:
 9284 0e7b 16000000 		.4byte	.LVL240
 9285 0e7f 18000000 		.4byte	.LVL241
 9286 0e83 0100     		.2byte	0x1
 9287 0e85 50       		.byte	0x50
 9288 0e86 18000000 		.4byte	.LVL241
 9289 0e8a 20000000 		.4byte	.LFE102
 9290 0e8e 0100     		.2byte	0x1
 9291 0e90 54       		.byte	0x54
 9292 0e91 00000000 		.4byte	0
 9293 0e95 00000000 		.4byte	0
 9294              	.LLST114:
 9295 0e99 00000000 		.4byte	.LVL243
 9296 0e9d 07000000 		.4byte	.LVL244-1
 9297 0ea1 0100     		.2byte	0x1
 9298 0ea3 50       		.byte	0x50
 9299 0ea4 07000000 		.4byte	.LVL244-1
 9300 0ea8 1C000000 		.4byte	.LFE103
 9301 0eac 0400     		.2byte	0x4
 9302 0eae F3       		.byte	0xf3
 9303 0eaf 01       		.uleb128 0x1
 9304 0eb0 50       		.byte	0x50
 9305 0eb1 9F       		.byte	0x9f
 9306 0eb2 00000000 		.4byte	0
 9307 0eb6 00000000 		.4byte	0
 9308              	.LLST115:
 9309 0eba 12000000 		.4byte	.LVL248
 9310 0ebe 14000000 		.4byte	.LVL249
 9311 0ec2 0100     		.2byte	0x1
 9312 0ec4 50       		.byte	0x50
 9313 0ec5 14000000 		.4byte	.LVL249
 9314 0ec9 1C000000 		.4byte	.LFE103
 9315 0ecd 0100     		.2byte	0x1
 9316 0ecf 54       		.byte	0x54
 9317 0ed0 00000000 		.4byte	0
 9318 0ed4 00000000 		.4byte	0
 9319              	.LLST116:
 9320 0ed8 0A000000 		.4byte	.LVL245
ARM GAS  C:\Users\Reza\AppData\Local\Temp\cckOPwM0.s 			page 188


 9321 0edc 0C000000 		.4byte	.LVL246
 9322 0ee0 0100     		.2byte	0x1
 9323 0ee2 50       		.byte	0x50
 9324 0ee3 0C000000 		.4byte	.LVL246
 9325 0ee7 1C000000 		.4byte	.LFE103
 9326 0eeb 0100     		.2byte	0x1
 9327 0eed 55       		.byte	0x55
 9328 0eee 00000000 		.4byte	0
 9329 0ef2 00000000 		.4byte	0
 9330              	.LLST117:
 9331 0ef6 00000000 		.4byte	.LVL251
 9332 0efa 09000000 		.4byte	.LVL252-1
 9333 0efe 0100     		.2byte	0x1
 9334 0f00 50       		.byte	0x50
 9335 0f01 09000000 		.4byte	.LVL252-1
 9336 0f05 16000000 		.4byte	.LVL256
 9337 0f09 0100     		.2byte	0x1
 9338 0f0b 54       		.byte	0x54
 9339 0f0c 16000000 		.4byte	.LVL256
 9340 0f10 20000000 		.4byte	.LFE104
 9341 0f14 0400     		.2byte	0x4
 9342 0f16 F3       		.byte	0xf3
 9343 0f17 01       		.uleb128 0x1
 9344 0f18 50       		.byte	0x50
 9345 0f19 9F       		.byte	0x9f
 9346 0f1a 00000000 		.4byte	0
 9347 0f1e 00000000 		.4byte	0
 9348              	.LLST118:
 9349 0f22 00000000 		.4byte	.LVL251
 9350 0f26 09000000 		.4byte	.LVL252-1
 9351 0f2a 0100     		.2byte	0x1
 9352 0f2c 51       		.byte	0x51
 9353 0f2d 09000000 		.4byte	.LVL252-1
 9354 0f31 20000000 		.4byte	.LFE104
 9355 0f35 0100     		.2byte	0x1
 9356 0f37 56       		.byte	0x56
 9357 0f38 00000000 		.4byte	0
 9358 0f3c 00000000 		.4byte	0
 9359              	.LLST119:
 9360 0f40 16000000 		.4byte	.LVL256
 9361 0f44 18000000 		.4byte	.LVL257
 9362 0f48 0100     		.2byte	0x1
 9363 0f4a 50       		.byte	0x50
 9364 0f4b 18000000 		.4byte	.LVL257
 9365 0f4f 20000000 		.4byte	.LFE104
 9366 0f53 0100     		.2byte	0x1
 9367 0f55 54       		.byte	0x54
 9368 0f56 00000000 		.4byte	0
 9369 0f5a 00000000 		.4byte	0
 9370              	.LLST120:
 9371 0f5e 0C000000 		.4byte	.LVL253
 9372 0f62 10000000 		.4byte	.LVL254
 9373 0f66 0100     		.2byte	0x1
 9374 0f68 50       		.byte	0x50
 9375 0f69 10000000 		.4byte	.LVL254
 9376 0f6d 20000000 		.4byte	.LFE104
 9377 0f71 0100     		.2byte	0x1
ARM GAS  C:\Users\Reza\AppData\Local\Temp\cckOPwM0.s 			page 189


 9378 0f73 55       		.byte	0x55
 9379 0f74 00000000 		.4byte	0
 9380 0f78 00000000 		.4byte	0
 9381              	.LLST121:
 9382 0f7c 00000000 		.4byte	.LVL259
 9383 0f80 09000000 		.4byte	.LVL260-1
 9384 0f84 0100     		.2byte	0x1
 9385 0f86 50       		.byte	0x50
 9386 0f87 09000000 		.4byte	.LVL260-1
 9387 0f8b 16000000 		.4byte	.LVL264
 9388 0f8f 0100     		.2byte	0x1
 9389 0f91 54       		.byte	0x54
 9390 0f92 16000000 		.4byte	.LVL264
 9391 0f96 20000000 		.4byte	.LFE105
 9392 0f9a 0400     		.2byte	0x4
 9393 0f9c F3       		.byte	0xf3
 9394 0f9d 01       		.uleb128 0x1
 9395 0f9e 50       		.byte	0x50
 9396 0f9f 9F       		.byte	0x9f
 9397 0fa0 00000000 		.4byte	0
 9398 0fa4 00000000 		.4byte	0
 9399              	.LLST122:
 9400 0fa8 00000000 		.4byte	.LVL259
 9401 0fac 09000000 		.4byte	.LVL260-1
 9402 0fb0 0100     		.2byte	0x1
 9403 0fb2 51       		.byte	0x51
 9404 0fb3 09000000 		.4byte	.LVL260-1
 9405 0fb7 20000000 		.4byte	.LFE105
 9406 0fbb 0100     		.2byte	0x1
 9407 0fbd 56       		.byte	0x56
 9408 0fbe 00000000 		.4byte	0
 9409 0fc2 00000000 		.4byte	0
 9410              	.LLST123:
 9411 0fc6 16000000 		.4byte	.LVL264
 9412 0fca 18000000 		.4byte	.LVL265
 9413 0fce 0100     		.2byte	0x1
 9414 0fd0 50       		.byte	0x50
 9415 0fd1 18000000 		.4byte	.LVL265
 9416 0fd5 20000000 		.4byte	.LFE105
 9417 0fd9 0100     		.2byte	0x1
 9418 0fdb 54       		.byte	0x54
 9419 0fdc 00000000 		.4byte	0
 9420 0fe0 00000000 		.4byte	0
 9421              	.LLST124:
 9422 0fe4 0C000000 		.4byte	.LVL261
 9423 0fe8 10000000 		.4byte	.LVL262
 9424 0fec 0100     		.2byte	0x1
 9425 0fee 50       		.byte	0x50
 9426 0fef 10000000 		.4byte	.LVL262
 9427 0ff3 20000000 		.4byte	.LFE105
 9428 0ff7 0100     		.2byte	0x1
 9429 0ff9 55       		.byte	0x55
 9430 0ffa 00000000 		.4byte	0
 9431 0ffe 00000000 		.4byte	0
 9432              	.LLST125:
 9433 1002 00000000 		.4byte	.LVL267
 9434 1006 07000000 		.4byte	.LVL268-1
ARM GAS  C:\Users\Reza\AppData\Local\Temp\cckOPwM0.s 			page 190


 9435 100a 0100     		.2byte	0x1
 9436 100c 50       		.byte	0x50
 9437 100d 07000000 		.4byte	.LVL268-1
 9438 1011 12000000 		.4byte	.LVL272
 9439 1015 0100     		.2byte	0x1
 9440 1017 54       		.byte	0x54
 9441 1018 12000000 		.4byte	.LVL272
 9442 101c 1C000000 		.4byte	.LFE106
 9443 1020 0400     		.2byte	0x4
 9444 1022 F3       		.byte	0xf3
 9445 1023 01       		.uleb128 0x1
 9446 1024 50       		.byte	0x50
 9447 1025 9F       		.byte	0x9f
 9448 1026 00000000 		.4byte	0
 9449 102a 00000000 		.4byte	0
 9450              	.LLST126:
 9451 102e 12000000 		.4byte	.LVL272
 9452 1032 14000000 		.4byte	.LVL273
 9453 1036 0100     		.2byte	0x1
 9454 1038 50       		.byte	0x50
 9455 1039 14000000 		.4byte	.LVL273
 9456 103d 1C000000 		.4byte	.LFE106
 9457 1041 0100     		.2byte	0x1
 9458 1043 54       		.byte	0x54
 9459 1044 00000000 		.4byte	0
 9460 1048 00000000 		.4byte	0
 9461              	.LLST127:
 9462 104c 0A000000 		.4byte	.LVL269
 9463 1050 0C000000 		.4byte	.LVL270
 9464 1054 0100     		.2byte	0x1
 9465 1056 50       		.byte	0x50
 9466 1057 0C000000 		.4byte	.LVL270
 9467 105b 1C000000 		.4byte	.LFE106
 9468 105f 0100     		.2byte	0x1
 9469 1061 55       		.byte	0x55
 9470 1062 00000000 		.4byte	0
 9471 1066 00000000 		.4byte	0
 9472              	.LLST128:
 9473 106a 00000000 		.4byte	.LVL275
 9474 106e 09000000 		.4byte	.LVL276-1
 9475 1072 0100     		.2byte	0x1
 9476 1074 50       		.byte	0x50
 9477 1075 09000000 		.4byte	.LVL276-1
 9478 1079 1C000000 		.4byte	.LFE107
 9479 107d 0100     		.2byte	0x1
 9480 107f 55       		.byte	0x55
 9481 1080 00000000 		.4byte	0
 9482 1084 00000000 		.4byte	0
 9483              	.LLST129:
 9484 1088 00000000 		.4byte	.LVL275
 9485 108c 09000000 		.4byte	.LVL276-1
 9486 1090 0100     		.2byte	0x1
 9487 1092 51       		.byte	0x51
 9488 1093 09000000 		.4byte	.LVL276-1
 9489 1097 1C000000 		.4byte	.LFE107
 9490 109b 0100     		.2byte	0x1
 9491 109d 56       		.byte	0x56
ARM GAS  C:\Users\Reza\AppData\Local\Temp\cckOPwM0.s 			page 191


 9492 109e 00000000 		.4byte	0
 9493 10a2 00000000 		.4byte	0
 9494              	.LLST130:
 9495 10a6 0C000000 		.4byte	.LVL277
 9496 10aa 10000000 		.4byte	.LVL278
 9497 10ae 0100     		.2byte	0x1
 9498 10b0 50       		.byte	0x50
 9499 10b1 10000000 		.4byte	.LVL278
 9500 10b5 1C000000 		.4byte	.LFE107
 9501 10b9 0100     		.2byte	0x1
 9502 10bb 54       		.byte	0x54
 9503 10bc 00000000 		.4byte	0
 9504 10c0 00000000 		.4byte	0
 9505              	.LLST131:
 9506 10c4 00000000 		.4byte	.LVL281
 9507 10c8 07000000 		.4byte	.LVL282-1
 9508 10cc 0100     		.2byte	0x1
 9509 10ce 50       		.byte	0x50
 9510 10cf 07000000 		.4byte	.LVL282-1
 9511 10d3 18000000 		.4byte	.LFE108
 9512 10d7 0100     		.2byte	0x1
 9513 10d9 55       		.byte	0x55
 9514 10da 00000000 		.4byte	0
 9515 10de 00000000 		.4byte	0
 9516              	.LLST132:
 9517 10e2 0A000000 		.4byte	.LVL283
 9518 10e6 0C000000 		.4byte	.LVL284
 9519 10ea 0100     		.2byte	0x1
 9520 10ec 50       		.byte	0x50
 9521 10ed 0C000000 		.4byte	.LVL284
 9522 10f1 18000000 		.4byte	.LFE108
 9523 10f5 0100     		.2byte	0x1
 9524 10f7 54       		.byte	0x54
 9525 10f8 00000000 		.4byte	0
 9526 10fc 00000000 		.4byte	0
 9527              	.LLST133:
 9528 1100 00000000 		.4byte	.LVL287
 9529 1104 07000000 		.4byte	.LVL288-1
 9530 1108 0100     		.2byte	0x1
 9531 110a 50       		.byte	0x50
 9532 110b 07000000 		.4byte	.LVL288-1
 9533 110f 12000000 		.4byte	.LVL292
 9534 1113 0100     		.2byte	0x1
 9535 1115 54       		.byte	0x54
 9536 1116 12000000 		.4byte	.LVL292
 9537 111a 1C000000 		.4byte	.LFE109
 9538 111e 0400     		.2byte	0x4
 9539 1120 F3       		.byte	0xf3
 9540 1121 01       		.uleb128 0x1
 9541 1122 50       		.byte	0x50
 9542 1123 9F       		.byte	0x9f
 9543 1124 00000000 		.4byte	0
 9544 1128 00000000 		.4byte	0
 9545              	.LLST134:
 9546 112c 0A000000 		.4byte	.LVL289
 9547 1130 0C000000 		.4byte	.LVL290
 9548 1134 0100     		.2byte	0x1
ARM GAS  C:\Users\Reza\AppData\Local\Temp\cckOPwM0.s 			page 192


 9549 1136 50       		.byte	0x50
 9550 1137 0C000000 		.4byte	.LVL290
 9551 113b 1C000000 		.4byte	.LFE109
 9552 113f 0100     		.2byte	0x1
 9553 1141 55       		.byte	0x55
 9554 1142 00000000 		.4byte	0
 9555 1146 00000000 		.4byte	0
 9556              	.LLST135:
 9557 114a 12000000 		.4byte	.LVL292
 9558 114e 14000000 		.4byte	.LVL293
 9559 1152 0100     		.2byte	0x1
 9560 1154 50       		.byte	0x50
 9561 1155 14000000 		.4byte	.LVL293
 9562 1159 1C000000 		.4byte	.LFE109
 9563 115d 0100     		.2byte	0x1
 9564 115f 54       		.byte	0x54
 9565 1160 00000000 		.4byte	0
 9566 1164 00000000 		.4byte	0
 9567              	.LLST136:
 9568 1168 00000000 		.4byte	.LVL295
 9569 116c 07000000 		.4byte	.LVL296-1
 9570 1170 0100     		.2byte	0x1
 9571 1172 50       		.byte	0x50
 9572 1173 07000000 		.4byte	.LVL296-1
 9573 1177 18000000 		.4byte	.LFE110
 9574 117b 0100     		.2byte	0x1
 9575 117d 55       		.byte	0x55
 9576 117e 00000000 		.4byte	0
 9577 1182 00000000 		.4byte	0
 9578              	.LLST137:
 9579 1186 0A000000 		.4byte	.LVL297
 9580 118a 0C000000 		.4byte	.LVL298
 9581 118e 0100     		.2byte	0x1
 9582 1190 50       		.byte	0x50
 9583 1191 0C000000 		.4byte	.LVL298
 9584 1195 18000000 		.4byte	.LFE110
 9585 1199 0100     		.2byte	0x1
 9586 119b 54       		.byte	0x54
 9587 119c 00000000 		.4byte	0
 9588 11a0 00000000 		.4byte	0
 9589              	.LLST138:
 9590 11a4 00000000 		.4byte	.LVL301
 9591 11a8 07000000 		.4byte	.LVL302-1
 9592 11ac 0100     		.2byte	0x1
 9593 11ae 50       		.byte	0x50
 9594 11af 07000000 		.4byte	.LVL302-1
 9595 11b3 12000000 		.4byte	.LVL306
 9596 11b7 0100     		.2byte	0x1
 9597 11b9 54       		.byte	0x54
 9598 11ba 12000000 		.4byte	.LVL306
 9599 11be 1C000000 		.4byte	.LFE111
 9600 11c2 0400     		.2byte	0x4
 9601 11c4 F3       		.byte	0xf3
 9602 11c5 01       		.uleb128 0x1
 9603 11c6 50       		.byte	0x50
 9604 11c7 9F       		.byte	0x9f
 9605 11c8 00000000 		.4byte	0
ARM GAS  C:\Users\Reza\AppData\Local\Temp\cckOPwM0.s 			page 193


 9606 11cc 00000000 		.4byte	0
 9607              	.LLST139:
 9608 11d0 12000000 		.4byte	.LVL306
 9609 11d4 14000000 		.4byte	.LVL307
 9610 11d8 0100     		.2byte	0x1
 9611 11da 50       		.byte	0x50
 9612 11db 14000000 		.4byte	.LVL307
 9613 11df 1C000000 		.4byte	.LFE111
 9614 11e3 0100     		.2byte	0x1
 9615 11e5 54       		.byte	0x54
 9616 11e6 00000000 		.4byte	0
 9617 11ea 00000000 		.4byte	0
 9618              	.LLST140:
 9619 11ee 0A000000 		.4byte	.LVL303
 9620 11f2 0C000000 		.4byte	.LVL304
 9621 11f6 0100     		.2byte	0x1
 9622 11f8 50       		.byte	0x50
 9623 11f9 0C000000 		.4byte	.LVL304
 9624 11fd 1C000000 		.4byte	.LFE111
 9625 1201 0100     		.2byte	0x1
 9626 1203 55       		.byte	0x55
 9627 1204 00000000 		.4byte	0
 9628 1208 00000000 		.4byte	0
 9629              	.LLST141:
 9630 120c 00000000 		.4byte	.LVL309
 9631 1210 07000000 		.4byte	.LVL310-1
 9632 1214 0100     		.2byte	0x1
 9633 1216 50       		.byte	0x50
 9634 1217 07000000 		.4byte	.LVL310-1
 9635 121b 18000000 		.4byte	.LFE112
 9636 121f 0100     		.2byte	0x1
 9637 1221 55       		.byte	0x55
 9638 1222 00000000 		.4byte	0
 9639 1226 00000000 		.4byte	0
 9640              	.LLST142:
 9641 122a 0A000000 		.4byte	.LVL311
 9642 122e 0C000000 		.4byte	.LVL312
 9643 1232 0100     		.2byte	0x1
 9644 1234 50       		.byte	0x50
 9645 1235 0C000000 		.4byte	.LVL312
 9646 1239 18000000 		.4byte	.LFE112
 9647 123d 0100     		.2byte	0x1
 9648 123f 54       		.byte	0x54
 9649 1240 00000000 		.4byte	0
 9650 1244 00000000 		.4byte	0
 9651              	.LLST143:
 9652 1248 08000000 		.4byte	.LVL316
 9653 124c 0B000000 		.4byte	.LVL317-1
 9654 1250 0100     		.2byte	0x1
 9655 1252 50       		.byte	0x50
 9656 1253 0B000000 		.4byte	.LVL317-1
 9657 1257 14000000 		.4byte	.LFE113
 9658 125b 0100     		.2byte	0x1
 9659 125d 54       		.byte	0x54
 9660 125e 00000000 		.4byte	0
 9661 1262 00000000 		.4byte	0
 9662              	.LLST144:
ARM GAS  C:\Users\Reza\AppData\Local\Temp\cckOPwM0.s 			page 194


 9663 1266 0E000000 		.4byte	.LVL322
 9664 126a 10000000 		.4byte	.LVL323
 9665 126e 0100     		.2byte	0x1
 9666 1270 50       		.byte	0x50
 9667 1271 10000000 		.4byte	.LVL323
 9668 1275 18000000 		.4byte	.LFE114
 9669 1279 0100     		.2byte	0x1
 9670 127b 54       		.byte	0x54
 9671 127c 00000000 		.4byte	0
 9672 1280 00000000 		.4byte	0
 9673              	.LLST145:
 9674 1284 08000000 		.4byte	.LVL320
 9675 1288 0B000000 		.4byte	.LVL321-1
 9676 128c 0100     		.2byte	0x1
 9677 128e 50       		.byte	0x50
 9678 128f 0B000000 		.4byte	.LVL321-1
 9679 1293 18000000 		.4byte	.LFE114
 9680 1297 0100     		.2byte	0x1
 9681 1299 55       		.byte	0x55
 9682 129a 00000000 		.4byte	0
 9683 129e 00000000 		.4byte	0
 9684              	.LLST146:
 9685 12a2 0E000000 		.4byte	.LVL328
 9686 12a6 10000000 		.4byte	.LVL329
 9687 12aa 0100     		.2byte	0x1
 9688 12ac 50       		.byte	0x50
 9689 12ad 10000000 		.4byte	.LVL329
 9690 12b1 18000000 		.4byte	.LFE115
 9691 12b5 0100     		.2byte	0x1
 9692 12b7 54       		.byte	0x54
 9693 12b8 00000000 		.4byte	0
 9694 12bc 00000000 		.4byte	0
 9695              	.LLST147:
 9696 12c0 08000000 		.4byte	.LVL326
 9697 12c4 0B000000 		.4byte	.LVL327-1
 9698 12c8 0100     		.2byte	0x1
 9699 12ca 50       		.byte	0x50
 9700 12cb 0B000000 		.4byte	.LVL327-1
 9701 12cf 18000000 		.4byte	.LFE115
 9702 12d3 0100     		.2byte	0x1
 9703 12d5 55       		.byte	0x55
 9704 12d6 00000000 		.4byte	0
 9705 12da 00000000 		.4byte	0
 9706              	.LLST148:
 9707 12de 00000000 		.4byte	.LVL331
 9708 12e2 11000000 		.4byte	.LVL332-1
 9709 12e6 0100     		.2byte	0x1
 9710 12e8 50       		.byte	0x50
 9711 12e9 11000000 		.4byte	.LVL332-1
 9712 12ed 26000000 		.4byte	.LVL336
 9713 12f1 0100     		.2byte	0x1
 9714 12f3 54       		.byte	0x54
 9715 12f4 26000000 		.4byte	.LVL336
 9716 12f8 34000000 		.4byte	.LFE116
 9717 12fc 0400     		.2byte	0x4
 9718 12fe F3       		.byte	0xf3
 9719 12ff 01       		.uleb128 0x1
ARM GAS  C:\Users\Reza\AppData\Local\Temp\cckOPwM0.s 			page 195


 9720 1300 50       		.byte	0x50
 9721 1301 9F       		.byte	0x9f
 9722 1302 00000000 		.4byte	0
 9723 1306 00000000 		.4byte	0
 9724              	.LLST149:
 9725 130a 00000000 		.4byte	.LVL331
 9726 130e 11000000 		.4byte	.LVL332-1
 9727 1312 0100     		.2byte	0x1
 9728 1314 51       		.byte	0x51
 9729 1315 11000000 		.4byte	.LVL332-1
 9730 1319 34000000 		.4byte	.LFE116
 9731 131d 0100     		.2byte	0x1
 9732 131f 56       		.byte	0x56
 9733 1320 00000000 		.4byte	0
 9734 1324 00000000 		.4byte	0
 9735              	.LLST150:
 9736 1328 00000000 		.4byte	.LVL331
 9737 132c 11000000 		.4byte	.LVL332-1
 9738 1330 0100     		.2byte	0x1
 9739 1332 52       		.byte	0x52
 9740 1333 11000000 		.4byte	.LVL332-1
 9741 1337 34000000 		.4byte	.LFE116
 9742 133b 0100     		.2byte	0x1
 9743 133d 57       		.byte	0x57
 9744 133e 00000000 		.4byte	0
 9745 1342 00000000 		.4byte	0
 9746              	.LLST151:
 9747 1346 00000000 		.4byte	.LVL331
 9748 134a 11000000 		.4byte	.LVL332-1
 9749 134e 0100     		.2byte	0x1
 9750 1350 53       		.byte	0x53
 9751 1351 11000000 		.4byte	.LVL332-1
 9752 1355 34000000 		.4byte	.LFE116
 9753 1359 0100     		.2byte	0x1
 9754 135b 58       		.byte	0x58
 9755 135c 00000000 		.4byte	0
 9756 1360 00000000 		.4byte	0
 9757              	.LLST152:
 9758 1364 26000000 		.4byte	.LVL336
 9759 1368 28000000 		.4byte	.LVL337
 9760 136c 0100     		.2byte	0x1
 9761 136e 50       		.byte	0x50
 9762 136f 28000000 		.4byte	.LVL337
 9763 1373 34000000 		.4byte	.LFE116
 9764 1377 0100     		.2byte	0x1
 9765 1379 54       		.byte	0x54
 9766 137a 00000000 		.4byte	0
 9767 137e 00000000 		.4byte	0
 9768              	.LLST153:
 9769 1382 14000000 		.4byte	.LVL333
 9770 1386 20000000 		.4byte	.LVL334
 9771 138a 0100     		.2byte	0x1
 9772 138c 50       		.byte	0x50
 9773 138d 20000000 		.4byte	.LVL334
 9774 1391 34000000 		.4byte	.LFE116
 9775 1395 0100     		.2byte	0x1
 9776 1397 55       		.byte	0x55
ARM GAS  C:\Users\Reza\AppData\Local\Temp\cckOPwM0.s 			page 196


 9777 1398 00000000 		.4byte	0
 9778 139c 00000000 		.4byte	0
 9779              	.LLST154:
 9780 13a0 00000000 		.4byte	.LVL339
 9781 13a4 09000000 		.4byte	.LVL340-1
 9782 13a8 0100     		.2byte	0x1
 9783 13aa 50       		.byte	0x50
 9784 13ab 09000000 		.4byte	.LVL340-1
 9785 13af 16000000 		.4byte	.LVL344
 9786 13b3 0100     		.2byte	0x1
 9787 13b5 54       		.byte	0x54
 9788 13b6 16000000 		.4byte	.LVL344
 9789 13ba 20000000 		.4byte	.LFE117
 9790 13be 0400     		.2byte	0x4
 9791 13c0 F3       		.byte	0xf3
 9792 13c1 01       		.uleb128 0x1
 9793 13c2 50       		.byte	0x50
 9794 13c3 9F       		.byte	0x9f
 9795 13c4 00000000 		.4byte	0
 9796 13c8 00000000 		.4byte	0
 9797              	.LLST155:
 9798 13cc 00000000 		.4byte	.LVL339
 9799 13d0 09000000 		.4byte	.LVL340-1
 9800 13d4 0100     		.2byte	0x1
 9801 13d6 51       		.byte	0x51
 9802 13d7 09000000 		.4byte	.LVL340-1
 9803 13db 20000000 		.4byte	.LFE117
 9804 13df 0100     		.2byte	0x1
 9805 13e1 56       		.byte	0x56
 9806 13e2 00000000 		.4byte	0
 9807 13e6 00000000 		.4byte	0
 9808              	.LLST156:
 9809 13ea 16000000 		.4byte	.LVL344
 9810 13ee 18000000 		.4byte	.LVL345
 9811 13f2 0100     		.2byte	0x1
 9812 13f4 50       		.byte	0x50
 9813 13f5 18000000 		.4byte	.LVL345
 9814 13f9 20000000 		.4byte	.LFE117
 9815 13fd 0100     		.2byte	0x1
 9816 13ff 54       		.byte	0x54
 9817 1400 00000000 		.4byte	0
 9818 1404 00000000 		.4byte	0
 9819              	.LLST157:
 9820 1408 0C000000 		.4byte	.LVL341
 9821 140c 10000000 		.4byte	.LVL342
 9822 1410 0100     		.2byte	0x1
 9823 1412 50       		.byte	0x50
 9824 1413 10000000 		.4byte	.LVL342
 9825 1417 20000000 		.4byte	.LFE117
 9826 141b 0100     		.2byte	0x1
 9827 141d 55       		.byte	0x55
 9828 141e 00000000 		.4byte	0
 9829 1422 00000000 		.4byte	0
 9830              	.LLST158:
 9831 1426 00000000 		.4byte	.LVL347
 9832 142a 09000000 		.4byte	.LVL348-1
 9833 142e 0100     		.2byte	0x1
ARM GAS  C:\Users\Reza\AppData\Local\Temp\cckOPwM0.s 			page 197


 9834 1430 50       		.byte	0x50
 9835 1431 09000000 		.4byte	.LVL348-1
 9836 1435 16000000 		.4byte	.LVL352
 9837 1439 0100     		.2byte	0x1
 9838 143b 54       		.byte	0x54
 9839 143c 16000000 		.4byte	.LVL352
 9840 1440 20000000 		.4byte	.LFE118
 9841 1444 0400     		.2byte	0x4
 9842 1446 F3       		.byte	0xf3
 9843 1447 01       		.uleb128 0x1
 9844 1448 50       		.byte	0x50
 9845 1449 9F       		.byte	0x9f
 9846 144a 00000000 		.4byte	0
 9847 144e 00000000 		.4byte	0
 9848              	.LLST159:
 9849 1452 00000000 		.4byte	.LVL347
 9850 1456 09000000 		.4byte	.LVL348-1
 9851 145a 0100     		.2byte	0x1
 9852 145c 51       		.byte	0x51
 9853 145d 09000000 		.4byte	.LVL348-1
 9854 1461 20000000 		.4byte	.LFE118
 9855 1465 0100     		.2byte	0x1
 9856 1467 56       		.byte	0x56
 9857 1468 00000000 		.4byte	0
 9858 146c 00000000 		.4byte	0
 9859              	.LLST160:
 9860 1470 16000000 		.4byte	.LVL352
 9861 1474 18000000 		.4byte	.LVL353
 9862 1478 0100     		.2byte	0x1
 9863 147a 50       		.byte	0x50
 9864 147b 18000000 		.4byte	.LVL353
 9865 147f 20000000 		.4byte	.LFE118
 9866 1483 0100     		.2byte	0x1
 9867 1485 54       		.byte	0x54
 9868 1486 00000000 		.4byte	0
 9869 148a 00000000 		.4byte	0
 9870              	.LLST161:
 9871 148e 0C000000 		.4byte	.LVL349
 9872 1492 10000000 		.4byte	.LVL350
 9873 1496 0100     		.2byte	0x1
 9874 1498 50       		.byte	0x50
 9875 1499 10000000 		.4byte	.LVL350
 9876 149d 20000000 		.4byte	.LFE118
 9877 14a1 0100     		.2byte	0x1
 9878 14a3 55       		.byte	0x55
 9879 14a4 00000000 		.4byte	0
 9880 14a8 00000000 		.4byte	0
 9881              	.LLST162:
 9882 14ac 00000000 		.4byte	.LVL355
 9883 14b0 0F000000 		.4byte	.LVL356-1
 9884 14b4 0100     		.2byte	0x1
 9885 14b6 50       		.byte	0x50
 9886 14b7 0F000000 		.4byte	.LVL356-1
 9887 14bb 20000000 		.4byte	.LVL360
 9888 14bf 0100     		.2byte	0x1
 9889 14c1 54       		.byte	0x54
 9890 14c2 20000000 		.4byte	.LVL360
ARM GAS  C:\Users\Reza\AppData\Local\Temp\cckOPwM0.s 			page 198


 9891 14c6 2C000000 		.4byte	.LFE119
 9892 14ca 0400     		.2byte	0x4
 9893 14cc F3       		.byte	0xf3
 9894 14cd 01       		.uleb128 0x1
 9895 14ce 50       		.byte	0x50
 9896 14cf 9F       		.byte	0x9f
 9897 14d0 00000000 		.4byte	0
 9898 14d4 00000000 		.4byte	0
 9899              	.LLST163:
 9900 14d8 00000000 		.4byte	.LVL355
 9901 14dc 0F000000 		.4byte	.LVL356-1
 9902 14e0 0100     		.2byte	0x1
 9903 14e2 51       		.byte	0x51
 9904 14e3 0F000000 		.4byte	.LVL356-1
 9905 14e7 2C000000 		.4byte	.LFE119
 9906 14eb 0100     		.2byte	0x1
 9907 14ed 56       		.byte	0x56
 9908 14ee 00000000 		.4byte	0
 9909 14f2 00000000 		.4byte	0
 9910              	.LLST164:
 9911 14f6 00000000 		.4byte	.LVL355
 9912 14fa 0F000000 		.4byte	.LVL356-1
 9913 14fe 0100     		.2byte	0x1
 9914 1500 52       		.byte	0x52
 9915 1501 0F000000 		.4byte	.LVL356-1
 9916 1505 2C000000 		.4byte	.LFE119
 9917 1509 0100     		.2byte	0x1
 9918 150b 57       		.byte	0x57
 9919 150c 00000000 		.4byte	0
 9920 1510 00000000 		.4byte	0
 9921              	.LLST165:
 9922 1514 00000000 		.4byte	.LVL355
 9923 1518 0F000000 		.4byte	.LVL356-1
 9924 151c 0100     		.2byte	0x1
 9925 151e 53       		.byte	0x53
 9926 151f 0F000000 		.4byte	.LVL356-1
 9927 1523 2C000000 		.4byte	.LFE119
 9928 1527 0100     		.2byte	0x1
 9929 1529 58       		.byte	0x58
 9930 152a 00000000 		.4byte	0
 9931 152e 00000000 		.4byte	0
 9932              	.LLST166:
 9933 1532 20000000 		.4byte	.LVL360
 9934 1536 22000000 		.4byte	.LVL361
 9935 153a 0100     		.2byte	0x1
 9936 153c 50       		.byte	0x50
 9937 153d 22000000 		.4byte	.LVL361
 9938 1541 2C000000 		.4byte	.LFE119
 9939 1545 0100     		.2byte	0x1
 9940 1547 54       		.byte	0x54
 9941 1548 00000000 		.4byte	0
 9942 154c 00000000 		.4byte	0
 9943              	.LLST167:
 9944 1550 12000000 		.4byte	.LVL357
 9945 1554 1A000000 		.4byte	.LVL358
 9946 1558 0100     		.2byte	0x1
 9947 155a 50       		.byte	0x50
ARM GAS  C:\Users\Reza\AppData\Local\Temp\cckOPwM0.s 			page 199


 9948 155b 1A000000 		.4byte	.LVL358
 9949 155f 2C000000 		.4byte	.LFE119
 9950 1563 0100     		.2byte	0x1
 9951 1565 55       		.byte	0x55
 9952 1566 00000000 		.4byte	0
 9953 156a 00000000 		.4byte	0
 9954              	.LLST168:
 9955 156e 00000000 		.4byte	.LVL363
 9956 1572 07000000 		.4byte	.LVL364-1
 9957 1576 0100     		.2byte	0x1
 9958 1578 50       		.byte	0x50
 9959 1579 07000000 		.4byte	.LVL364-1
 9960 157d 18000000 		.4byte	.LFE120
 9961 1581 0100     		.2byte	0x1
 9962 1583 55       		.byte	0x55
 9963 1584 00000000 		.4byte	0
 9964 1588 00000000 		.4byte	0
 9965              	.LLST169:
 9966 158c 0A000000 		.4byte	.LVL365
 9967 1590 0C000000 		.4byte	.LVL366
 9968 1594 0100     		.2byte	0x1
 9969 1596 50       		.byte	0x50
 9970 1597 0C000000 		.4byte	.LVL366
 9971 159b 18000000 		.4byte	.LFE120
 9972 159f 0100     		.2byte	0x1
 9973 15a1 54       		.byte	0x54
 9974 15a2 00000000 		.4byte	0
 9975 15a6 00000000 		.4byte	0
 9976              	.LLST170:
 9977 15aa 00000000 		.4byte	.LVL369
 9978 15ae 0F000000 		.4byte	.LVL370-1
 9979 15b2 0100     		.2byte	0x1
 9980 15b4 50       		.byte	0x50
 9981 15b5 0F000000 		.4byte	.LVL370-1
 9982 15b9 20000000 		.4byte	.LVL374
 9983 15bd 0100     		.2byte	0x1
 9984 15bf 54       		.byte	0x54
 9985 15c0 20000000 		.4byte	.LVL374
 9986 15c4 2C000000 		.4byte	.LFE121
 9987 15c8 0400     		.2byte	0x4
 9988 15ca F3       		.byte	0xf3
 9989 15cb 01       		.uleb128 0x1
 9990 15cc 50       		.byte	0x50
 9991 15cd 9F       		.byte	0x9f
 9992 15ce 00000000 		.4byte	0
 9993 15d2 00000000 		.4byte	0
 9994              	.LLST171:
 9995 15d6 00000000 		.4byte	.LVL369
 9996 15da 0F000000 		.4byte	.LVL370-1
 9997 15de 0100     		.2byte	0x1
 9998 15e0 51       		.byte	0x51
 9999 15e1 0F000000 		.4byte	.LVL370-1
 10000 15e5 2C000000 		.4byte	.LFE121
 10001 15e9 0100     		.2byte	0x1
 10002 15eb 56       		.byte	0x56
 10003 15ec 00000000 		.4byte	0
 10004 15f0 00000000 		.4byte	0
ARM GAS  C:\Users\Reza\AppData\Local\Temp\cckOPwM0.s 			page 200


 10005              	.LLST172:
 10006 15f4 00000000 		.4byte	.LVL369
 10007 15f8 0F000000 		.4byte	.LVL370-1
 10008 15fc 0100     		.2byte	0x1
 10009 15fe 52       		.byte	0x52
 10010 15ff 0F000000 		.4byte	.LVL370-1
 10011 1603 2C000000 		.4byte	.LFE121
 10012 1607 0100     		.2byte	0x1
 10013 1609 57       		.byte	0x57
 10014 160a 00000000 		.4byte	0
 10015 160e 00000000 		.4byte	0
 10016              	.LLST173:
 10017 1612 00000000 		.4byte	.LVL369
 10018 1616 0F000000 		.4byte	.LVL370-1
 10019 161a 0100     		.2byte	0x1
 10020 161c 53       		.byte	0x53
 10021 161d 0F000000 		.4byte	.LVL370-1
 10022 1621 2C000000 		.4byte	.LFE121
 10023 1625 0100     		.2byte	0x1
 10024 1627 58       		.byte	0x58
 10025 1628 00000000 		.4byte	0
 10026 162c 00000000 		.4byte	0
 10027              	.LLST174:
 10028 1630 20000000 		.4byte	.LVL374
 10029 1634 22000000 		.4byte	.LVL375
 10030 1638 0100     		.2byte	0x1
 10031 163a 50       		.byte	0x50
 10032 163b 22000000 		.4byte	.LVL375
 10033 163f 2C000000 		.4byte	.LFE121
 10034 1643 0100     		.2byte	0x1
 10035 1645 54       		.byte	0x54
 10036 1646 00000000 		.4byte	0
 10037 164a 00000000 		.4byte	0
 10038              	.LLST175:
 10039 164e 12000000 		.4byte	.LVL371
 10040 1652 1A000000 		.4byte	.LVL372
 10041 1656 0100     		.2byte	0x1
 10042 1658 50       		.byte	0x50
 10043 1659 1A000000 		.4byte	.LVL372
 10044 165d 2C000000 		.4byte	.LFE121
 10045 1661 0100     		.2byte	0x1
 10046 1663 55       		.byte	0x55
 10047 1664 00000000 		.4byte	0
 10048 1668 00000000 		.4byte	0
 10049              	.LLST176:
 10050 166c 00000000 		.4byte	.LVL377
 10051 1670 07000000 		.4byte	.LVL378-1
 10052 1674 0100     		.2byte	0x1
 10053 1676 50       		.byte	0x50
 10054 1677 07000000 		.4byte	.LVL378-1
 10055 167b 12000000 		.4byte	.LVL382
 10056 167f 0100     		.2byte	0x1
 10057 1681 54       		.byte	0x54
 10058 1682 12000000 		.4byte	.LVL382
 10059 1686 1C000000 		.4byte	.LFE122
 10060 168a 0400     		.2byte	0x4
 10061 168c F3       		.byte	0xf3
ARM GAS  C:\Users\Reza\AppData\Local\Temp\cckOPwM0.s 			page 201


 10062 168d 01       		.uleb128 0x1
 10063 168e 50       		.byte	0x50
 10064 168f 9F       		.byte	0x9f
 10065 1690 00000000 		.4byte	0
 10066 1694 00000000 		.4byte	0
 10067              	.LLST177:
 10068 1698 12000000 		.4byte	.LVL382
 10069 169c 14000000 		.4byte	.LVL383
 10070 16a0 0100     		.2byte	0x1
 10071 16a2 50       		.byte	0x50
 10072 16a3 14000000 		.4byte	.LVL383
 10073 16a7 1C000000 		.4byte	.LFE122
 10074 16ab 0100     		.2byte	0x1
 10075 16ad 54       		.byte	0x54
 10076 16ae 00000000 		.4byte	0
 10077 16b2 00000000 		.4byte	0
 10078              	.LLST178:
 10079 16b6 0A000000 		.4byte	.LVL379
 10080 16ba 0C000000 		.4byte	.LVL380
 10081 16be 0100     		.2byte	0x1
 10082 16c0 50       		.byte	0x50
 10083 16c1 0C000000 		.4byte	.LVL380
 10084 16c5 1C000000 		.4byte	.LFE122
 10085 16c9 0100     		.2byte	0x1
 10086 16cb 55       		.byte	0x55
 10087 16cc 00000000 		.4byte	0
 10088 16d0 00000000 		.4byte	0
 10089              	.LLST179:
 10090 16d4 00000000 		.4byte	.LVL385
 10091 16d8 0F000000 		.4byte	.LVL386-1
 10092 16dc 0100     		.2byte	0x1
 10093 16de 50       		.byte	0x50
 10094 16df 0F000000 		.4byte	.LVL386-1
 10095 16e3 20000000 		.4byte	.LVL390
 10096 16e7 0100     		.2byte	0x1
 10097 16e9 54       		.byte	0x54
 10098 16ea 20000000 		.4byte	.LVL390
 10099 16ee 2C000000 		.4byte	.LFE123
 10100 16f2 0400     		.2byte	0x4
 10101 16f4 F3       		.byte	0xf3
 10102 16f5 01       		.uleb128 0x1
 10103 16f6 50       		.byte	0x50
 10104 16f7 9F       		.byte	0x9f
 10105 16f8 00000000 		.4byte	0
 10106 16fc 00000000 		.4byte	0
 10107              	.LLST180:
 10108 1700 00000000 		.4byte	.LVL385
 10109 1704 0F000000 		.4byte	.LVL386-1
 10110 1708 0100     		.2byte	0x1
 10111 170a 51       		.byte	0x51
 10112 170b 0F000000 		.4byte	.LVL386-1
 10113 170f 2C000000 		.4byte	.LFE123
 10114 1713 0100     		.2byte	0x1
 10115 1715 56       		.byte	0x56
 10116 1716 00000000 		.4byte	0
 10117 171a 00000000 		.4byte	0
 10118              	.LLST181:
ARM GAS  C:\Users\Reza\AppData\Local\Temp\cckOPwM0.s 			page 202


 10119 171e 00000000 		.4byte	.LVL385
 10120 1722 0F000000 		.4byte	.LVL386-1
 10121 1726 0100     		.2byte	0x1
 10122 1728 52       		.byte	0x52
 10123 1729 0F000000 		.4byte	.LVL386-1
 10124 172d 2C000000 		.4byte	.LFE123
 10125 1731 0100     		.2byte	0x1
 10126 1733 57       		.byte	0x57
 10127 1734 00000000 		.4byte	0
 10128 1738 00000000 		.4byte	0
 10129              	.LLST182:
 10130 173c 00000000 		.4byte	.LVL385
 10131 1740 0F000000 		.4byte	.LVL386-1
 10132 1744 0100     		.2byte	0x1
 10133 1746 53       		.byte	0x53
 10134 1747 0F000000 		.4byte	.LVL386-1
 10135 174b 2C000000 		.4byte	.LFE123
 10136 174f 0100     		.2byte	0x1
 10137 1751 58       		.byte	0x58
 10138 1752 00000000 		.4byte	0
 10139 1756 00000000 		.4byte	0
 10140              	.LLST183:
 10141 175a 20000000 		.4byte	.LVL390
 10142 175e 22000000 		.4byte	.LVL391
 10143 1762 0100     		.2byte	0x1
 10144 1764 50       		.byte	0x50
 10145 1765 22000000 		.4byte	.LVL391
 10146 1769 2C000000 		.4byte	.LFE123
 10147 176d 0100     		.2byte	0x1
 10148 176f 54       		.byte	0x54
 10149 1770 00000000 		.4byte	0
 10150 1774 00000000 		.4byte	0
 10151              	.LLST184:
 10152 1778 12000000 		.4byte	.LVL387
 10153 177c 1A000000 		.4byte	.LVL388
 10154 1780 0100     		.2byte	0x1
 10155 1782 50       		.byte	0x50
 10156 1783 1A000000 		.4byte	.LVL388
 10157 1787 2C000000 		.4byte	.LFE123
 10158 178b 0100     		.2byte	0x1
 10159 178d 55       		.byte	0x55
 10160 178e 00000000 		.4byte	0
 10161 1792 00000000 		.4byte	0
 10162              	.LLST185:
 10163 1796 00000000 		.4byte	.LVL393
 10164 179a 07000000 		.4byte	.LVL394-1
 10165 179e 0100     		.2byte	0x1
 10166 17a0 50       		.byte	0x50
 10167 17a1 07000000 		.4byte	.LVL394-1
 10168 17a5 18000000 		.4byte	.LFE124
 10169 17a9 0100     		.2byte	0x1
 10170 17ab 55       		.byte	0x55
 10171 17ac 00000000 		.4byte	0
 10172 17b0 00000000 		.4byte	0
 10173              	.LLST186:
 10174 17b4 0A000000 		.4byte	.LVL395
 10175 17b8 0C000000 		.4byte	.LVL396
ARM GAS  C:\Users\Reza\AppData\Local\Temp\cckOPwM0.s 			page 203


 10176 17bc 0100     		.2byte	0x1
 10177 17be 50       		.byte	0x50
 10178 17bf 0C000000 		.4byte	.LVL396
 10179 17c3 18000000 		.4byte	.LFE124
 10180 17c7 0100     		.2byte	0x1
 10181 17c9 54       		.byte	0x54
 10182 17ca 00000000 		.4byte	0
 10183 17ce 00000000 		.4byte	0
 10184              	.LLST187:
 10185 17d2 00000000 		.4byte	.LVL399
 10186 17d6 07000000 		.4byte	.LVL400-1
 10187 17da 0100     		.2byte	0x1
 10188 17dc 50       		.byte	0x50
 10189 17dd 07000000 		.4byte	.LVL400-1
 10190 17e1 12000000 		.4byte	.LVL404
 10191 17e5 0100     		.2byte	0x1
 10192 17e7 54       		.byte	0x54
 10193 17e8 12000000 		.4byte	.LVL404
 10194 17ec 1C000000 		.4byte	.LFE125
 10195 17f0 0400     		.2byte	0x4
 10196 17f2 F3       		.byte	0xf3
 10197 17f3 01       		.uleb128 0x1
 10198 17f4 50       		.byte	0x50
 10199 17f5 9F       		.byte	0x9f
 10200 17f6 00000000 		.4byte	0
 10201 17fa 00000000 		.4byte	0
 10202              	.LLST188:
 10203 17fe 12000000 		.4byte	.LVL404
 10204 1802 14000000 		.4byte	.LVL405
 10205 1806 0100     		.2byte	0x1
 10206 1808 50       		.byte	0x50
 10207 1809 14000000 		.4byte	.LVL405
 10208 180d 1C000000 		.4byte	.LFE125
 10209 1811 0100     		.2byte	0x1
 10210 1813 54       		.byte	0x54
 10211 1814 00000000 		.4byte	0
 10212 1818 00000000 		.4byte	0
 10213              	.LLST189:
 10214 181c 0A000000 		.4byte	.LVL401
 10215 1820 0C000000 		.4byte	.LVL402
 10216 1824 0100     		.2byte	0x1
 10217 1826 50       		.byte	0x50
 10218 1827 0C000000 		.4byte	.LVL402
 10219 182b 1C000000 		.4byte	.LFE125
 10220 182f 0100     		.2byte	0x1
 10221 1831 55       		.byte	0x55
 10222 1832 00000000 		.4byte	0
 10223 1836 00000000 		.4byte	0
 10224              	.LLST190:
 10225 183a 00000000 		.4byte	.LVL407
 10226 183e 07000000 		.4byte	.LVL408-1
 10227 1842 0100     		.2byte	0x1
 10228 1844 50       		.byte	0x50
 10229 1845 07000000 		.4byte	.LVL408-1
 10230 1849 12000000 		.4byte	.LVL412
 10231 184d 0100     		.2byte	0x1
 10232 184f 54       		.byte	0x54
ARM GAS  C:\Users\Reza\AppData\Local\Temp\cckOPwM0.s 			page 204


 10233 1850 12000000 		.4byte	.LVL412
 10234 1854 1C000000 		.4byte	.LFE126
 10235 1858 0400     		.2byte	0x4
 10236 185a F3       		.byte	0xf3
 10237 185b 01       		.uleb128 0x1
 10238 185c 50       		.byte	0x50
 10239 185d 9F       		.byte	0x9f
 10240 185e 00000000 		.4byte	0
 10241 1862 00000000 		.4byte	0
 10242              	.LLST191:
 10243 1866 12000000 		.4byte	.LVL412
 10244 186a 14000000 		.4byte	.LVL413
 10245 186e 0100     		.2byte	0x1
 10246 1870 50       		.byte	0x50
 10247 1871 14000000 		.4byte	.LVL413
 10248 1875 1C000000 		.4byte	.LFE126
 10249 1879 0100     		.2byte	0x1
 10250 187b 54       		.byte	0x54
 10251 187c 00000000 		.4byte	0
 10252 1880 00000000 		.4byte	0
 10253              	.LLST192:
 10254 1884 0A000000 		.4byte	.LVL409
 10255 1888 0C000000 		.4byte	.LVL410
 10256 188c 0100     		.2byte	0x1
 10257 188e 50       		.byte	0x50
 10258 188f 0C000000 		.4byte	.LVL410
 10259 1893 1C000000 		.4byte	.LFE126
 10260 1897 0100     		.2byte	0x1
 10261 1899 55       		.byte	0x55
 10262 189a 00000000 		.4byte	0
 10263 189e 00000000 		.4byte	0
 10264              	.LLST193:
 10265 18a2 00000000 		.4byte	.LVL415
 10266 18a6 07000000 		.4byte	.LVL416-1
 10267 18aa 0100     		.2byte	0x1
 10268 18ac 50       		.byte	0x50
 10269 18ad 07000000 		.4byte	.LVL416-1
 10270 18b1 12000000 		.4byte	.LVL420
 10271 18b5 0100     		.2byte	0x1
 10272 18b7 54       		.byte	0x54
 10273 18b8 12000000 		.4byte	.LVL420
 10274 18bc 1C000000 		.4byte	.LFE127
 10275 18c0 0400     		.2byte	0x4
 10276 18c2 F3       		.byte	0xf3
 10277 18c3 01       		.uleb128 0x1
 10278 18c4 50       		.byte	0x50
 10279 18c5 9F       		.byte	0x9f
 10280 18c6 00000000 		.4byte	0
 10281 18ca 00000000 		.4byte	0
 10282              	.LLST194:
 10283 18ce 12000000 		.4byte	.LVL420
 10284 18d2 14000000 		.4byte	.LVL421
 10285 18d6 0100     		.2byte	0x1
 10286 18d8 50       		.byte	0x50
 10287 18d9 14000000 		.4byte	.LVL421
 10288 18dd 1C000000 		.4byte	.LFE127
 10289 18e1 0100     		.2byte	0x1
ARM GAS  C:\Users\Reza\AppData\Local\Temp\cckOPwM0.s 			page 205


 10290 18e3 54       		.byte	0x54
 10291 18e4 00000000 		.4byte	0
 10292 18e8 00000000 		.4byte	0
 10293              	.LLST195:
 10294 18ec 0A000000 		.4byte	.LVL417
 10295 18f0 0C000000 		.4byte	.LVL418
 10296 18f4 0100     		.2byte	0x1
 10297 18f6 50       		.byte	0x50
 10298 18f7 0C000000 		.4byte	.LVL418
 10299 18fb 1C000000 		.4byte	.LFE127
 10300 18ff 0100     		.2byte	0x1
 10301 1901 55       		.byte	0x55
 10302 1902 00000000 		.4byte	0
 10303 1906 00000000 		.4byte	0
 10304              	.LLST196:
 10305 190a 00000000 		.4byte	.LVL423
 10306 190e 07000000 		.4byte	.LVL424-1
 10307 1912 0100     		.2byte	0x1
 10308 1914 50       		.byte	0x50
 10309 1915 07000000 		.4byte	.LVL424-1
 10310 1919 12000000 		.4byte	.LVL428
 10311 191d 0100     		.2byte	0x1
 10312 191f 54       		.byte	0x54
 10313 1920 12000000 		.4byte	.LVL428
 10314 1924 1C000000 		.4byte	.LFE128
 10315 1928 0400     		.2byte	0x4
 10316 192a F3       		.byte	0xf3
 10317 192b 01       		.uleb128 0x1
 10318 192c 50       		.byte	0x50
 10319 192d 9F       		.byte	0x9f
 10320 192e 00000000 		.4byte	0
 10321 1932 00000000 		.4byte	0
 10322              	.LLST197:
 10323 1936 12000000 		.4byte	.LVL428
 10324 193a 14000000 		.4byte	.LVL429
 10325 193e 0100     		.2byte	0x1
 10326 1940 50       		.byte	0x50
 10327 1941 14000000 		.4byte	.LVL429
 10328 1945 1C000000 		.4byte	.LFE128
 10329 1949 0100     		.2byte	0x1
 10330 194b 54       		.byte	0x54
 10331 194c 00000000 		.4byte	0
 10332 1950 00000000 		.4byte	0
 10333              	.LLST198:
 10334 1954 0A000000 		.4byte	.LVL425
 10335 1958 0C000000 		.4byte	.LVL426
 10336 195c 0100     		.2byte	0x1
 10337 195e 50       		.byte	0x50
 10338 195f 0C000000 		.4byte	.LVL426
 10339 1963 1C000000 		.4byte	.LFE128
 10340 1967 0100     		.2byte	0x1
 10341 1969 55       		.byte	0x55
 10342 196a 00000000 		.4byte	0
 10343 196e 00000000 		.4byte	0
 10344              	.LLST199:
 10345 1972 00000000 		.4byte	.LVL431
 10346 1976 07000000 		.4byte	.LVL432-1
ARM GAS  C:\Users\Reza\AppData\Local\Temp\cckOPwM0.s 			page 206


 10347 197a 0100     		.2byte	0x1
 10348 197c 50       		.byte	0x50
 10349 197d 07000000 		.4byte	.LVL432-1
 10350 1981 12000000 		.4byte	.LVL436
 10351 1985 0100     		.2byte	0x1
 10352 1987 54       		.byte	0x54
 10353 1988 12000000 		.4byte	.LVL436
 10354 198c 1C000000 		.4byte	.LFE129
 10355 1990 0400     		.2byte	0x4
 10356 1992 F3       		.byte	0xf3
 10357 1993 01       		.uleb128 0x1
 10358 1994 50       		.byte	0x50
 10359 1995 9F       		.byte	0x9f
 10360 1996 00000000 		.4byte	0
 10361 199a 00000000 		.4byte	0
 10362              	.LLST200:
 10363 199e 12000000 		.4byte	.LVL436
 10364 19a2 14000000 		.4byte	.LVL437
 10365 19a6 0100     		.2byte	0x1
 10366 19a8 50       		.byte	0x50
 10367 19a9 14000000 		.4byte	.LVL437
 10368 19ad 1C000000 		.4byte	.LFE129
 10369 19b1 0100     		.2byte	0x1
 10370 19b3 54       		.byte	0x54
 10371 19b4 00000000 		.4byte	0
 10372 19b8 00000000 		.4byte	0
 10373              	.LLST201:
 10374 19bc 0A000000 		.4byte	.LVL433
 10375 19c0 0C000000 		.4byte	.LVL434
 10376 19c4 0100     		.2byte	0x1
 10377 19c6 50       		.byte	0x50
 10378 19c7 0C000000 		.4byte	.LVL434
 10379 19cb 1C000000 		.4byte	.LFE129
 10380 19cf 0100     		.2byte	0x1
 10381 19d1 55       		.byte	0x55
 10382 19d2 00000000 		.4byte	0
 10383 19d6 00000000 		.4byte	0
 10384              	.LLST202:
 10385 19da 00000000 		.4byte	.LVL439
 10386 19de 09000000 		.4byte	.LVL440-1
 10387 19e2 0100     		.2byte	0x1
 10388 19e4 50       		.byte	0x50
 10389 19e5 09000000 		.4byte	.LVL440-1
 10390 19e9 16000000 		.4byte	.LVL444
 10391 19ed 0100     		.2byte	0x1
 10392 19ef 54       		.byte	0x54
 10393 19f0 16000000 		.4byte	.LVL444
 10394 19f4 20000000 		.4byte	.LFE130
 10395 19f8 0400     		.2byte	0x4
 10396 19fa F3       		.byte	0xf3
 10397 19fb 01       		.uleb128 0x1
 10398 19fc 50       		.byte	0x50
 10399 19fd 9F       		.byte	0x9f
 10400 19fe 00000000 		.4byte	0
 10401 1a02 00000000 		.4byte	0
 10402              	.LLST203:
 10403 1a06 00000000 		.4byte	.LVL439
ARM GAS  C:\Users\Reza\AppData\Local\Temp\cckOPwM0.s 			page 207


 10404 1a0a 09000000 		.4byte	.LVL440-1
 10405 1a0e 0100     		.2byte	0x1
 10406 1a10 51       		.byte	0x51
 10407 1a11 09000000 		.4byte	.LVL440-1
 10408 1a15 20000000 		.4byte	.LFE130
 10409 1a19 0100     		.2byte	0x1
 10410 1a1b 56       		.byte	0x56
 10411 1a1c 00000000 		.4byte	0
 10412 1a20 00000000 		.4byte	0
 10413              	.LLST204:
 10414 1a24 16000000 		.4byte	.LVL444
 10415 1a28 18000000 		.4byte	.LVL445
 10416 1a2c 0100     		.2byte	0x1
 10417 1a2e 50       		.byte	0x50
 10418 1a2f 18000000 		.4byte	.LVL445
 10419 1a33 20000000 		.4byte	.LFE130
 10420 1a37 0100     		.2byte	0x1
 10421 1a39 54       		.byte	0x54
 10422 1a3a 00000000 		.4byte	0
 10423 1a3e 00000000 		.4byte	0
 10424              	.LLST205:
 10425 1a42 0C000000 		.4byte	.LVL441
 10426 1a46 10000000 		.4byte	.LVL442
 10427 1a4a 0100     		.2byte	0x1
 10428 1a4c 50       		.byte	0x50
 10429 1a4d 10000000 		.4byte	.LVL442
 10430 1a51 20000000 		.4byte	.LFE130
 10431 1a55 0100     		.2byte	0x1
 10432 1a57 55       		.byte	0x55
 10433 1a58 00000000 		.4byte	0
 10434 1a5c 00000000 		.4byte	0
 10435              	.LLST206:
 10436 1a60 00000000 		.4byte	.LVL447
 10437 1a64 0B000000 		.4byte	.LVL448-1
 10438 1a68 0100     		.2byte	0x1
 10439 1a6a 50       		.byte	0x50
 10440 1a6b 0B000000 		.4byte	.LVL448-1
 10441 1a6f 1A000000 		.4byte	.LVL452
 10442 1a73 0100     		.2byte	0x1
 10443 1a75 54       		.byte	0x54
 10444 1a76 1A000000 		.4byte	.LVL452
 10445 1a7a 24000000 		.4byte	.LFE131
 10446 1a7e 0400     		.2byte	0x4
 10447 1a80 F3       		.byte	0xf3
 10448 1a81 01       		.uleb128 0x1
 10449 1a82 50       		.byte	0x50
 10450 1a83 9F       		.byte	0x9f
 10451 1a84 00000000 		.4byte	0
 10452 1a88 00000000 		.4byte	0
 10453              	.LLST207:
 10454 1a8c 00000000 		.4byte	.LVL447
 10455 1a90 0B000000 		.4byte	.LVL448-1
 10456 1a94 0100     		.2byte	0x1
 10457 1a96 51       		.byte	0x51
 10458 1a97 0B000000 		.4byte	.LVL448-1
 10459 1a9b 24000000 		.4byte	.LFE131
 10460 1a9f 0100     		.2byte	0x1
ARM GAS  C:\Users\Reza\AppData\Local\Temp\cckOPwM0.s 			page 208


 10461 1aa1 56       		.byte	0x56
 10462 1aa2 00000000 		.4byte	0
 10463 1aa6 00000000 		.4byte	0
 10464              	.LLST208:
 10465 1aaa 00000000 		.4byte	.LVL447
 10466 1aae 0B000000 		.4byte	.LVL448-1
 10467 1ab2 0100     		.2byte	0x1
 10468 1ab4 52       		.byte	0x52
 10469 1ab5 0B000000 		.4byte	.LVL448-1
 10470 1ab9 24000000 		.4byte	.LFE131
 10471 1abd 0100     		.2byte	0x1
 10472 1abf 57       		.byte	0x57
 10473 1ac0 00000000 		.4byte	0
 10474 1ac4 00000000 		.4byte	0
 10475              	.LLST209:
 10476 1ac8 1A000000 		.4byte	.LVL452
 10477 1acc 1C000000 		.4byte	.LVL453
 10478 1ad0 0100     		.2byte	0x1
 10479 1ad2 50       		.byte	0x50
 10480 1ad3 1C000000 		.4byte	.LVL453
 10481 1ad7 24000000 		.4byte	.LFE131
 10482 1adb 0100     		.2byte	0x1
 10483 1add 54       		.byte	0x54
 10484 1ade 00000000 		.4byte	0
 10485 1ae2 00000000 		.4byte	0
 10486              	.LLST210:
 10487 1ae6 0E000000 		.4byte	.LVL449
 10488 1aea 14000000 		.4byte	.LVL450
 10489 1aee 0100     		.2byte	0x1
 10490 1af0 50       		.byte	0x50
 10491 1af1 14000000 		.4byte	.LVL450
 10492 1af5 24000000 		.4byte	.LFE131
 10493 1af9 0100     		.2byte	0x1
 10494 1afb 55       		.byte	0x55
 10495 1afc 00000000 		.4byte	0
 10496 1b00 00000000 		.4byte	0
 10497              		.section	.debug_aranges,"",%progbits
 10498 0000 14020000 		.4byte	0x214
 10499 0004 0200     		.2byte	0x2
 10500 0006 00000000 		.4byte	.Ldebug_info0
 10501 000a 04       		.byte	0x4
 10502 000b 00       		.byte	0
 10503 000c 0000     		.2byte	0
 10504 000e 0000     		.2byte	0
 10505 0010 00000000 		.4byte	.LFB68
 10506 0014 14000000 		.4byte	.LFE68-.LFB68
 10507 0018 00000000 		.4byte	.LFB69
 10508 001c 0E000000 		.4byte	.LFE69-.LFB69
 10509 0020 00000000 		.4byte	.LFB70
 10510 0024 20000000 		.4byte	.LFE70-.LFB70
 10511 0028 00000000 		.4byte	.LFB71
 10512 002c 38000000 		.4byte	.LFE71-.LFB71
 10513 0030 00000000 		.4byte	.LFB72
 10514 0034 1C000000 		.4byte	.LFE72-.LFB72
 10515 0038 00000000 		.4byte	.LFB73
 10516 003c 18000000 		.4byte	.LFE73-.LFB73
 10517 0040 00000000 		.4byte	.LFB74
ARM GAS  C:\Users\Reza\AppData\Local\Temp\cckOPwM0.s 			page 209


 10518 0044 1C000000 		.4byte	.LFE74-.LFB74
 10519 0048 00000000 		.4byte	.LFB75
 10520 004c 18000000 		.4byte	.LFE75-.LFB75
 10521 0050 00000000 		.4byte	.LFB76
 10522 0054 1C000000 		.4byte	.LFE76-.LFB76
 10523 0058 00000000 		.4byte	.LFB77
 10524 005c 1C000000 		.4byte	.LFE77-.LFB77
 10525 0060 00000000 		.4byte	.LFB78
 10526 0064 1C000000 		.4byte	.LFE78-.LFB78
 10527 0068 00000000 		.4byte	.LFB79
 10528 006c 18000000 		.4byte	.LFE79-.LFB79
 10529 0070 00000000 		.4byte	.LFB80
 10530 0074 18000000 		.4byte	.LFE80-.LFB80
 10531 0078 00000000 		.4byte	.LFB81
 10532 007c 14000000 		.4byte	.LFE81-.LFB81
 10533 0080 00000000 		.4byte	.LFB82
 10534 0084 18000000 		.4byte	.LFE82-.LFB82
 10535 0088 00000000 		.4byte	.LFB83
 10536 008c 18000000 		.4byte	.LFE83-.LFB83
 10537 0090 00000000 		.4byte	.LFB84
 10538 0094 18000000 		.4byte	.LFE84-.LFB84
 10539 0098 00000000 		.4byte	.LFB85
 10540 009c 1C000000 		.4byte	.LFE85-.LFB85
 10541 00a0 00000000 		.4byte	.LFB86
 10542 00a4 1C000000 		.4byte	.LFE86-.LFB86
 10543 00a8 00000000 		.4byte	.LFB87
 10544 00ac 1C000000 		.4byte	.LFE87-.LFB87
 10545 00b0 00000000 		.4byte	.LFB88
 10546 00b4 18000000 		.4byte	.LFE88-.LFB88
 10547 00b8 00000000 		.4byte	.LFB89
 10548 00bc 20000000 		.4byte	.LFE89-.LFB89
 10549 00c0 00000000 		.4byte	.LFB90
 10550 00c4 2C000000 		.4byte	.LFE90-.LFB90
 10551 00c8 00000000 		.4byte	.LFB91
 10552 00cc 2C000000 		.4byte	.LFE91-.LFB91
 10553 00d0 00000000 		.4byte	.LFB92
 10554 00d4 20000000 		.4byte	.LFE92-.LFB92
 10555 00d8 00000000 		.4byte	.LFB93
 10556 00dc 1C000000 		.4byte	.LFE93-.LFB93
 10557 00e0 00000000 		.4byte	.LFB94
 10558 00e4 20000000 		.4byte	.LFE94-.LFB94
 10559 00e8 00000000 		.4byte	.LFB95
 10560 00ec 24000000 		.4byte	.LFE95-.LFB95
 10561 00f0 00000000 		.4byte	.LFB96
 10562 00f4 20000000 		.4byte	.LFE96-.LFB96
 10563 00f8 00000000 		.4byte	.LFB97
 10564 00fc 2C000000 		.4byte	.LFE97-.LFB97
 10565 0100 00000000 		.4byte	.LFB98
 10566 0104 1C000000 		.4byte	.LFE98-.LFB98
 10567 0108 00000000 		.4byte	.LFB99
 10568 010c 1C000000 		.4byte	.LFE99-.LFB99
 10569 0110 00000000 		.4byte	.LFB100
 10570 0114 24000000 		.4byte	.LFE100-.LFB100
 10571 0118 00000000 		.4byte	.LFB101
 10572 011c 24000000 		.4byte	.LFE101-.LFB101
 10573 0120 00000000 		.4byte	.LFB102
 10574 0124 20000000 		.4byte	.LFE102-.LFB102
ARM GAS  C:\Users\Reza\AppData\Local\Temp\cckOPwM0.s 			page 210


 10575 0128 00000000 		.4byte	.LFB103
 10576 012c 1C000000 		.4byte	.LFE103-.LFB103
 10577 0130 00000000 		.4byte	.LFB104
 10578 0134 20000000 		.4byte	.LFE104-.LFB104
 10579 0138 00000000 		.4byte	.LFB105
 10580 013c 20000000 		.4byte	.LFE105-.LFB105
 10581 0140 00000000 		.4byte	.LFB106
 10582 0144 1C000000 		.4byte	.LFE106-.LFB106
 10583 0148 00000000 		.4byte	.LFB107
 10584 014c 1C000000 		.4byte	.LFE107-.LFB107
 10585 0150 00000000 		.4byte	.LFB108
 10586 0154 18000000 		.4byte	.LFE108-.LFB108
 10587 0158 00000000 		.4byte	.LFB109
 10588 015c 1C000000 		.4byte	.LFE109-.LFB109
 10589 0160 00000000 		.4byte	.LFB110
 10590 0164 18000000 		.4byte	.LFE110-.LFB110
 10591 0168 00000000 		.4byte	.LFB111
 10592 016c 1C000000 		.4byte	.LFE111-.LFB111
 10593 0170 00000000 		.4byte	.LFB112
 10594 0174 18000000 		.4byte	.LFE112-.LFB112
 10595 0178 00000000 		.4byte	.LFB113
 10596 017c 14000000 		.4byte	.LFE113-.LFB113
 10597 0180 00000000 		.4byte	.LFB114
 10598 0184 18000000 		.4byte	.LFE114-.LFB114
 10599 0188 00000000 		.4byte	.LFB115
 10600 018c 18000000 		.4byte	.LFE115-.LFB115
 10601 0190 00000000 		.4byte	.LFB116
 10602 0194 34000000 		.4byte	.LFE116-.LFB116
 10603 0198 00000000 		.4byte	.LFB117
 10604 019c 20000000 		.4byte	.LFE117-.LFB117
 10605 01a0 00000000 		.4byte	.LFB118
 10606 01a4 20000000 		.4byte	.LFE118-.LFB118
 10607 01a8 00000000 		.4byte	.LFB119
 10608 01ac 2C000000 		.4byte	.LFE119-.LFB119
 10609 01b0 00000000 		.4byte	.LFB120
 10610 01b4 18000000 		.4byte	.LFE120-.LFB120
 10611 01b8 00000000 		.4byte	.LFB121
 10612 01bc 2C000000 		.4byte	.LFE121-.LFB121
 10613 01c0 00000000 		.4byte	.LFB122
 10614 01c4 1C000000 		.4byte	.LFE122-.LFB122
 10615 01c8 00000000 		.4byte	.LFB123
 10616 01cc 2C000000 		.4byte	.LFE123-.LFB123
 10617 01d0 00000000 		.4byte	.LFB124
 10618 01d4 18000000 		.4byte	.LFE124-.LFB124
 10619 01d8 00000000 		.4byte	.LFB125
 10620 01dc 1C000000 		.4byte	.LFE125-.LFB125
 10621 01e0 00000000 		.4byte	.LFB126
 10622 01e4 1C000000 		.4byte	.LFE126-.LFB126
 10623 01e8 00000000 		.4byte	.LFB127
 10624 01ec 1C000000 		.4byte	.LFE127-.LFB127
 10625 01f0 00000000 		.4byte	.LFB128
 10626 01f4 1C000000 		.4byte	.LFE128-.LFB128
 10627 01f8 00000000 		.4byte	.LFB129
 10628 01fc 1C000000 		.4byte	.LFE129-.LFB129
 10629 0200 00000000 		.4byte	.LFB130
 10630 0204 20000000 		.4byte	.LFE130-.LFB130
 10631 0208 00000000 		.4byte	.LFB131
ARM GAS  C:\Users\Reza\AppData\Local\Temp\cckOPwM0.s 			page 211


 10632 020c 24000000 		.4byte	.LFE131-.LFB131
 10633 0210 00000000 		.4byte	0
 10634 0214 00000000 		.4byte	0
 10635              		.section	.debug_ranges,"",%progbits
 10636              	.Ldebug_ranges0:
 10637 0000 00000000 		.4byte	.LFB68
 10638 0004 14000000 		.4byte	.LFE68
 10639 0008 00000000 		.4byte	.LFB69
 10640 000c 0E000000 		.4byte	.LFE69
 10641 0010 00000000 		.4byte	.LFB70
 10642 0014 20000000 		.4byte	.LFE70
 10643 0018 00000000 		.4byte	.LFB71
 10644 001c 38000000 		.4byte	.LFE71
 10645 0020 00000000 		.4byte	.LFB72
 10646 0024 1C000000 		.4byte	.LFE72
 10647 0028 00000000 		.4byte	.LFB73
 10648 002c 18000000 		.4byte	.LFE73
 10649 0030 00000000 		.4byte	.LFB74
 10650 0034 1C000000 		.4byte	.LFE74
 10651 0038 00000000 		.4byte	.LFB75
 10652 003c 18000000 		.4byte	.LFE75
 10653 0040 00000000 		.4byte	.LFB76
 10654 0044 1C000000 		.4byte	.LFE76
 10655 0048 00000000 		.4byte	.LFB77
 10656 004c 1C000000 		.4byte	.LFE77
 10657 0050 00000000 		.4byte	.LFB78
 10658 0054 1C000000 		.4byte	.LFE78
 10659 0058 00000000 		.4byte	.LFB79
 10660 005c 18000000 		.4byte	.LFE79
 10661 0060 00000000 		.4byte	.LFB80
 10662 0064 18000000 		.4byte	.LFE80
 10663 0068 00000000 		.4byte	.LFB81
 10664 006c 14000000 		.4byte	.LFE81
 10665 0070 00000000 		.4byte	.LFB82
 10666 0074 18000000 		.4byte	.LFE82
 10667 0078 00000000 		.4byte	.LFB83
 10668 007c 18000000 		.4byte	.LFE83
 10669 0080 00000000 		.4byte	.LFB84
 10670 0084 18000000 		.4byte	.LFE84
 10671 0088 00000000 		.4byte	.LFB85
 10672 008c 1C000000 		.4byte	.LFE85
 10673 0090 00000000 		.4byte	.LFB86
 10674 0094 1C000000 		.4byte	.LFE86
 10675 0098 00000000 		.4byte	.LFB87
 10676 009c 1C000000 		.4byte	.LFE87
 10677 00a0 00000000 		.4byte	.LFB88
 10678 00a4 18000000 		.4byte	.LFE88
 10679 00a8 00000000 		.4byte	.LFB89
 10680 00ac 20000000 		.4byte	.LFE89
 10681 00b0 00000000 		.4byte	.LFB90
 10682 00b4 2C000000 		.4byte	.LFE90
 10683 00b8 00000000 		.4byte	.LFB91
 10684 00bc 2C000000 		.4byte	.LFE91
 10685 00c0 00000000 		.4byte	.LFB92
 10686 00c4 20000000 		.4byte	.LFE92
 10687 00c8 00000000 		.4byte	.LFB93
 10688 00cc 1C000000 		.4byte	.LFE93
ARM GAS  C:\Users\Reza\AppData\Local\Temp\cckOPwM0.s 			page 212


 10689 00d0 00000000 		.4byte	.LFB94
 10690 00d4 20000000 		.4byte	.LFE94
 10691 00d8 00000000 		.4byte	.LFB95
 10692 00dc 24000000 		.4byte	.LFE95
 10693 00e0 00000000 		.4byte	.LFB96
 10694 00e4 20000000 		.4byte	.LFE96
 10695 00e8 00000000 		.4byte	.LFB97
 10696 00ec 2C000000 		.4byte	.LFE97
 10697 00f0 00000000 		.4byte	.LFB98
 10698 00f4 1C000000 		.4byte	.LFE98
 10699 00f8 00000000 		.4byte	.LFB99
 10700 00fc 1C000000 		.4byte	.LFE99
 10701 0100 00000000 		.4byte	.LFB100
 10702 0104 24000000 		.4byte	.LFE100
 10703 0108 00000000 		.4byte	.LFB101
 10704 010c 24000000 		.4byte	.LFE101
 10705 0110 00000000 		.4byte	.LFB102
 10706 0114 20000000 		.4byte	.LFE102
 10707 0118 00000000 		.4byte	.LFB103
 10708 011c 1C000000 		.4byte	.LFE103
 10709 0120 00000000 		.4byte	.LFB104
 10710 0124 20000000 		.4byte	.LFE104
 10711 0128 00000000 		.4byte	.LFB105
 10712 012c 20000000 		.4byte	.LFE105
 10713 0130 00000000 		.4byte	.LFB106
 10714 0134 1C000000 		.4byte	.LFE106
 10715 0138 00000000 		.4byte	.LFB107
 10716 013c 1C000000 		.4byte	.LFE107
 10717 0140 00000000 		.4byte	.LFB108
 10718 0144 18000000 		.4byte	.LFE108
 10719 0148 00000000 		.4byte	.LFB109
 10720 014c 1C000000 		.4byte	.LFE109
 10721 0150 00000000 		.4byte	.LFB110
 10722 0154 18000000 		.4byte	.LFE110
 10723 0158 00000000 		.4byte	.LFB111
 10724 015c 1C000000 		.4byte	.LFE111
 10725 0160 00000000 		.4byte	.LFB112
 10726 0164 18000000 		.4byte	.LFE112
 10727 0168 00000000 		.4byte	.LFB113
 10728 016c 14000000 		.4byte	.LFE113
 10729 0170 00000000 		.4byte	.LFB114
 10730 0174 18000000 		.4byte	.LFE114
 10731 0178 00000000 		.4byte	.LFB115
 10732 017c 18000000 		.4byte	.LFE115
 10733 0180 00000000 		.4byte	.LFB116
 10734 0184 34000000 		.4byte	.LFE116
 10735 0188 00000000 		.4byte	.LFB117
 10736 018c 20000000 		.4byte	.LFE117
 10737 0190 00000000 		.4byte	.LFB118
 10738 0194 20000000 		.4byte	.LFE118
 10739 0198 00000000 		.4byte	.LFB119
 10740 019c 2C000000 		.4byte	.LFE119
 10741 01a0 00000000 		.4byte	.LFB120
 10742 01a4 18000000 		.4byte	.LFE120
 10743 01a8 00000000 		.4byte	.LFB121
 10744 01ac 2C000000 		.4byte	.LFE121
 10745 01b0 00000000 		.4byte	.LFB122
ARM GAS  C:\Users\Reza\AppData\Local\Temp\cckOPwM0.s 			page 213


 10746 01b4 1C000000 		.4byte	.LFE122
 10747 01b8 00000000 		.4byte	.LFB123
 10748 01bc 2C000000 		.4byte	.LFE123
 10749 01c0 00000000 		.4byte	.LFB124
 10750 01c4 18000000 		.4byte	.LFE124
 10751 01c8 00000000 		.4byte	.LFB125
 10752 01cc 1C000000 		.4byte	.LFE125
 10753 01d0 00000000 		.4byte	.LFB126
 10754 01d4 1C000000 		.4byte	.LFE126
 10755 01d8 00000000 		.4byte	.LFB127
 10756 01dc 1C000000 		.4byte	.LFE127
 10757 01e0 00000000 		.4byte	.LFB128
 10758 01e4 1C000000 		.4byte	.LFE128
 10759 01e8 00000000 		.4byte	.LFB129
 10760 01ec 1C000000 		.4byte	.LFE129
 10761 01f0 00000000 		.4byte	.LFB130
 10762 01f4 20000000 		.4byte	.LFE130
 10763 01f8 00000000 		.4byte	.LFB131
 10764 01fc 24000000 		.4byte	.LFE131
 10765 0200 00000000 		.4byte	0
 10766 0204 00000000 		.4byte	0
 10767              		.section	.debug_line,"",%progbits
 10768              	.Ldebug_line0:
 10769 0000 58070000 		.section	.debug_str,"MS",%progbits,1
 10769      02006402 
 10769      00000201 
 10769      FB0E0D00 
 10769      01010101 
 10770              	.LASF82:
 10771 0000 4D50555F 		.ascii	"MPU_vTaskDelete\000"
 10771      76546173 
 10771      6B44656C 
 10771      65746500 
 10772              	.LASF139:
 10773 0010 70764974 		.ascii	"pvItemToQueue\000"
 10773      656D546F 
 10773      51756575 
 10773      6500
 10774              	.LASF4:
 10775 001e 73697A65 		.ascii	"size_t\000"
 10775      5F7400
 10776              	.LASF22:
 10777 0025 73697A65 		.ascii	"sizetype\000"
 10777      74797065 
 10777      00
 10778              	.LASF180:
 10779 002e 78446174 		.ascii	"xDataLengthBytes\000"
 10779      614C656E 
 10779      67746842 
 10779      79746573 
 10779      00
 10780              	.LASF239:
 10781 003f 76506F72 		.ascii	"vPortInitialiseBlocks\000"
 10781      74496E69 
 10781      7469616C 
 10781      69736542 
 10781      6C6F636B 
ARM GAS  C:\Users\Reza\AppData\Local\Temp\cckOPwM0.s 			page 214


 10782              	.LASF130:
 10783 0055 4D50555F 		.ascii	"MPU_xQueueGenericCreate\000"
 10783      78517565 
 10783      75654765 
 10783      6E657269 
 10783      63437265 
 10784              	.LASF127:
 10785 006d 4D50555F 		.ascii	"MPU_xTaskNotifyStateClear\000"
 10785      78546173 
 10785      6B4E6F74 
 10785      69667953 
 10785      74617465 
 10786              	.LASF54:
 10787 0087 75735374 		.ascii	"usStackDepth\000"
 10787      61636B44 
 10787      65707468 
 10787      00
 10788              	.LASF63:
 10789 0094 4576656E 		.ascii	"EventGroupHandle_t\000"
 10789      7447726F 
 10789      75704861 
 10789      6E646C65 
 10789      5F7400
 10790              	.LASF168:
 10791 00a7 75784269 		.ascii	"uxBitsToWaitFor\000"
 10791      7473546F 
 10791      57616974 
 10791      466F7200 
 10792              	.LASF88:
 10793 00b7 78546963 		.ascii	"xTicksToDelay\000"
 10793      6B73546F 
 10793      44656C61 
 10793      7900
 10794              	.LASF153:
 10795 00c5 78426C6F 		.ascii	"xBlockTime\000"
 10795      636B5469 
 10795      6D6500
 10796              	.LASF50:
 10797 00d0 4D656D6F 		.ascii	"MemoryRegion_t\000"
 10797      72795265 
 10797      67696F6E 
 10797      5F7400
 10798              	.LASF17:
 10799 00df 696E7433 		.ascii	"int32_t\000"
 10799      325F7400 
 10800              	.LASF35:
 10801 00e7 65546173 		.ascii	"eTaskState\000"
 10801      6B537461 
 10801      746500
 10802              	.LASF240:
 10803 00f2 78506F72 		.ascii	"xPortGetFreeHeapSize\000"
 10803      74476574 
 10803      46726565 
 10803      48656170 
 10803      53697A65 
 10804              	.LASF45:
 10805 0107 7854494D 		.ascii	"xTIME_OUT\000"
ARM GAS  C:\Users\Reza\AppData\Local\Temp\cckOPwM0.s 			page 215


 10805      455F4F55 
 10805      5400
 10806              	.LASF177:
 10807 0111 4D50555F 		.ascii	"MPU_xStreamBufferSend\000"
 10807      78537472 
 10807      65616D42 
 10807      75666665 
 10807      7253656E 
 10808              	.LASF96:
 10809 0127 4D50555F 		.ascii	"MPU_vTaskSuspend\000"
 10809      76546173 
 10809      6B537573 
 10809      70656E64 
 10809      00
 10810              	.LASF216:
 10811 0138 78546173 		.ascii	"xTaskGenericNotify\000"
 10811      6B47656E 
 10811      65726963 
 10811      4E6F7469 
 10811      667900
 10812              	.LASF25:
 10813 014b 42617365 		.ascii	"BaseType_t\000"
 10813      54797065 
 10813      5F7400
 10814              	.LASF33:
 10815 0156 6544656C 		.ascii	"eDeleted\000"
 10815      65746564 
 10815      00
 10816              	.LASF89:
 10817 015f 4D50555F 		.ascii	"MPU_uxTaskPriorityGet\000"
 10817      75785461 
 10817      736B5072 
 10817      696F7269 
 10817      74794765 
 10818              	.LASF87:
 10819 0175 4D50555F 		.ascii	"MPU_vTaskDelay\000"
 10819      76546173 
 10819      6B44656C 
 10819      617900
 10820              	.LASF206:
 10821 0184 76546173 		.ascii	"vTaskResume\000"
 10821      6B526573 
 10821      756D6500 
 10822              	.LASF210:
 10823 0190 75785461 		.ascii	"uxTaskGetNumberOfTasks\000"
 10823      736B4765 
 10823      744E756D 
 10823      6265724F 
 10823      66546173 
 10824              	.LASF255:
 10825 01a7 78537472 		.ascii	"xStreamBufferBytesAvailable\000"
 10825      65616D42 
 10825      75666665 
 10825      72427974 
 10825      65734176 
 10826              	.LASF81:
 10827 01c3 78546173 		.ascii	"xTask\000"
ARM GAS  C:\Users\Reza\AppData\Local\Temp\cckOPwM0.s 			page 216


 10827      6B00
 10828              	.LASF91:
 10829 01c9 75785265 		.ascii	"uxReturn\000"
 10829      7475726E 
 10829      00
 10830              	.LASF165:
 10831 01d2 4D50555F 		.ascii	"MPU_xEventGroupCreate\000"
 10831      78457665 
 10831      6E744772 
 10831      6F757043 
 10831      72656174 
 10832              	.LASF184:
 10833 01e8 78427566 		.ascii	"xBufferLengthBytes\000"
 10833      6665724C 
 10833      656E6774 
 10833      68427974 
 10833      657300
 10834              	.LASF131:
 10835 01fb 75785175 		.ascii	"uxQueueLength\000"
 10835      6575654C 
 10835      656E6774 
 10835      6800
 10836              	.LASF110:
 10837 0209 4D50555F 		.ascii	"MPU_vTaskSetTimeOutState\000"
 10837      76546173 
 10837      6B536574 
 10837      54696D65 
 10837      4F757453 
 10838              	.LASF232:
 10839 0222 78517565 		.ascii	"xQueueGiveMutexRecursive\000"
 10839      75654769 
 10839      76654D75 
 10839      74657852 
 10839      65637572 
 10840              	.LASF5:
 10841 023b 5F5F7569 		.ascii	"__uint8_t\000"
 10841      6E74385F 
 10841      7400
 10842              	.LASF119:
 10843 0245 4D50555F 		.ascii	"MPU_xTaskNotifyWait\000"
 10843      78546173 
 10843      6B4E6F74 
 10843      69667957 
 10843      61697400 
 10844              	.LASF254:
 10845 0259 78537472 		.ascii	"xStreamBufferSpacesAvailable\000"
 10845      65616D42 
 10845      75666665 
 10845      72537061 
 10845      63657341 
 10846              	.LASF11:
 10847 0276 6C6F6E67 		.ascii	"long int\000"
 10847      20696E74 
 10847      00
 10848              	.LASF257:
 10849 027f 78537472 		.ascii	"xStreamBufferGenericCreate\000"
 10849      65616D42 
ARM GAS  C:\Users\Reza\AppData\Local\Temp\cckOPwM0.s 			page 217


 10849      75666665 
 10849      7247656E 
 10849      65726963 
 10850              	.LASF62:
 10851 029a 51756575 		.ascii	"QueueDefinition\000"
 10851      65446566 
 10851      696E6974 
 10851      696F6E00 
 10852              	.LASF83:
 10853 02aa 70785461 		.ascii	"pxTaskToDelete\000"
 10853      736B546F 
 10853      44656C65 
 10853      746500
 10854              	.LASF209:
 10855 02b9 78546173 		.ascii	"xTaskGetTickCount\000"
 10855      6B476574 
 10855      5469636B 
 10855      436F756E 
 10855      7400
 10856              	.LASF90:
 10857 02cb 70785461 		.ascii	"pxTask\000"
 10857      736B00
 10858              	.LASF37:
 10859 02d2 65536574 		.ascii	"eSetBits\000"
 10859      42697473 
 10859      00
 10860              	.LASF102:
 10861 02db 4D50555F 		.ascii	"MPU_xTaskGetTickCount\000"
 10861      78546173 
 10861      6B476574 
 10861      5469636B 
 10861      436F756E 
 10862              	.LASF253:
 10863 02f1 78537472 		.ascii	"xStreamBufferReset\000"
 10863      65616D42 
 10863      75666665 
 10863      72526573 
 10863      657400
 10864              	.LASF258:
 10865 0304 474E5520 		.ascii	"GNU C11 5.4.1 20160609 (release) [ARM/embedded-5-br"
 10865      43313120 
 10865      352E342E 
 10865      31203230 
 10865      31363036 
 10866 0337 616E6368 		.ascii	"anch revision 237715] -mcpu=cortex-m3 -mthumb -g -O"
 10866      20726576 
 10866      6973696F 
 10866      6E203233 
 10866      37373135 
 10867 036a 67202D66 		.ascii	"g -ffunction-sections -ffat-lto-objects\000"
 10867      66756E63 
 10867      74696F6E 
 10867      2D736563 
 10867      74696F6E 
 10868              	.LASF245:
 10869 0392 78457665 		.ascii	"xEventGroupSync\000"
 10869      6E744772 
ARM GAS  C:\Users\Reza\AppData\Local\Temp\cckOPwM0.s 			page 218


 10869      6F757053 
 10869      796E6300 
 10870              	.LASF113:
 10871 03a2 70785469 		.ascii	"pxTicksToWait\000"
 10871      636B7354 
 10871      6F576169 
 10871      7400
 10872              	.LASF198:
 10873 03b0 76546173 		.ascii	"vTaskAllocateMPURegions\000"
 10873      6B416C6C 
 10873      6F636174 
 10873      654D5055 
 10873      52656769 
 10874              	.LASF212:
 10875 03c8 78546173 		.ascii	"xTaskCatchUpTicks\000"
 10875      6B436174 
 10875      63685570 
 10875      5469636B 
 10875      7300
 10876              	.LASF53:
 10877 03da 70634E61 		.ascii	"pcName\000"
 10877      6D6500
 10878              	.LASF104:
 10879 03e1 4D50555F 		.ascii	"MPU_pcTaskGetName\000"
 10879      70635461 
 10879      736B4765 
 10879      744E616D 
 10879      6500
 10880              	.LASF237:
 10881 03f3 7076506F 		.ascii	"pvPortMalloc\000"
 10881      72744D61 
 10881      6C6C6F63 
 10881      00
 10882              	.LASF60:
 10883 0400 51756575 		.ascii	"QueueHandle_t\000"
 10883      6548616E 
 10883      646C655F 
 10883      7400
 10884              	.LASF3:
 10885 040e 7369676E 		.ascii	"signed char\000"
 10885      65642063 
 10885      68617200 
 10886              	.LASF32:
 10887 041a 65537573 		.ascii	"eSuspended\000"
 10887      70656E64 
 10887      656400
 10888              	.LASF15:
 10889 0425 75696E74 		.ascii	"uint8_t\000"
 10889      385F7400 
 10890              	.LASF59:
 10891 042d 5461736B 		.ascii	"TaskParameters_t\000"
 10891      50617261 
 10891      6D657465 
 10891      72735F74 
 10891      00
 10892              	.LASF69:
 10893 043e 706F7274 		.ascii	"portRAISE_PRIVILEGE\000"
ARM GAS  C:\Users\Reza\AppData\Local\Temp\cckOPwM0.s 			page 219


 10893      52414953 
 10893      455F5052 
 10893      4956494C 
 10893      45474500 
 10894              	.LASF64:
 10895 0452 4576656E 		.ascii	"EventGroupDef_t\000"
 10895      7447726F 
 10895      75704465 
 10895      665F7400 
 10896              	.LASF122:
 10897 0462 70756C4E 		.ascii	"pulNotificationValue\000"
 10897      6F746966 
 10897      69636174 
 10897      696F6E56 
 10897      616C7565 
 10898              	.LASF6:
 10899 0477 756E7369 		.ascii	"unsigned char\000"
 10899      676E6564 
 10899      20636861 
 10899      7200
 10900              	.LASF106:
 10901 0485 70635265 		.ascii	"pcReturn\000"
 10901      7475726E 
 10901      00
 10902              	.LASF76:
 10903 048e 78526574 		.ascii	"xReturn\000"
 10903      75726E00 
 10904              	.LASF259:
 10905 0496 536F7572 		.ascii	"Source\\bsw\\FreeRTOS\\src\\mpu_wrappers.c\000"
 10905      63655C62 
 10905      73775C46 
 10905      72656552 
 10905      544F535C 
 10906              	.LASF221:
 10907 04bd 78517565 		.ascii	"xQueueGenericCreate\000"
 10907      75654765 
 10907      6E657269 
 10907      63437265 
 10907      61746500 
 10908              	.LASF162:
 10909 04d1 4D50555F 		.ascii	"MPU_vPortFree\000"
 10909      76506F72 
 10909      74467265 
 10909      6500
 10910              	.LASF97:
 10911 04df 70785461 		.ascii	"pxTaskToSuspend\000"
 10911      736B546F 
 10911      53757370 
 10911      656E6400 
 10912              	.LASF43:
 10913 04ef 7854696D 		.ascii	"xTimeOnEntering\000"
 10913      654F6E45 
 10913      6E746572 
 10913      696E6700 
 10914              	.LASF118:
 10915 04ff 70756C50 		.ascii	"pulPreviousNotificationValue\000"
 10915      72657669 
ARM GAS  C:\Users\Reza\AppData\Local\Temp\cckOPwM0.s 			page 220


 10915      6F75734E 
 10915      6F746966 
 10915      69636174 
 10916              	.LASF155:
 10917 051c 4D50555F 		.ascii	"MPU_vQueueAddToRegistry\000"
 10917      76517565 
 10917      75654164 
 10917      64546F52 
 10917      65676973 
 10918              	.LASF229:
 10919 0534 78517565 		.ascii	"xQueueCreateMutex\000"
 10919      75654372 
 10919      65617465 
 10919      4D757465 
 10919      7800
 10920              	.LASF21:
 10921 0546 63686172 		.ascii	"char\000"
 10921      00
 10922              	.LASF222:
 10923 054b 78517565 		.ascii	"xQueueGenericReset\000"
 10923      75654765 
 10923      6E657269 
 10923      63526573 
 10923      657400
 10924              	.LASF68:
 10925 055e 706F7274 		.ascii	"portIS_PRIVILEGED\000"
 10925      49535F50 
 10925      52495649 
 10925      4C454745 
 10925      4400
 10926              	.LASF44:
 10927 0570 54696D65 		.ascii	"TimeOut_t\000"
 10927      4F75745F 
 10927      7400
 10928              	.LASF135:
 10929 057a 70785175 		.ascii	"pxQueue\000"
 10929      65756500 
 10930              	.LASF128:
 10931 0582 4D50555F 		.ascii	"MPU_ulTaskNotifyValueClear\000"
 10931      756C5461 
 10931      736B4E6F 
 10931      74696679 
 10931      56616C75 
 10932              	.LASF234:
 10933 059d 76517565 		.ascii	"vQueueUnregisterQueue\000"
 10933      7565556E 
 10933      72656769 
 10933      73746572 
 10933      51756575 
 10934              	.LASF8:
 10935 05b3 5F5F7569 		.ascii	"__uint16_t\000"
 10935      6E743136 
 10935      5F7400
 10936              	.LASF79:
 10937 05be 76506F72 		.ascii	"vPortResetPrivilege\000"
 10937      74526573 
 10937      65745072 
ARM GAS  C:\Users\Reza\AppData\Local\Temp\cckOPwM0.s 			page 221


 10937      6976696C 
 10937      65676500 
 10938              	.LASF40:
 10939 05d2 65536574 		.ascii	"eSetValueWithoutOverwrite\000"
 10939      56616C75 
 10939      65576974 
 10939      686F7574 
 10939      4F766572 
 10940              	.LASF125:
 10941 05ec 78436C65 		.ascii	"xClearCountOnExit\000"
 10941      6172436F 
 10941      756E744F 
 10941      6E457869 
 10941      7400
 10942              	.LASF114:
 10943 05fe 4D50555F 		.ascii	"MPU_xTaskGenericNotify\000"
 10943      78546173 
 10943      6B47656E 
 10943      65726963 
 10943      4E6F7469 
 10944              	.LASF129:
 10945 0615 756C4269 		.ascii	"ulBitsToClear\000"
 10945      7473546F 
 10945      436C6561 
 10945      7200
 10946              	.LASF199:
 10947 0623 76546173 		.ascii	"vTaskDelete\000"
 10947      6B44656C 
 10947      65746500 
 10948              	.LASF77:
 10949 062f 78546173 		.ascii	"xTaskCreateRestricted\000"
 10949      6B437265 
 10949      61746552 
 10949      65737472 
 10949      69637465 
 10950              	.LASF182:
 10951 0645 4D50555F 		.ascii	"MPU_xStreamBufferReceive\000"
 10951      78537472 
 10951      65616D42 
 10951      75666665 
 10951      72526563 
 10952              	.LASF167:
 10953 065e 78457665 		.ascii	"xEventGroup\000"
 10953      6E744772 
 10953      6F757000 
 10954              	.LASF220:
 10955 066a 756C5461 		.ascii	"ulTaskNotifyValueClear\000"
 10955      736B4E6F 
 10955      74696679 
 10955      56616C75 
 10955      65436C65 
 10956              	.LASF175:
 10957 0681 4D50555F 		.ascii	"MPU_xEventGroupSync\000"
 10957      78457665 
 10957      6E744772 
 10957      6F757053 
 10957      796E6300 
ARM GAS  C:\Users\Reza\AppData\Local\Temp\cckOPwM0.s 			page 222


 10958              	.LASF170:
 10959 0695 78576169 		.ascii	"xWaitForAllBits\000"
 10959      74466F72 
 10959      416C6C42 
 10959      69747300 
 10960              	.LASF183:
 10961 06a5 70765278 		.ascii	"pvRxData\000"
 10961      44617461 
 10961      00
 10962              	.LASF248:
 10963 06ae 78537472 		.ascii	"xStreamBufferNextMessageLengthBytes\000"
 10963      65616D42 
 10963      75666665 
 10963      724E6578 
 10963      744D6573 
 10964              	.LASF188:
 10965 06d2 4D50555F 		.ascii	"MPU_xStreamBufferReset\000"
 10965      78537472 
 10965      65616D42 
 10965      75666665 
 10965      72526573 
 10966              	.LASF236:
 10967 06e9 76517565 		.ascii	"vQueueDelete\000"
 10967      75654465 
 10967      6C657465 
 10967      00
 10968              	.LASF124:
 10969 06f6 4D50555F 		.ascii	"MPU_ulTaskNotifyTake\000"
 10969      756C5461 
 10969      736B4E6F 
 10969      74696679 
 10969      54616B65 
 10970              	.LASF70:
 10971 070b 706F7274 		.ascii	"portRESET_PRIVILEGE\000"
 10971      52455345 
 10971      545F5052 
 10971      4956494C 
 10971      45474500 
 10972              	.LASF132:
 10973 071f 75784974 		.ascii	"uxItemSize\000"
 10973      656D5369 
 10973      7A6500
 10974              	.LASF186:
 10975 072a 4D50555F 		.ascii	"MPU_xStreamBufferIsFull\000"
 10975      78537472 
 10975      65616D42 
 10975      75666665 
 10975      72497346 
 10976              	.LASF147:
 10977 0742 4D50555F 		.ascii	"MPU_xQueueCreateMutex\000"
 10977      78517565 
 10977      75654372 
 10977      65617465 
 10977      4D757465 
 10978              	.LASF227:
 10979 0758 78517565 		.ascii	"xQueuePeek\000"
 10979      75655065 
ARM GAS  C:\Users\Reza\AppData\Local\Temp\cckOPwM0.s 			page 223


 10979      656B00
 10980              	.LASF75:
 10981 0763 70784372 		.ascii	"pxCreatedTask\000"
 10981      65617465 
 10981      64546173 
 10981      6B00
 10982              	.LASF178:
 10983 0771 78537472 		.ascii	"xStreamBuffer\000"
 10983      65616D42 
 10983      75666665 
 10983      7200
 10984              	.LASF150:
 10985 077f 7578496E 		.ascii	"uxInitialCount\000"
 10985      69746961 
 10985      6C436F75 
 10985      6E7400
 10986              	.LASF109:
 10987 078e 4D50555F 		.ascii	"MPU_uxTaskGetStackHighWaterMark\000"
 10987      75785461 
 10987      736B4765 
 10987      74537461 
 10987      636B4869 
 10988              	.LASF47:
 10989 07ae 70764261 		.ascii	"pvBaseAddress\000"
 10989      73654164 
 10989      64726573 
 10989      7300
 10990              	.LASF203:
 10991 07bc 76546173 		.ascii	"vTaskPrioritySet\000"
 10991      6B507269 
 10991      6F726974 
 10991      79536574 
 10991      00
 10992              	.LASF223:
 10993 07cd 78517565 		.ascii	"xQueueGenericSend\000"
 10993      75654765 
 10993      6E657269 
 10993      6353656E 
 10993      6400
 10994              	.LASF42:
 10995 07df 784F7665 		.ascii	"xOverflowCount\000"
 10995      72666C6F 
 10995      77436F75 
 10995      6E7400
 10996              	.LASF195:
 10997 07ee 78547269 		.ascii	"xTriggerLevelBytes\000"
 10997      67676572 
 10997      4C657665 
 10997      6C427974 
 10997      657300
 10998              	.LASF111:
 10999 0801 70785469 		.ascii	"pxTimeOut\000"
 10999      6D654F75 
 10999      7400
 11000              	.LASF30:
 11001 080b 65526561 		.ascii	"eReady\000"
 11001      647900
ARM GAS  C:\Users\Reza\AppData\Local\Temp\cckOPwM0.s 			page 224


 11002              	.LASF13:
 11003 0812 6C6F6E67 		.ascii	"long unsigned int\000"
 11003      20756E73 
 11003      69676E65 
 11003      6420696E 
 11003      7400
 11004              	.LASF214:
 11005 0824 76546173 		.ascii	"vTaskSetTimeOutState\000"
 11005      6B536574 
 11005      54696D65 
 11005      4F757453 
 11005      74617465 
 11006              	.LASF74:
 11007 0839 70785461 		.ascii	"pxTaskDefinition\000"
 11007      736B4465 
 11007      66696E69 
 11007      74696F6E 
 11007      00
 11008              	.LASF211:
 11009 084a 70635461 		.ascii	"pcTaskGetName\000"
 11009      736B4765 
 11009      744E616D 
 11009      6500
 11010              	.LASF160:
 11011 0858 7853697A 		.ascii	"xSize\000"
 11011      6500
 11012              	.LASF46:
 11013 085e 784D454D 		.ascii	"xMEMORY_REGION\000"
 11013      4F52595F 
 11013      52454749 
 11013      4F4E00
 11014              	.LASF246:
 11015 086d 76457665 		.ascii	"vEventGroupDelete\000"
 11015      6E744772 
 11015      6F757044 
 11015      656C6574 
 11015      6500
 11016              	.LASF226:
 11017 087f 78517565 		.ascii	"xQueueReceive\000"
 11017      75655265 
 11017      63656976 
 11017      6500
 11018              	.LASF157:
 11019 088d 4D50555F 		.ascii	"MPU_pcQueueGetName\000"
 11019      70635175 
 11019      65756547 
 11019      65744E61 
 11019      6D6500
 11020              	.LASF215:
 11021 08a0 78546173 		.ascii	"xTaskCheckForTimeOut\000"
 11021      6B436865 
 11021      636B466F 
 11021      7254696D 
 11021      654F7574 
 11022              	.LASF98:
 11023 08b5 4D50555F 		.ascii	"MPU_vTaskResume\000"
 11023      76546173 
ARM GAS  C:\Users\Reza\AppData\Local\Temp\cckOPwM0.s 			page 225


 11023      6B526573 
 11023      756D6500 
 11024              	.LASF185:
 11025 08c5 4D50555F 		.ascii	"MPU_vStreamBufferDelete\000"
 11025      76537472 
 11025      65616D42 
 11025      75666665 
 11025      7244656C 
 11026              	.LASF112:
 11027 08dd 4D50555F 		.ascii	"MPU_xTaskCheckForTimeOut\000"
 11027      78546173 
 11027      6B436865 
 11027      636B466F 
 11027      7254696D 
 11028              	.LASF243:
 11029 08f6 78457665 		.ascii	"xEventGroupClearBits\000"
 11029      6E744772 
 11029      6F757043 
 11029      6C656172 
 11029      42697473 
 11030              	.LASF169:
 11031 090b 78436C65 		.ascii	"xClearOnExit\000"
 11031      61724F6E 
 11031      45786974 
 11031      00
 11032              	.LASF191:
 11033 0918 4D50555F 		.ascii	"MPU_xStreamBufferSetTriggerLevel\000"
 11033      78537472 
 11033      65616D42 
 11033      75666665 
 11033      72536574 
 11034              	.LASF171:
 11035 0939 4D50555F 		.ascii	"MPU_xEventGroupClearBits\000"
 11035      78457665 
 11035      6E744772 
 11035      6F757043 
 11035      6C656172 
 11036              	.LASF244:
 11037 0952 78457665 		.ascii	"xEventGroupSetBits\000"
 11037      6E744772 
 11037      6F757053 
 11037      65744269 
 11037      747300
 11038              	.LASF233:
 11039 0965 76517565 		.ascii	"vQueueAddToRegistry\000"
 11039      75654164 
 11039      64546F52 
 11039      65676973 
 11039      74727900 
 11040              	.LASF12:
 11041 0979 5F5F7569 		.ascii	"__uint32_t\000"
 11041      6E743332 
 11041      5F7400
 11042              	.LASF94:
 11043 0984 4D50555F 		.ascii	"MPU_eTaskGetState\000"
 11043      65546173 
 11043      6B476574 
ARM GAS  C:\Users\Reza\AppData\Local\Temp\cckOPwM0.s 			page 226


 11043      53746174 
 11043      6500
 11044              	.LASF1:
 11045 0996 6C6F6E67 		.ascii	"long long int\000"
 11045      206C6F6E 
 11045      6720696E 
 11045      7400
 11046              	.LASF137:
 11047 09a4 4D50555F 		.ascii	"MPU_xQueueGenericSend\000"
 11047      78517565 
 11047      75654765 
 11047      6E657269 
 11047      6353656E 
 11048              	.LASF161:
 11049 09ba 70765265 		.ascii	"pvReturn\000"
 11049      7475726E 
 11049      00
 11050              	.LASF65:
 11051 09c3 4576656E 		.ascii	"EventBits_t\000"
 11051      74426974 
 11051      735F7400 
 11052              	.LASF134:
 11053 09cf 4D50555F 		.ascii	"MPU_xQueueGenericReset\000"
 11053      78517565 
 11053      75654765 
 11053      6E657269 
 11053      63526573 
 11054              	.LASF172:
 11055 09e6 75784269 		.ascii	"uxBitsToClear\000"
 11055      7473546F 
 11055      436C6561 
 11055      7200
 11056              	.LASF20:
 11057 09f4 646F7562 		.ascii	"double\000"
 11057      6C6500
 11058              	.LASF141:
 11059 09fb 4D50555F 		.ascii	"MPU_uxQueueMessagesWaiting\000"
 11059      75785175 
 11059      6575654D 
 11059      65737361 
 11059      67657357 
 11060              	.LASF140:
 11061 0a16 78436F70 		.ascii	"xCopyPosition\000"
 11061      79506F73 
 11061      6974696F 
 11061      6E00
 11062              	.LASF146:
 11063 0a24 4D50555F 		.ascii	"MPU_xQueueSemaphoreTake\000"
 11063      78517565 
 11063      75655365 
 11063      6D617068 
 11063      6F726554 
 11064              	.LASF133:
 11065 0a3c 75635175 		.ascii	"ucQueueType\000"
 11065      65756554 
 11065      79706500 
 11066              	.LASF80:
ARM GAS  C:\Users\Reza\AppData\Local\Temp\cckOPwM0.s 			page 227


 11067 0a48 4D50555F 		.ascii	"MPU_vTaskAllocateMPURegions\000"
 11067      76546173 
 11067      6B416C6C 
 11067      6F636174 
 11067      654D5055 
 11068              	.LASF151:
 11069 0a64 4D50555F 		.ascii	"MPU_xQueueTakeMutexRecursive\000"
 11069      78517565 
 11069      75655461 
 11069      6B654D75 
 11069      74657852 
 11070              	.LASF261:
 11071 0a81 49544D5F 		.ascii	"ITM_RxBuffer\000"
 11071      52784275 
 11071      66666572 
 11071      00
 11072              	.LASF48:
 11073 0a8e 756C4C65 		.ascii	"ulLengthInBytes\000"
 11073      6E677468 
 11073      496E4279 
 11073      74657300 
 11074              	.LASF103:
 11075 0a9e 4D50555F 		.ascii	"MPU_uxTaskGetNumberOfTasks\000"
 11075      75785461 
 11075      736B4765 
 11075      744E756D 
 11075      6265724F 
 11076              	.LASF19:
 11077 0ab9 666C6F61 		.ascii	"float\000"
 11077      7400
 11078              	.LASF100:
 11079 0abf 4D50555F 		.ascii	"MPU_vTaskSuspendAll\000"
 11079      76546173 
 11079      6B537573 
 11079      70656E64 
 11079      416C6C00 
 11080              	.LASF29:
 11081 0ad3 6552756E 		.ascii	"eRunning\000"
 11081      6E696E67 
 11081      00
 11082              	.LASF23:
 11083 0adc 5461736B 		.ascii	"TaskFunction_t\000"
 11083      46756E63 
 11083      74696F6E 
 11083      5F7400
 11084              	.LASF189:
 11085 0aeb 4D50555F 		.ascii	"MPU_xStreamBufferSpacesAvailable\000"
 11085      78537472 
 11085      65616D42 
 11085      75666665 
 11085      72537061 
 11086              	.LASF190:
 11087 0b0c 4D50555F 		.ascii	"MPU_xStreamBufferBytesAvailable\000"
 11087      78537472 
 11087      65616D42 
 11087      75666665 
 11087      72427974 
ARM GAS  C:\Users\Reza\AppData\Local\Temp\cckOPwM0.s 			page 228


 11088              	.LASF156:
 11089 0b2c 4D50555F 		.ascii	"MPU_vQueueUnregisterQueue\000"
 11089      76517565 
 11089      7565556E 
 11089      72656769 
 11089      73746572 
 11090              	.LASF108:
 11091 0b46 78546963 		.ascii	"xTicksToCatchUp\000"
 11091      6B73546F 
 11091      43617463 
 11091      68557000 
 11092              	.LASF0:
 11093 0b56 756E7369 		.ascii	"unsigned int\000"
 11093      676E6564 
 11093      20696E74 
 11093      00
 11094              	.LASF144:
 11095 0b63 70764275 		.ascii	"pvBuffer\000"
 11095      66666572 
 11095      00
 11096              	.LASF71:
 11097 0b6c 78506F72 		.ascii	"xPortRaisePrivilege\000"
 11097      74526169 
 11097      73655072 
 11097      6976696C 
 11097      65676500 
 11098              	.LASF72:
 11099 0b80 4D50555F 		.ascii	"MPU_xTaskCreateRestricted\000"
 11099      78546173 
 11099      6B437265 
 11099      61746552 
 11099      65737472 
 11100              	.LASF207:
 11101 0b9a 76546173 		.ascii	"vTaskSuspendAll\000"
 11101      6B537573 
 11101      70656E64 
 11101      416C6C00 
 11102              	.LASF213:
 11103 0baa 75785461 		.ascii	"uxTaskGetStackHighWaterMark\000"
 11103      736B4765 
 11103      74537461 
 11103      636B4869 
 11103      67685761 
 11104              	.LASF260:
 11105 0bc6 433A5C55 		.ascii	"C:\\Users\\Reza\\Documents\\PSoC Creator\\CAN_Appli"
 11105      73657273 
 11105      5C52657A 
 11105      615C446F 
 11105      63756D65 
 11106 0bf4 63617469 		.ascii	"cation_01\\Design01_Rx.cydsn\000"
 11106      6F6E5F30 
 11106      315C4465 
 11106      7369676E 
 11106      30315F52 
 11107              	.LASF28:
 11108 0c10 5461736B 		.ascii	"TaskHandle_t\000"
 11108      48616E64 
ARM GAS  C:\Users\Reza\AppData\Local\Temp\cckOPwM0.s 			page 229


 11108      6C655F74 
 11108      00
 11109              	.LASF251:
 11110 0c1d 78537472 		.ascii	"xStreamBufferIsFull\000"
 11110      65616D42 
 11110      75666665 
 11110      72497346 
 11110      756C6C00 
 11111              	.LASF235:
 11112 0c31 70635175 		.ascii	"pcQueueGetName\000"
 11112      65756547 
 11112      65744E61 
 11112      6D6500
 11113              	.LASF174:
 11114 0c40 75784269 		.ascii	"uxBitsToSet\000"
 11114      7473546F 
 11114      53657400 
 11115              	.LASF123:
 11116 0c4c 78546963 		.ascii	"xTicksToWait\000"
 11116      6B73546F 
 11116      57616974 
 11116      00
 11117              	.LASF159:
 11118 0c59 4D50555F 		.ascii	"MPU_pvPortMalloc\000"
 11118      7076506F 
 11118      72744D61 
 11118      6C6C6F63 
 11118      00
 11119              	.LASF208:
 11120 0c6a 78546173 		.ascii	"xTaskResumeAll\000"
 11120      6B526573 
 11120      756D6541 
 11120      6C6C00
 11121              	.LASF197:
 11122 0c79 78546173 		.ascii	"xTaskCreate\000"
 11122      6B437265 
 11122      61746500 
 11123              	.LASF107:
 11124 0c85 4D50555F 		.ascii	"MPU_xTaskCatchUpTicks\000"
 11124      78546173 
 11124      6B436174 
 11124      63685570 
 11124      5469636B 
 11125              	.LASF142:
 11126 0c9b 4D50555F 		.ascii	"MPU_uxQueueSpacesAvailable\000"
 11126      75785175 
 11126      65756553 
 11126      70616365 
 11126      73417661 
 11127              	.LASF121:
 11128 0cb6 756C4269 		.ascii	"ulBitsToClearOnExit\000"
 11128      7473546F 
 11128      436C6561 
 11128      724F6E45 
 11128      78697400 
 11129              	.LASF31:
 11130 0cca 65426C6F 		.ascii	"eBlocked\000"
ARM GAS  C:\Users\Reza\AppData\Local\Temp\cckOPwM0.s 			page 230


 11130      636B6564 
 11130      00
 11131              	.LASF202:
 11132 0cd3 75785461 		.ascii	"uxTaskPriorityGet\000"
 11132      736B5072 
 11132      696F7269 
 11132      74794765 
 11132      7400
 11133              	.LASF163:
 11134 0ce5 4D50555F 		.ascii	"MPU_vPortInitialiseBlocks\000"
 11134      76506F72 
 11134      74496E69 
 11134      7469616C 
 11134      69736542 
 11135              	.LASF138:
 11136 0cff 78517565 		.ascii	"xQueue\000"
 11136      756500
 11137              	.LASF2:
 11138 0d06 6C6F6E67 		.ascii	"long double\000"
 11138      20646F75 
 11138      626C6500 
 11139              	.LASF38:
 11140 0d12 65496E63 		.ascii	"eIncrement\000"
 11140      72656D65 
 11140      6E7400
 11141              	.LASF249:
 11142 0d1d 78537472 		.ascii	"xStreamBufferReceive\000"
 11142      65616D42 
 11142      75666665 
 11142      72526563 
 11142      65697665 
 11143              	.LASF205:
 11144 0d32 76546173 		.ascii	"vTaskSuspend\000"
 11144      6B537573 
 11144      70656E64 
 11144      00
 11145              	.LASF39:
 11146 0d3f 65536574 		.ascii	"eSetValueWithOverwrite\000"
 11146      56616C75 
 11146      65576974 
 11146      684F7665 
 11146      72777269 
 11147              	.LASF61:
 11148 0d56 74736B54 		.ascii	"tskTaskControlBlock\000"
 11148      61736B43 
 11148      6F6E7472 
 11148      6F6C426C 
 11148      6F636B00 
 11149              	.LASF86:
 11150 0d6a 7854696D 		.ascii	"xTimeIncrement\000"
 11150      65496E63 
 11150      72656D65 
 11150      6E7400
 11151              	.LASF117:
 11152 0d79 65416374 		.ascii	"eAction\000"
 11152      696F6E00 
 11153              	.LASF201:
ARM GAS  C:\Users\Reza\AppData\Local\Temp\cckOPwM0.s 			page 231


 11154 0d81 76546173 		.ascii	"vTaskDelay\000"
 11154      6B44656C 
 11154      617900
 11155              	.LASF250:
 11156 0d8c 76537472 		.ascii	"vStreamBufferDelete\000"
 11156      65616D42 
 11156      75666665 
 11156      7244656C 
 11156      65746500 
 11157              	.LASF241:
 11158 0da0 78457665 		.ascii	"xEventGroupCreate\000"
 11158      6E744772 
 11158      6F757043 
 11158      72656174 
 11158      6500
 11159              	.LASF51:
 11160 0db2 78544153 		.ascii	"xTASK_PARAMETERS\000"
 11160      4B5F5041 
 11160      52414D45 
 11160      54455253 
 11160      00
 11161              	.LASF14:
 11162 0dc3 6C6F6E67 		.ascii	"long long unsigned int\000"
 11162      206C6F6E 
 11162      6720756E 
 11162      7369676E 
 11162      65642069 
 11163              	.LASF116:
 11164 0dda 756C5661 		.ascii	"ulValue\000"
 11164      6C756500 
 11165              	.LASF16:
 11166 0de2 75696E74 		.ascii	"uint16_t\000"
 11166      31365F74 
 11166      00
 11167              	.LASF231:
 11168 0deb 78517565 		.ascii	"xQueueTakeMutexRecursive\000"
 11168      75655461 
 11168      6B654D75 
 11168      74657852 
 11168      65637572 
 11169              	.LASF26:
 11170 0e04 55426173 		.ascii	"UBaseType_t\000"
 11170      65547970 
 11170      655F7400 
 11171              	.LASF200:
 11172 0e10 76546173 		.ascii	"vTaskDelayUntil\000"
 11172      6B44656C 
 11172      6179556E 
 11172      74696C00 
 11173              	.LASF173:
 11174 0e20 4D50555F 		.ascii	"MPU_xEventGroupSetBits\000"
 11174      78457665 
 11174      6E744772 
 11174      6F757053 
 11174      65744269 
 11175              	.LASF27:
 11176 0e37 5469636B 		.ascii	"TickType_t\000"
ARM GAS  C:\Users\Reza\AppData\Local\Temp\cckOPwM0.s 			page 232


 11176      54797065 
 11176      5F7400
 11177              	.LASF193:
 11178 0e42 4D50555F 		.ascii	"MPU_xStreamBufferGenericCreate\000"
 11178      78537472 
 11178      65616D42 
 11178      75666665 
 11178      7247656E 
 11179              	.LASF224:
 11180 0e61 75785175 		.ascii	"uxQueueMessagesWaiting\000"
 11180      6575654D 
 11180      65737361 
 11180      67657357 
 11180      61697469 
 11181              	.LASF204:
 11182 0e78 65546173 		.ascii	"eTaskGetState\000"
 11182      6B476574 
 11182      53746174 
 11182      6500
 11183              	.LASF85:
 11184 0e86 70785072 		.ascii	"pxPreviousWakeTime\000"
 11184      6576696F 
 11184      75735761 
 11184      6B655469 
 11184      6D6500
 11185              	.LASF228:
 11186 0e99 78517565 		.ascii	"xQueueSemaphoreTake\000"
 11186      75655365 
 11186      6D617068 
 11186      6F726554 
 11186      616B6500 
 11187              	.LASF164:
 11188 0ead 4D50555F 		.ascii	"MPU_xPortGetFreeHeapSize\000"
 11188      78506F72 
 11188      74476574 
 11188      46726565 
 11188      48656170 
 11189              	.LASF73:
 11190 0ec6 7852756E 		.ascii	"xRunningPrivileged\000"
 11190      6E696E67 
 11190      50726976 
 11190      696C6567 
 11190      656400
 11191              	.LASF219:
 11192 0ed9 78546173 		.ascii	"xTaskNotifyStateClear\000"
 11192      6B4E6F74 
 11192      69667953 
 11192      74617465 
 11192      436C6561 
 11193              	.LASF158:
 11194 0eef 4D50555F 		.ascii	"MPU_vQueueDelete\000"
 11194      76517565 
 11194      75654465 
 11194      6C657465 
 11194      00
 11195              	.LASF148:
 11196 0f00 4D50555F 		.ascii	"MPU_xQueueCreateCountingSemaphore\000"
ARM GAS  C:\Users\Reza\AppData\Local\Temp\cckOPwM0.s 			page 233


 11196      78517565 
 11196      75654372 
 11196      65617465 
 11196      436F756E 
 11197              	.LASF166:
 11198 0f22 4D50555F 		.ascii	"MPU_xEventGroupWaitBits\000"
 11198      78457665 
 11198      6E744772 
 11198      6F757057 
 11198      61697442 
 11199              	.LASF136:
 11200 0f3a 784E6577 		.ascii	"xNewQueue\000"
 11200      51756575 
 11200      6500
 11201              	.LASF34:
 11202 0f44 65496E76 		.ascii	"eInvalid\000"
 11202      616C6964 
 11202      00
 11203              	.LASF187:
 11204 0f4d 4D50555F 		.ascii	"MPU_xStreamBufferIsEmpty\000"
 11204      78537472 
 11204      65616D42 
 11204      75666665 
 11204      72497345 
 11205              	.LASF152:
 11206 0f66 784D7574 		.ascii	"xMutex\000"
 11206      657800
 11207              	.LASF101:
 11208 0f6d 4D50555F 		.ascii	"MPU_xTaskResumeAll\000"
 11208      78546173 
 11208      6B526573 
 11208      756D6541 
 11208      6C6C00
 11209              	.LASF92:
 11210 0f80 4D50555F 		.ascii	"MPU_vTaskPrioritySet\000"
 11210      76546173 
 11210      6B507269 
 11210      6F726974 
 11210      79536574 
 11211              	.LASF57:
 11212 0f95 70757853 		.ascii	"puxStackBuffer\000"
 11212      7461636B 
 11212      42756666 
 11212      657200
 11213              	.LASF196:
 11214 0fa4 7849734D 		.ascii	"xIsMessageBuffer\000"
 11214      65737361 
 11214      67654275 
 11214      66666572 
 11214      00
 11215              	.LASF252:
 11216 0fb5 78537472 		.ascii	"xStreamBufferIsEmpty\000"
 11216      65616D42 
 11216      75666665 
 11216      72497345 
 11216      6D707479 
 11217              	.LASF192:
ARM GAS  C:\Users\Reza\AppData\Local\Temp\cckOPwM0.s 			page 234


 11218 0fca 78547269 		.ascii	"xTriggerLevel\000"
 11218      67676572 
 11218      4C657665 
 11218      6C00
 11219              	.LASF7:
 11220 0fd8 73686F72 		.ascii	"short int\000"
 11220      7420696E 
 11220      7400
 11221              	.LASF66:
 11222 0fe2 53747265 		.ascii	"StreamBufferHandle_t\000"
 11222      616D4275 
 11222      66666572 
 11222      48616E64 
 11222      6C655F74 
 11223              	.LASF52:
 11224 0ff7 70765461 		.ascii	"pvTaskCode\000"
 11224      736B436F 
 11224      646500
 11225              	.LASF93:
 11226 1002 75784E65 		.ascii	"uxNewPriority\000"
 11226      77507269 
 11226      6F726974 
 11226      7900
 11227              	.LASF225:
 11228 1010 75785175 		.ascii	"uxQueueSpacesAvailable\000"
 11228      65756553 
 11228      70616365 
 11228      73417661 
 11228      696C6162 
 11229              	.LASF145:
 11230 1027 4D50555F 		.ascii	"MPU_xQueuePeek\000"
 11230      78517565 
 11230      75655065 
 11230      656B00
 11231              	.LASF176:
 11232 1036 4D50555F 		.ascii	"MPU_vEventGroupDelete\000"
 11232      76457665 
 11232      6E744772 
 11232      6F757044 
 11232      656C6574 
 11233              	.LASF105:
 11234 104c 78546173 		.ascii	"xTaskToQuery\000"
 11234      6B546F51 
 11234      75657279 
 11234      00
 11235              	.LASF149:
 11236 1059 7578436F 		.ascii	"uxCountValue\000"
 11236      756E7456 
 11236      616C7565 
 11236      00
 11237              	.LASF256:
 11238 1066 78537472 		.ascii	"xStreamBufferSetTriggerLevel\000"
 11238      65616D42 
 11238      75666665 
 11238      72536574 
 11238      54726967 
 11239              	.LASF126:
ARM GAS  C:\Users\Reza\AppData\Local\Temp\cckOPwM0.s 			page 235


 11240 1083 756C5265 		.ascii	"ulReturn\000"
 11240      7475726E 
 11240      00
 11241              	.LASF84:
 11242 108c 4D50555F 		.ascii	"MPU_vTaskDelayUntil\000"
 11242      76546173 
 11242      6B44656C 
 11242      6179556E 
 11242      74696C00 
 11243              	.LASF143:
 11244 10a0 4D50555F 		.ascii	"MPU_xQueueReceive\000"
 11244      78517565 
 11244      75655265 
 11244      63656976 
 11244      6500
 11245              	.LASF55:
 11246 10b2 70765061 		.ascii	"pvParameters\000"
 11246      72616D65 
 11246      74657273 
 11246      00
 11247              	.LASF179:
 11248 10bf 70765478 		.ascii	"pvTxData\000"
 11248      44617461 
 11248      00
 11249              	.LASF18:
 11250 10c8 75696E74 		.ascii	"uint32_t\000"
 11250      33325F74 
 11250      00
 11251              	.LASF115:
 11252 10d1 78546173 		.ascii	"xTaskToNotify\000"
 11252      6B546F4E 
 11252      6F746966 
 11252      7900
 11253              	.LASF58:
 11254 10df 78526567 		.ascii	"xRegions\000"
 11254      696F6E73 
 11254      00
 11255              	.LASF41:
 11256 10e8 654E6F74 		.ascii	"eNotifyAction\000"
 11256      69667941 
 11256      6374696F 
 11256      6E00
 11257              	.LASF120:
 11258 10f6 756C4269 		.ascii	"ulBitsToClearOnEntry\000"
 11258      7473546F 
 11258      436C6561 
 11258      724F6E45 
 11258      6E747279 
 11259              	.LASF24:
 11260 110b 53746163 		.ascii	"StackType_t\000"
 11260      6B547970 
 11260      655F7400 
 11261              	.LASF67:
 11262 1117 53747265 		.ascii	"StreamBufferDef_t\000"
 11262      616D4275 
 11262      66666572 
 11262      4465665F 
ARM GAS  C:\Users\Reza\AppData\Local\Temp\cckOPwM0.s 			page 236


 11262      7400
 11263              	.LASF99:
 11264 1129 70785461 		.ascii	"pxTaskToResume\000"
 11264      736B546F 
 11264      52657375 
 11264      6D6500
 11265              	.LASF9:
 11266 1138 73686F72 		.ascii	"short unsigned int\000"
 11266      7420756E 
 11266      7369676E 
 11266      65642069 
 11266      6E7400
 11267              	.LASF154:
 11268 114b 4D50555F 		.ascii	"MPU_xQueueGiveMutexRecursive\000"
 11268      78517565 
 11268      75654769 
 11268      76654D75 
 11268      74657852 
 11269              	.LASF238:
 11270 1168 76506F72 		.ascii	"vPortFree\000"
 11270      74467265 
 11270      6500
 11271              	.LASF247:
 11272 1172 78537472 		.ascii	"xStreamBufferSend\000"
 11272      65616D42 
 11272      75666665 
 11272      7253656E 
 11272      6400
 11273              	.LASF10:
 11274 1184 5F5F696E 		.ascii	"__int32_t\000"
 11274      7433325F 
 11274      7400
 11275              	.LASF36:
 11276 118e 654E6F41 		.ascii	"eNoAction\000"
 11276      6374696F 
 11276      6E00
 11277              	.LASF49:
 11278 1198 756C5061 		.ascii	"ulParameters\000"
 11278      72616D65 
 11278      74657273 
 11278      00
 11279              	.LASF95:
 11280 11a5 65526574 		.ascii	"eReturn\000"
 11280      75726E00 
 11281              	.LASF218:
 11282 11ad 756C5461 		.ascii	"ulTaskNotifyTake\000"
 11282      736B4E6F 
 11282      74696679 
 11282      54616B65 
 11282      00
 11283              	.LASF230:
 11284 11be 78517565 		.ascii	"xQueueCreateCountingSemaphore\000"
 11284      75654372 
 11284      65617465 
 11284      436F756E 
 11284      74696E67 
 11285              	.LASF181:
ARM GAS  C:\Users\Reza\AppData\Local\Temp\cckOPwM0.s 			page 237


 11286 11dc 4D50555F 		.ascii	"MPU_xStreamBufferNextMessageLengthBytes\000"
 11286      78537472 
 11286      65616D42 
 11286      75666665 
 11286      724E6578 
 11287              	.LASF217:
 11288 1204 78546173 		.ascii	"xTaskNotifyWait\000"
 11288      6B4E6F74 
 11288      69667957 
 11288      61697400 
 11289              	.LASF242:
 11290 1214 78457665 		.ascii	"xEventGroupWaitBits\000"
 11290      6E744772 
 11290      6F757057 
 11290      61697442 
 11290      69747300 
 11291              	.LASF78:
 11292 1228 4D50555F 		.ascii	"MPU_xTaskCreate\000"
 11292      78546173 
 11292      6B437265 
 11292      61746500 
 11293              	.LASF194:
 11294 1238 78427566 		.ascii	"xBufferSizeBytes\000"
 11294      66657253 
 11294      697A6542 
 11294      79746573 
 11294      00
 11295              	.LASF56:
 11296 1249 75785072 		.ascii	"uxPriority\000"
 11296      696F7269 
 11296      747900
 11297              		.ident	"GCC: (GNU Tools for ARM Embedded Processors) 5.4.1 20160609 (release) [ARM/embedded-5-bran
