ARM GAS  C:\Users\Reza\AppData\Local\Temp\cckOPwM0.s 			page 1


   1              		.syntax unified
   2              		.cpu cortex-m3
   3              		.fpu softvfp
   4              		.eabi_attribute 20, 1
   5              		.eabi_attribute 21, 1
   6              		.eabi_attribute 23, 3
   7              		.eabi_attribute 24, 1
   8              		.eabi_attribute 25, 1
   9              		.eabi_attribute 26, 1
  10              		.eabi_attribute 30, 1
  11              		.eabi_attribute 34, 1
  12              		.eabi_attribute 18, 4
  13              		.thumb
  14              		.syntax unified
  15              		.file	"mpu_wrappers.c"
  16              		.text
  17              	.Ltext0:
  18              		.cfi_sections	.debug_frame
  19              		.section	.text.xPortRaisePrivilege,"ax",%progbits
  20              		.align	2
  21              		.global	xPortRaisePrivilege
  22              		.thumb
  23              		.thumb_func
  24              		.type	xPortRaisePrivilege, %function
  25              	xPortRaisePrivilege:
  26              	.LFB68:
  27              		.file 1 "Source\\bsw\\FreeRTOS\\src\\mpu_wrappers.c"
   1:Source\bsw\FreeRTOS\src/mpu_wrappers.c **** /*
   2:Source\bsw\FreeRTOS\src/mpu_wrappers.c ****  * FreeRTOS Kernel V10.3.1
   3:Source\bsw\FreeRTOS\src/mpu_wrappers.c ****  * Copyright (C) 2020 Amazon.com, Inc. or its affiliates.  All Rights Reserved.
   4:Source\bsw\FreeRTOS\src/mpu_wrappers.c ****  *
   5:Source\bsw\FreeRTOS\src/mpu_wrappers.c ****  * Permission is hereby granted, free of charge, to any person obtaining a copy of
   6:Source\bsw\FreeRTOS\src/mpu_wrappers.c ****  * this software and associated documentation files (the "Software"), to deal in
   7:Source\bsw\FreeRTOS\src/mpu_wrappers.c ****  * the Software without restriction, including without limitation the rights to
   8:Source\bsw\FreeRTOS\src/mpu_wrappers.c ****  * use, copy, modify, merge, publish, distribute, sublicense, and/or sell copies of
   9:Source\bsw\FreeRTOS\src/mpu_wrappers.c ****  * the Software, and to permit persons to whom the Software is furnished to do so,
  10:Source\bsw\FreeRTOS\src/mpu_wrappers.c ****  * subject to the following conditions:
  11:Source\bsw\FreeRTOS\src/mpu_wrappers.c ****  *
  12:Source\bsw\FreeRTOS\src/mpu_wrappers.c ****  * The above copyright notice and this permission notice shall be included in all
  13:Source\bsw\FreeRTOS\src/mpu_wrappers.c ****  * copies or substantial portions of the Software.
  14:Source\bsw\FreeRTOS\src/mpu_wrappers.c ****  *
  15:Source\bsw\FreeRTOS\src/mpu_wrappers.c ****  * THE SOFTWARE IS PROVIDED "AS IS", WITHOUT WARRANTY OF ANY KIND, EXPRESS OR
  16:Source\bsw\FreeRTOS\src/mpu_wrappers.c ****  * IMPLIED, INCLUDING BUT NOT LIMITED TO THE WARRANTIES OF MERCHANTABILITY, FITNESS
  17:Source\bsw\FreeRTOS\src/mpu_wrappers.c ****  * FOR A PARTICULAR PURPOSE AND NONINFRINGEMENT. IN NO EVENT SHALL THE AUTHORS OR
  18:Source\bsw\FreeRTOS\src/mpu_wrappers.c ****  * COPYRIGHT HOLDERS BE LIABLE FOR ANY CLAIM, DAMAGES OR OTHER LIABILITY, WHETHER
  19:Source\bsw\FreeRTOS\src/mpu_wrappers.c ****  * IN AN ACTION OF CONTRACT, TORT OR OTHERWISE, ARISING FROM, OUT OF OR IN
  20:Source\bsw\FreeRTOS\src/mpu_wrappers.c ****  * CONNECTION WITH THE SOFTWARE OR THE USE OR OTHER DEALINGS IN THE SOFTWARE.
  21:Source\bsw\FreeRTOS\src/mpu_wrappers.c ****  *
  22:Source\bsw\FreeRTOS\src/mpu_wrappers.c ****  * http://www.FreeRTOS.org
  23:Source\bsw\FreeRTOS\src/mpu_wrappers.c ****  * http://aws.amazon.com/freertos
  24:Source\bsw\FreeRTOS\src/mpu_wrappers.c ****  *
  25:Source\bsw\FreeRTOS\src/mpu_wrappers.c ****  * 1 tab == 4 spaces!
  26:Source\bsw\FreeRTOS\src/mpu_wrappers.c ****  */
  27:Source\bsw\FreeRTOS\src/mpu_wrappers.c **** 
  28:Source\bsw\FreeRTOS\src/mpu_wrappers.c **** /*
  29:Source\bsw\FreeRTOS\src/mpu_wrappers.c ****  * Implementation of the wrapper functions used to raise the processor privilege
  30:Source\bsw\FreeRTOS\src/mpu_wrappers.c ****  * before calling a standard FreeRTOS API function.
ARM GAS  C:\Users\Reza\AppData\Local\Temp\cckOPwM0.s 			page 2


  31:Source\bsw\FreeRTOS\src/mpu_wrappers.c ****  */
  32:Source\bsw\FreeRTOS\src/mpu_wrappers.c **** 
  33:Source\bsw\FreeRTOS\src/mpu_wrappers.c **** /* Defining MPU_WRAPPERS_INCLUDED_FROM_API_FILE prevents task.h from redefining
  34:Source\bsw\FreeRTOS\src/mpu_wrappers.c **** all the API functions to use the MPU wrappers.  That should only be done when
  35:Source\bsw\FreeRTOS\src/mpu_wrappers.c **** task.h is included from an application file. */
  36:Source\bsw\FreeRTOS\src/mpu_wrappers.c **** #define MPU_WRAPPERS_INCLUDED_FROM_API_FILE
  37:Source\bsw\FreeRTOS\src/mpu_wrappers.c **** 
  38:Source\bsw\FreeRTOS\src/mpu_wrappers.c **** /* Scheduler includes. */
  39:Source\bsw\FreeRTOS\src/mpu_wrappers.c **** #include "FreeRTOS.h"
  40:Source\bsw\FreeRTOS\src/mpu_wrappers.c **** #include "task.h"
  41:Source\bsw\FreeRTOS\src/mpu_wrappers.c **** #include "queue.h"
  42:Source\bsw\FreeRTOS\src/mpu_wrappers.c **** #include "timers.h"
  43:Source\bsw\FreeRTOS\src/mpu_wrappers.c **** #include "event_groups.h"
  44:Source\bsw\FreeRTOS\src/mpu_wrappers.c **** #include "stream_buffer.h"
  45:Source\bsw\FreeRTOS\src/mpu_wrappers.c **** #include "mpu_prototypes.h"
  46:Source\bsw\FreeRTOS\src/mpu_wrappers.c **** 
  47:Source\bsw\FreeRTOS\src/mpu_wrappers.c **** #undef MPU_WRAPPERS_INCLUDED_FROM_API_FILE
  48:Source\bsw\FreeRTOS\src/mpu_wrappers.c **** 
  49:Source\bsw\FreeRTOS\src/mpu_wrappers.c **** /**
  50:Source\bsw\FreeRTOS\src/mpu_wrappers.c ****  * @brief Calls the port specific code to raise the privilege.
  51:Source\bsw\FreeRTOS\src/mpu_wrappers.c ****  *
  52:Source\bsw\FreeRTOS\src/mpu_wrappers.c ****  * @return pdFALSE if privilege was raised, pdTRUE otherwise.
  53:Source\bsw\FreeRTOS\src/mpu_wrappers.c ****  */
  54:Source\bsw\FreeRTOS\src/mpu_wrappers.c **** BaseType_t xPortRaisePrivilege( void ) FREERTOS_SYSTEM_CALL;
  55:Source\bsw\FreeRTOS\src/mpu_wrappers.c **** 
  56:Source\bsw\FreeRTOS\src/mpu_wrappers.c **** /**
  57:Source\bsw\FreeRTOS\src/mpu_wrappers.c ****  * @brief If xRunningPrivileged is not pdTRUE, calls the port specific
  58:Source\bsw\FreeRTOS\src/mpu_wrappers.c ****  * code to reset the privilege, otherwise does nothing.
  59:Source\bsw\FreeRTOS\src/mpu_wrappers.c ****  */
  60:Source\bsw\FreeRTOS\src/mpu_wrappers.c **** void vPortResetPrivilege( BaseType_t xRunningPrivileged );
  61:Source\bsw\FreeRTOS\src/mpu_wrappers.c **** /*-----------------------------------------------------------*/
  62:Source\bsw\FreeRTOS\src/mpu_wrappers.c **** 
  63:Source\bsw\FreeRTOS\src/mpu_wrappers.c **** BaseType_t xPortRaisePrivilege( void ) /* FREERTOS_SYSTEM_CALL */
  64:Source\bsw\FreeRTOS\src/mpu_wrappers.c **** {
  28              		.loc 1 64 0
  29              		.cfi_startproc
  30              		@ args = 0, pretend = 0, frame = 0
  31              		@ frame_needed = 0, uses_anonymous_args = 0
  32 0000 10B5     		push	{r4, lr}
  33              		.cfi_def_cfa_offset 8
  34              		.cfi_offset 4, -8
  35              		.cfi_offset 14, -4
  65:Source\bsw\FreeRTOS\src/mpu_wrappers.c **** BaseType_t xRunningPrivileged;
  66:Source\bsw\FreeRTOS\src/mpu_wrappers.c **** 
  67:Source\bsw\FreeRTOS\src/mpu_wrappers.c **** 	/* Check whether the processor is already privileged. */
  68:Source\bsw\FreeRTOS\src/mpu_wrappers.c **** 	xRunningPrivileged = portIS_PRIVILEGED();
  36              		.loc 1 68 0
  37 0002 FFF7FEFF 		bl	portIS_PRIVILEGED
  38              	.LVL0:
  39 0006 0446     		mov	r4, r0
  40              	.LVL1:
  69:Source\bsw\FreeRTOS\src/mpu_wrappers.c **** 
  70:Source\bsw\FreeRTOS\src/mpu_wrappers.c **** 	/* If the processor is not already privileged, raise privilege. */
  71:Source\bsw\FreeRTOS\src/mpu_wrappers.c **** 	if( xRunningPrivileged != pdTRUE )
  41              		.loc 1 71 0
  42 0008 0128     		cmp	r0, #1
  43 000a 01D0     		beq	.L2
ARM GAS  C:\Users\Reza\AppData\Local\Temp\cckOPwM0.s 			page 3


  44              	.LBB2:
  72:Source\bsw\FreeRTOS\src/mpu_wrappers.c **** 	{
  73:Source\bsw\FreeRTOS\src/mpu_wrappers.c **** 		portRAISE_PRIVILEGE();
  45              		.loc 1 73 0
  46 000c FFF7FEFF 		bl	portRAISE_PRIVILEGE
  47              	.LVL2:
  48              	.L2:
  49              	.LBE2:
  74:Source\bsw\FreeRTOS\src/mpu_wrappers.c **** 	}
  75:Source\bsw\FreeRTOS\src/mpu_wrappers.c **** 
  76:Source\bsw\FreeRTOS\src/mpu_wrappers.c **** 	return xRunningPrivileged;
  77:Source\bsw\FreeRTOS\src/mpu_wrappers.c **** }
  50              		.loc 1 77 0
  51 0010 2046     		mov	r0, r4
  52 0012 10BD     		pop	{r4, pc}
  53              		.cfi_endproc
  54              	.LFE68:
  55              		.size	xPortRaisePrivilege, .-xPortRaisePrivilege
  56              		.section	.text.vPortResetPrivilege,"ax",%progbits
  57              		.align	2
  58              		.global	vPortResetPrivilege
  59              		.thumb
  60              		.thumb_func
  61              		.type	vPortResetPrivilege, %function
  62              	vPortResetPrivilege:
  63              	.LFB69:
  78:Source\bsw\FreeRTOS\src/mpu_wrappers.c **** /*-----------------------------------------------------------*/
  79:Source\bsw\FreeRTOS\src/mpu_wrappers.c **** 
  80:Source\bsw\FreeRTOS\src/mpu_wrappers.c **** void vPortResetPrivilege( BaseType_t xRunningPrivileged )
  81:Source\bsw\FreeRTOS\src/mpu_wrappers.c **** {
  64              		.loc 1 81 0
  65              		.cfi_startproc
  66              		@ args = 0, pretend = 0, frame = 0
  67              		@ frame_needed = 0, uses_anonymous_args = 0
  68              	.LVL3:
  82:Source\bsw\FreeRTOS\src/mpu_wrappers.c **** 	if( xRunningPrivileged != pdTRUE )
  69              		.loc 1 82 0
  70 0000 0128     		cmp	r0, #1
  71 0002 03D0     		beq	.L7
  81:Source\bsw\FreeRTOS\src/mpu_wrappers.c **** 	if( xRunningPrivileged != pdTRUE )
  72              		.loc 1 81 0
  73 0004 08B5     		push	{r3, lr}
  74              		.cfi_def_cfa_offset 8
  75              		.cfi_offset 3, -8
  76              		.cfi_offset 14, -4
  77              	.LBB3:
  83:Source\bsw\FreeRTOS\src/mpu_wrappers.c **** 	{
  84:Source\bsw\FreeRTOS\src/mpu_wrappers.c **** 		portRESET_PRIVILEGE();
  78              		.loc 1 84 0
  79 0006 FFF7FEFF 		bl	portRESET_PRIVILEGE
  80              	.LVL4:
  81 000a 08BD     		pop	{r3, pc}
  82              	.LVL5:
  83              	.L7:
  84              		.cfi_def_cfa_offset 0
  85              		.cfi_restore 3
  86              		.cfi_restore 14
ARM GAS  C:\Users\Reza\AppData\Local\Temp\cckOPwM0.s 			page 4


  87 000c 7047     		bx	lr
  88              	.LBE3:
  89              		.cfi_endproc
  90              	.LFE69:
  91              		.size	vPortResetPrivilege, .-vPortResetPrivilege
  92 000e 00BF     		.section	.text.MPU_xTaskCreateRestricted,"ax",%progbits
  93              		.align	2
  94              		.global	MPU_xTaskCreateRestricted
  95              		.thumb
  96              		.thumb_func
  97              		.type	MPU_xTaskCreateRestricted, %function
  98              	MPU_xTaskCreateRestricted:
  99              	.LFB70:
  85:Source\bsw\FreeRTOS\src/mpu_wrappers.c **** 	}
  86:Source\bsw\FreeRTOS\src/mpu_wrappers.c **** }
  87:Source\bsw\FreeRTOS\src/mpu_wrappers.c **** /*-----------------------------------------------------------*/
  88:Source\bsw\FreeRTOS\src/mpu_wrappers.c **** 
  89:Source\bsw\FreeRTOS\src/mpu_wrappers.c **** #if( configSUPPORT_DYNAMIC_ALLOCATION == 1 )
  90:Source\bsw\FreeRTOS\src/mpu_wrappers.c **** 	BaseType_t MPU_xTaskCreateRestricted( const TaskParameters_t * const pxTaskDefinition, TaskHandle_
  91:Source\bsw\FreeRTOS\src/mpu_wrappers.c **** 	{
 100              		.loc 1 91 0
 101              		.cfi_startproc
 102              		@ args = 0, pretend = 0, frame = 0
 103              		@ frame_needed = 0, uses_anonymous_args = 0
 104              	.LVL6:
 105 0000 70B5     		push	{r4, r5, r6, lr}
 106              		.cfi_def_cfa_offset 16
 107              		.cfi_offset 4, -16
 108              		.cfi_offset 5, -12
 109              		.cfi_offset 6, -8
 110              		.cfi_offset 14, -4
 111 0002 0446     		mov	r4, r0
 112 0004 0E46     		mov	r6, r1
  92:Source\bsw\FreeRTOS\src/mpu_wrappers.c **** 	BaseType_t xReturn;
  93:Source\bsw\FreeRTOS\src/mpu_wrappers.c **** 	BaseType_t xRunningPrivileged = xPortRaisePrivilege();
 113              		.loc 1 93 0
 114 0006 FFF7FEFF 		bl	xPortRaisePrivilege
 115              	.LVL7:
 116 000a 0546     		mov	r5, r0
 117              	.LVL8:
  94:Source\bsw\FreeRTOS\src/mpu_wrappers.c **** 
  95:Source\bsw\FreeRTOS\src/mpu_wrappers.c **** 		xReturn = xTaskCreateRestricted( pxTaskDefinition, pxCreatedTask );
 118              		.loc 1 95 0
 119 000c 3146     		mov	r1, r6
 120 000e 2046     		mov	r0, r4
 121              	.LVL9:
 122 0010 FFF7FEFF 		bl	xTaskCreateRestricted
 123              	.LVL10:
 124 0014 0446     		mov	r4, r0
 125              	.LVL11:
  96:Source\bsw\FreeRTOS\src/mpu_wrappers.c **** 		vPortResetPrivilege( xRunningPrivileged );
 126              		.loc 1 96 0
 127 0016 2846     		mov	r0, r5
 128              	.LVL12:
 129 0018 FFF7FEFF 		bl	vPortResetPrivilege
 130              	.LVL13:
  97:Source\bsw\FreeRTOS\src/mpu_wrappers.c **** 		return xReturn;
ARM GAS  C:\Users\Reza\AppData\Local\Temp\cckOPwM0.s 			page 5


  98:Source\bsw\FreeRTOS\src/mpu_wrappers.c **** 	}
 131              		.loc 1 98 0
 132 001c 2046     		mov	r0, r4
 133 001e 70BD     		pop	{r4, r5, r6, pc}
 134              		.cfi_endproc
 135              	.LFE70:
 136              		.size	MPU_xTaskCreateRestricted, .-MPU_xTaskCreateRestricted
 137              		.section	.text.MPU_xTaskCreate,"ax",%progbits
 138              		.align	2
 139              		.global	MPU_xTaskCreate
 140              		.thumb
 141              		.thumb_func
 142              		.type	MPU_xTaskCreate, %function
 143              	MPU_xTaskCreate:
 144              	.LFB71:
  99:Source\bsw\FreeRTOS\src/mpu_wrappers.c **** #endif /* conifgSUPPORT_DYNAMIC_ALLOCATION */
 100:Source\bsw\FreeRTOS\src/mpu_wrappers.c **** /*-----------------------------------------------------------*/
 101:Source\bsw\FreeRTOS\src/mpu_wrappers.c **** 
 102:Source\bsw\FreeRTOS\src/mpu_wrappers.c **** #if( configSUPPORT_STATIC_ALLOCATION == 1 )
 103:Source\bsw\FreeRTOS\src/mpu_wrappers.c **** 	BaseType_t MPU_xTaskCreateRestrictedStatic( const TaskParameters_t * const pxTaskDefinition, TaskH
 104:Source\bsw\FreeRTOS\src/mpu_wrappers.c **** 	{
 105:Source\bsw\FreeRTOS\src/mpu_wrappers.c **** 	BaseType_t xReturn;
 106:Source\bsw\FreeRTOS\src/mpu_wrappers.c **** 	BaseType_t xRunningPrivileged = xPortRaisePrivilege();
 107:Source\bsw\FreeRTOS\src/mpu_wrappers.c **** 
 108:Source\bsw\FreeRTOS\src/mpu_wrappers.c **** 		xReturn = xTaskCreateRestrictedStatic( pxTaskDefinition, pxCreatedTask );
 109:Source\bsw\FreeRTOS\src/mpu_wrappers.c **** 		vPortResetPrivilege( xRunningPrivileged );
 110:Source\bsw\FreeRTOS\src/mpu_wrappers.c **** 		return xReturn;
 111:Source\bsw\FreeRTOS\src/mpu_wrappers.c **** 	}
 112:Source\bsw\FreeRTOS\src/mpu_wrappers.c **** #endif /* conifgSUPPORT_DYNAMIC_ALLOCATION */
 113:Source\bsw\FreeRTOS\src/mpu_wrappers.c **** /*-----------------------------------------------------------*/
 114:Source\bsw\FreeRTOS\src/mpu_wrappers.c **** 
 115:Source\bsw\FreeRTOS\src/mpu_wrappers.c **** #if( configSUPPORT_DYNAMIC_ALLOCATION == 1 )
 116:Source\bsw\FreeRTOS\src/mpu_wrappers.c **** 	BaseType_t MPU_xTaskCreate( TaskFunction_t pvTaskCode, const char * const pcName, uint16_t usStack
 117:Source\bsw\FreeRTOS\src/mpu_wrappers.c **** 	{
 145              		.loc 1 117 0
 146              		.cfi_startproc
 147              		@ args = 8, pretend = 0, frame = 0
 148              		@ frame_needed = 0, uses_anonymous_args = 0
 149              	.LVL14:
 150 0000 2DE9F041 		push	{r4, r5, r6, r7, r8, lr}
 151              		.cfi_def_cfa_offset 24
 152              		.cfi_offset 4, -24
 153              		.cfi_offset 5, -20
 154              		.cfi_offset 6, -16
 155              		.cfi_offset 7, -12
 156              		.cfi_offset 8, -8
 157              		.cfi_offset 14, -4
 158 0004 82B0     		sub	sp, sp, #8
 159              		.cfi_def_cfa_offset 32
 160 0006 0446     		mov	r4, r0
 161 0008 0E46     		mov	r6, r1
 162 000a 1746     		mov	r7, r2
 163 000c 9846     		mov	r8, r3
 118:Source\bsw\FreeRTOS\src/mpu_wrappers.c **** 	BaseType_t xReturn;
 119:Source\bsw\FreeRTOS\src/mpu_wrappers.c **** 	BaseType_t xRunningPrivileged = xPortRaisePrivilege();
 164              		.loc 1 119 0
 165 000e FFF7FEFF 		bl	xPortRaisePrivilege
ARM GAS  C:\Users\Reza\AppData\Local\Temp\cckOPwM0.s 			page 6


 166              	.LVL15:
 167 0012 0546     		mov	r5, r0
 168              	.LVL16:
 120:Source\bsw\FreeRTOS\src/mpu_wrappers.c **** 
 121:Source\bsw\FreeRTOS\src/mpu_wrappers.c **** 		xReturn = xTaskCreate( pvTaskCode, pcName, usStackDepth, pvParameters, uxPriority, pxCreatedTask 
 169              		.loc 1 121 0
 170 0014 099B     		ldr	r3, [sp, #36]
 171 0016 0193     		str	r3, [sp, #4]
 172 0018 089B     		ldr	r3, [sp, #32]
 173 001a 0093     		str	r3, [sp]
 174 001c 4346     		mov	r3, r8
 175 001e 3A46     		mov	r2, r7
 176 0020 3146     		mov	r1, r6
 177 0022 2046     		mov	r0, r4
 178              	.LVL17:
 179 0024 FFF7FEFF 		bl	xTaskCreate
 180              	.LVL18:
 181 0028 0446     		mov	r4, r0
 182              	.LVL19:
 122:Source\bsw\FreeRTOS\src/mpu_wrappers.c **** 		vPortResetPrivilege( xRunningPrivileged );
 183              		.loc 1 122 0
 184 002a 2846     		mov	r0, r5
 185              	.LVL20:
 186 002c FFF7FEFF 		bl	vPortResetPrivilege
 187              	.LVL21:
 123:Source\bsw\FreeRTOS\src/mpu_wrappers.c **** 		return xReturn;
 124:Source\bsw\FreeRTOS\src/mpu_wrappers.c **** 	}
 188              		.loc 1 124 0
 189 0030 2046     		mov	r0, r4
 190 0032 02B0     		add	sp, sp, #8
 191              		.cfi_def_cfa_offset 24
 192              		@ sp needed
 193 0034 BDE8F081 		pop	{r4, r5, r6, r7, r8, pc}
 194              		.cfi_endproc
 195              	.LFE71:
 196              		.size	MPU_xTaskCreate, .-MPU_xTaskCreate
 197              		.section	.text.MPU_vTaskAllocateMPURegions,"ax",%progbits
 198              		.align	2
 199              		.global	MPU_vTaskAllocateMPURegions
 200              		.thumb
 201              		.thumb_func
 202              		.type	MPU_vTaskAllocateMPURegions, %function
 203              	MPU_vTaskAllocateMPURegions:
 204              	.LFB72:
 125:Source\bsw\FreeRTOS\src/mpu_wrappers.c **** #endif /* configSUPPORT_DYNAMIC_ALLOCATION */
 126:Source\bsw\FreeRTOS\src/mpu_wrappers.c **** /*-----------------------------------------------------------*/
 127:Source\bsw\FreeRTOS\src/mpu_wrappers.c **** 
 128:Source\bsw\FreeRTOS\src/mpu_wrappers.c **** #if( configSUPPORT_STATIC_ALLOCATION == 1 )
 129:Source\bsw\FreeRTOS\src/mpu_wrappers.c **** 	TaskHandle_t MPU_xTaskCreateStatic( TaskFunction_t pxTaskCode, const char * const pcName, const ui
 130:Source\bsw\FreeRTOS\src/mpu_wrappers.c **** 	{
 131:Source\bsw\FreeRTOS\src/mpu_wrappers.c **** 	TaskHandle_t xReturn;
 132:Source\bsw\FreeRTOS\src/mpu_wrappers.c **** 	BaseType_t xRunningPrivileged = xPortRaisePrivilege();
 133:Source\bsw\FreeRTOS\src/mpu_wrappers.c **** 
 134:Source\bsw\FreeRTOS\src/mpu_wrappers.c **** 		xReturn = xTaskCreateStatic( pxTaskCode, pcName, ulStackDepth, pvParameters, uxPriority, puxStack
 135:Source\bsw\FreeRTOS\src/mpu_wrappers.c **** 		vPortResetPrivilege( xRunningPrivileged );
 136:Source\bsw\FreeRTOS\src/mpu_wrappers.c **** 		return xReturn;
 137:Source\bsw\FreeRTOS\src/mpu_wrappers.c **** 	}
ARM GAS  C:\Users\Reza\AppData\Local\Temp\cckOPwM0.s 			page 7


 138:Source\bsw\FreeRTOS\src/mpu_wrappers.c **** #endif /* configSUPPORT_STATIC_ALLOCATION */
 139:Source\bsw\FreeRTOS\src/mpu_wrappers.c **** /*-----------------------------------------------------------*/
 140:Source\bsw\FreeRTOS\src/mpu_wrappers.c **** 
 141:Source\bsw\FreeRTOS\src/mpu_wrappers.c **** void MPU_vTaskAllocateMPURegions( TaskHandle_t xTask, const MemoryRegion_t * const xRegions ) /* FR
 142:Source\bsw\FreeRTOS\src/mpu_wrappers.c **** {
 205              		.loc 1 142 0
 206              		.cfi_startproc
 207              		@ args = 0, pretend = 0, frame = 0
 208              		@ frame_needed = 0, uses_anonymous_args = 0
 209              	.LVL22:
 210 0000 70B5     		push	{r4, r5, r6, lr}
 211              		.cfi_def_cfa_offset 16
 212              		.cfi_offset 4, -16
 213              		.cfi_offset 5, -12
 214              		.cfi_offset 6, -8
 215              		.cfi_offset 14, -4
 216 0002 0546     		mov	r5, r0
 217 0004 0E46     		mov	r6, r1
 143:Source\bsw\FreeRTOS\src/mpu_wrappers.c **** BaseType_t xRunningPrivileged = xPortRaisePrivilege();
 218              		.loc 1 143 0
 219 0006 FFF7FEFF 		bl	xPortRaisePrivilege
 220              	.LVL23:
 221 000a 0446     		mov	r4, r0
 222              	.LVL24:
 144:Source\bsw\FreeRTOS\src/mpu_wrappers.c **** 
 145:Source\bsw\FreeRTOS\src/mpu_wrappers.c **** 	vTaskAllocateMPURegions( xTask, xRegions );
 223              		.loc 1 145 0
 224 000c 3146     		mov	r1, r6
 225 000e 2846     		mov	r0, r5
 226              	.LVL25:
 227 0010 FFF7FEFF 		bl	vTaskAllocateMPURegions
 228              	.LVL26:
 146:Source\bsw\FreeRTOS\src/mpu_wrappers.c **** 	vPortResetPrivilege( xRunningPrivileged );
 229              		.loc 1 146 0
 230 0014 2046     		mov	r0, r4
 231 0016 FFF7FEFF 		bl	vPortResetPrivilege
 232              	.LVL27:
 233 001a 70BD     		pop	{r4, r5, r6, pc}
 234              		.cfi_endproc
 235              	.LFE72:
 236              		.size	MPU_vTaskAllocateMPURegions, .-MPU_vTaskAllocateMPURegions
 237              		.section	.text.MPU_vTaskDelete,"ax",%progbits
 238              		.align	2
 239              		.global	MPU_vTaskDelete
 240              		.thumb
 241              		.thumb_func
 242              		.type	MPU_vTaskDelete, %function
 243              	MPU_vTaskDelete:
 244              	.LFB73:
 147:Source\bsw\FreeRTOS\src/mpu_wrappers.c **** }
 148:Source\bsw\FreeRTOS\src/mpu_wrappers.c **** /*-----------------------------------------------------------*/
 149:Source\bsw\FreeRTOS\src/mpu_wrappers.c **** 
 150:Source\bsw\FreeRTOS\src/mpu_wrappers.c **** #if ( INCLUDE_vTaskDelete == 1 )
 151:Source\bsw\FreeRTOS\src/mpu_wrappers.c **** 	void MPU_vTaskDelete( TaskHandle_t pxTaskToDelete ) /* FREERTOS_SYSTEM_CALL */
 152:Source\bsw\FreeRTOS\src/mpu_wrappers.c **** 	{
 245              		.loc 1 152 0
 246              		.cfi_startproc
ARM GAS  C:\Users\Reza\AppData\Local\Temp\cckOPwM0.s 			page 8


 247              		@ args = 0, pretend = 0, frame = 0
 248              		@ frame_needed = 0, uses_anonymous_args = 0
 249              	.LVL28:
 250 0000 38B5     		push	{r3, r4, r5, lr}
 251              		.cfi_def_cfa_offset 16
 252              		.cfi_offset 3, -16
 253              		.cfi_offset 4, -12
 254              		.cfi_offset 5, -8
 255              		.cfi_offset 14, -4
 256 0002 0546     		mov	r5, r0
 153:Source\bsw\FreeRTOS\src/mpu_wrappers.c **** 	BaseType_t xRunningPrivileged = xPortRaisePrivilege();
 257              		.loc 1 153 0
 258 0004 FFF7FEFF 		bl	xPortRaisePrivilege
 259              	.LVL29:
 260 0008 0446     		mov	r4, r0
 261              	.LVL30:
 154:Source\bsw\FreeRTOS\src/mpu_wrappers.c **** 
 155:Source\bsw\FreeRTOS\src/mpu_wrappers.c **** 		vTaskDelete( pxTaskToDelete );
 262              		.loc 1 155 0
 263 000a 2846     		mov	r0, r5
 264              	.LVL31:
 265 000c FFF7FEFF 		bl	vTaskDelete
 266              	.LVL32:
 156:Source\bsw\FreeRTOS\src/mpu_wrappers.c **** 		vPortResetPrivilege( xRunningPrivileged );
 267              		.loc 1 156 0
 268 0010 2046     		mov	r0, r4
 269 0012 FFF7FEFF 		bl	vPortResetPrivilege
 270              	.LVL33:
 271 0016 38BD     		pop	{r3, r4, r5, pc}
 272              		.cfi_endproc
 273              	.LFE73:
 274              		.size	MPU_vTaskDelete, .-MPU_vTaskDelete
 275              		.section	.text.MPU_vTaskDelayUntil,"ax",%progbits
 276              		.align	2
 277              		.global	MPU_vTaskDelayUntil
 278              		.thumb
 279              		.thumb_func
 280              		.type	MPU_vTaskDelayUntil, %function
 281              	MPU_vTaskDelayUntil:
 282              	.LFB74:
 157:Source\bsw\FreeRTOS\src/mpu_wrappers.c **** 	}
 158:Source\bsw\FreeRTOS\src/mpu_wrappers.c **** #endif
 159:Source\bsw\FreeRTOS\src/mpu_wrappers.c **** /*-----------------------------------------------------------*/
 160:Source\bsw\FreeRTOS\src/mpu_wrappers.c **** 
 161:Source\bsw\FreeRTOS\src/mpu_wrappers.c **** #if ( INCLUDE_vTaskDelayUntil == 1 )
 162:Source\bsw\FreeRTOS\src/mpu_wrappers.c **** 	void MPU_vTaskDelayUntil( TickType_t * const pxPreviousWakeTime, TickType_t xTimeIncrement ) /* FR
 163:Source\bsw\FreeRTOS\src/mpu_wrappers.c **** 	{
 283              		.loc 1 163 0
 284              		.cfi_startproc
 285              		@ args = 0, pretend = 0, frame = 0
 286              		@ frame_needed = 0, uses_anonymous_args = 0
 287              	.LVL34:
 288 0000 70B5     		push	{r4, r5, r6, lr}
 289              		.cfi_def_cfa_offset 16
 290              		.cfi_offset 4, -16
 291              		.cfi_offset 5, -12
 292              		.cfi_offset 6, -8
ARM GAS  C:\Users\Reza\AppData\Local\Temp\cckOPwM0.s 			page 9


 293              		.cfi_offset 14, -4
 294 0002 0546     		mov	r5, r0
 295 0004 0E46     		mov	r6, r1
 164:Source\bsw\FreeRTOS\src/mpu_wrappers.c **** 	BaseType_t xRunningPrivileged = xPortRaisePrivilege();
 296              		.loc 1 164 0
 297 0006 FFF7FEFF 		bl	xPortRaisePrivilege
 298              	.LVL35:
 299 000a 0446     		mov	r4, r0
 300              	.LVL36:
 165:Source\bsw\FreeRTOS\src/mpu_wrappers.c **** 
 166:Source\bsw\FreeRTOS\src/mpu_wrappers.c **** 		vTaskDelayUntil( pxPreviousWakeTime, xTimeIncrement );
 301              		.loc 1 166 0
 302 000c 3146     		mov	r1, r6
 303 000e 2846     		mov	r0, r5
 304              	.LVL37:
 305 0010 FFF7FEFF 		bl	vTaskDelayUntil
 306              	.LVL38:
 167:Source\bsw\FreeRTOS\src/mpu_wrappers.c **** 		vPortResetPrivilege( xRunningPrivileged );
 307              		.loc 1 167 0
 308 0014 2046     		mov	r0, r4
 309 0016 FFF7FEFF 		bl	vPortResetPrivilege
 310              	.LVL39:
 311 001a 70BD     		pop	{r4, r5, r6, pc}
 312              		.cfi_endproc
 313              	.LFE74:
 314              		.size	MPU_vTaskDelayUntil, .-MPU_vTaskDelayUntil
 315              		.section	.text.MPU_vTaskDelay,"ax",%progbits
 316              		.align	2
 317              		.global	MPU_vTaskDelay
 318              		.thumb
 319              		.thumb_func
 320              		.type	MPU_vTaskDelay, %function
 321              	MPU_vTaskDelay:
 322              	.LFB75:
 168:Source\bsw\FreeRTOS\src/mpu_wrappers.c **** 	}
 169:Source\bsw\FreeRTOS\src/mpu_wrappers.c **** #endif
 170:Source\bsw\FreeRTOS\src/mpu_wrappers.c **** /*-----------------------------------------------------------*/
 171:Source\bsw\FreeRTOS\src/mpu_wrappers.c **** 
 172:Source\bsw\FreeRTOS\src/mpu_wrappers.c **** #if ( INCLUDE_xTaskAbortDelay == 1 )
 173:Source\bsw\FreeRTOS\src/mpu_wrappers.c **** 	BaseType_t MPU_xTaskAbortDelay( TaskHandle_t xTask ) /* FREERTOS_SYSTEM_CALL */
 174:Source\bsw\FreeRTOS\src/mpu_wrappers.c **** 	{
 175:Source\bsw\FreeRTOS\src/mpu_wrappers.c **** 	BaseType_t xReturn;
 176:Source\bsw\FreeRTOS\src/mpu_wrappers.c **** 	BaseType_t xRunningPrivileged = xPortRaisePrivilege();
 177:Source\bsw\FreeRTOS\src/mpu_wrappers.c **** 
 178:Source\bsw\FreeRTOS\src/mpu_wrappers.c **** 		xReturn = xTaskAbortDelay( xTask );
 179:Source\bsw\FreeRTOS\src/mpu_wrappers.c **** 		vPortResetPrivilege( xRunningPrivileged );
 180:Source\bsw\FreeRTOS\src/mpu_wrappers.c **** 		return xReturn;
 181:Source\bsw\FreeRTOS\src/mpu_wrappers.c **** 	}
 182:Source\bsw\FreeRTOS\src/mpu_wrappers.c **** #endif
 183:Source\bsw\FreeRTOS\src/mpu_wrappers.c **** /*-----------------------------------------------------------*/
 184:Source\bsw\FreeRTOS\src/mpu_wrappers.c **** 
 185:Source\bsw\FreeRTOS\src/mpu_wrappers.c **** #if ( INCLUDE_vTaskDelay == 1 )
 186:Source\bsw\FreeRTOS\src/mpu_wrappers.c **** 	void MPU_vTaskDelay( TickType_t xTicksToDelay ) /* FREERTOS_SYSTEM_CALL */
 187:Source\bsw\FreeRTOS\src/mpu_wrappers.c **** 	{
 323              		.loc 1 187 0
 324              		.cfi_startproc
 325              		@ args = 0, pretend = 0, frame = 0
ARM GAS  C:\Users\Reza\AppData\Local\Temp\cckOPwM0.s 			page 10


 326              		@ frame_needed = 0, uses_anonymous_args = 0
 327              	.LVL40:
 328 0000 38B5     		push	{r3, r4, r5, lr}
 329              		.cfi_def_cfa_offset 16
 330              		.cfi_offset 3, -16
 331              		.cfi_offset 4, -12
 332              		.cfi_offset 5, -8
 333              		.cfi_offset 14, -4
 334 0002 0546     		mov	r5, r0
 188:Source\bsw\FreeRTOS\src/mpu_wrappers.c **** 	BaseType_t xRunningPrivileged = xPortRaisePrivilege();
 335              		.loc 1 188 0
 336 0004 FFF7FEFF 		bl	xPortRaisePrivilege
 337              	.LVL41:
 338 0008 0446     		mov	r4, r0
 339              	.LVL42:
 189:Source\bsw\FreeRTOS\src/mpu_wrappers.c **** 
 190:Source\bsw\FreeRTOS\src/mpu_wrappers.c **** 		vTaskDelay( xTicksToDelay );
 340              		.loc 1 190 0
 341 000a 2846     		mov	r0, r5
 342              	.LVL43:
 343 000c FFF7FEFF 		bl	vTaskDelay
 344              	.LVL44:
 191:Source\bsw\FreeRTOS\src/mpu_wrappers.c **** 		vPortResetPrivilege( xRunningPrivileged );
 345              		.loc 1 191 0
 346 0010 2046     		mov	r0, r4
 347 0012 FFF7FEFF 		bl	vPortResetPrivilege
 348              	.LVL45:
 349 0016 38BD     		pop	{r3, r4, r5, pc}
 350              		.cfi_endproc
 351              	.LFE75:
 352              		.size	MPU_vTaskDelay, .-MPU_vTaskDelay
 353              		.section	.text.MPU_uxTaskPriorityGet,"ax",%progbits
 354              		.align	2
 355              		.global	MPU_uxTaskPriorityGet
 356              		.thumb
 357              		.thumb_func
 358              		.type	MPU_uxTaskPriorityGet, %function
 359              	MPU_uxTaskPriorityGet:
 360              	.LFB76:
 192:Source\bsw\FreeRTOS\src/mpu_wrappers.c **** 	}
 193:Source\bsw\FreeRTOS\src/mpu_wrappers.c **** #endif
 194:Source\bsw\FreeRTOS\src/mpu_wrappers.c **** /*-----------------------------------------------------------*/
 195:Source\bsw\FreeRTOS\src/mpu_wrappers.c **** 
 196:Source\bsw\FreeRTOS\src/mpu_wrappers.c **** #if ( INCLUDE_uxTaskPriorityGet == 1 )
 197:Source\bsw\FreeRTOS\src/mpu_wrappers.c **** 	UBaseType_t MPU_uxTaskPriorityGet( const TaskHandle_t pxTask ) /* FREERTOS_SYSTEM_CALL */
 198:Source\bsw\FreeRTOS\src/mpu_wrappers.c **** 	{
 361              		.loc 1 198 0
 362              		.cfi_startproc
 363              		@ args = 0, pretend = 0, frame = 0
 364              		@ frame_needed = 0, uses_anonymous_args = 0
 365              	.LVL46:
 366 0000 38B5     		push	{r3, r4, r5, lr}
 367              		.cfi_def_cfa_offset 16
 368              		.cfi_offset 3, -16
 369              		.cfi_offset 4, -12
 370              		.cfi_offset 5, -8
 371              		.cfi_offset 14, -4
ARM GAS  C:\Users\Reza\AppData\Local\Temp\cckOPwM0.s 			page 11


 372 0002 0446     		mov	r4, r0
 199:Source\bsw\FreeRTOS\src/mpu_wrappers.c **** 	UBaseType_t uxReturn;
 200:Source\bsw\FreeRTOS\src/mpu_wrappers.c **** 	BaseType_t xRunningPrivileged = xPortRaisePrivilege();
 373              		.loc 1 200 0
 374 0004 FFF7FEFF 		bl	xPortRaisePrivilege
 375              	.LVL47:
 376 0008 0546     		mov	r5, r0
 377              	.LVL48:
 201:Source\bsw\FreeRTOS\src/mpu_wrappers.c **** 
 202:Source\bsw\FreeRTOS\src/mpu_wrappers.c **** 		uxReturn = uxTaskPriorityGet( pxTask );
 378              		.loc 1 202 0
 379 000a 2046     		mov	r0, r4
 380              	.LVL49:
 381 000c FFF7FEFF 		bl	uxTaskPriorityGet
 382              	.LVL50:
 383 0010 0446     		mov	r4, r0
 384              	.LVL51:
 203:Source\bsw\FreeRTOS\src/mpu_wrappers.c **** 		vPortResetPrivilege( xRunningPrivileged );
 385              		.loc 1 203 0
 386 0012 2846     		mov	r0, r5
 387              	.LVL52:
 388 0014 FFF7FEFF 		bl	vPortResetPrivilege
 389              	.LVL53:
 204:Source\bsw\FreeRTOS\src/mpu_wrappers.c **** 		return uxReturn;
 205:Source\bsw\FreeRTOS\src/mpu_wrappers.c **** 	}
 390              		.loc 1 205 0
 391 0018 2046     		mov	r0, r4
 392 001a 38BD     		pop	{r3, r4, r5, pc}
 393              		.cfi_endproc
 394              	.LFE76:
 395              		.size	MPU_uxTaskPriorityGet, .-MPU_uxTaskPriorityGet
 396              		.section	.text.MPU_vTaskPrioritySet,"ax",%progbits
 397              		.align	2
 398              		.global	MPU_vTaskPrioritySet
 399              		.thumb
 400              		.thumb_func
 401              		.type	MPU_vTaskPrioritySet, %function
 402              	MPU_vTaskPrioritySet:
 403              	.LFB77:
 206:Source\bsw\FreeRTOS\src/mpu_wrappers.c **** #endif
 207:Source\bsw\FreeRTOS\src/mpu_wrappers.c **** /*-----------------------------------------------------------*/
 208:Source\bsw\FreeRTOS\src/mpu_wrappers.c **** 
 209:Source\bsw\FreeRTOS\src/mpu_wrappers.c **** #if ( INCLUDE_vTaskPrioritySet == 1 )
 210:Source\bsw\FreeRTOS\src/mpu_wrappers.c **** 	void MPU_vTaskPrioritySet( TaskHandle_t pxTask, UBaseType_t uxNewPriority ) /* FREERTOS_SYSTEM_CAL
 211:Source\bsw\FreeRTOS\src/mpu_wrappers.c **** 	{
 404              		.loc 1 211 0
 405              		.cfi_startproc
 406              		@ args = 0, pretend = 0, frame = 0
 407              		@ frame_needed = 0, uses_anonymous_args = 0
 408              	.LVL54:
 409 0000 70B5     		push	{r4, r5, r6, lr}
 410              		.cfi_def_cfa_offset 16
 411              		.cfi_offset 4, -16
 412              		.cfi_offset 5, -12
 413              		.cfi_offset 6, -8
 414              		.cfi_offset 14, -4
 415 0002 0546     		mov	r5, r0
ARM GAS  C:\Users\Reza\AppData\Local\Temp\cckOPwM0.s 			page 12


 416 0004 0E46     		mov	r6, r1
 212:Source\bsw\FreeRTOS\src/mpu_wrappers.c **** 	BaseType_t xRunningPrivileged = xPortRaisePrivilege();
 417              		.loc 1 212 0
 418 0006 FFF7FEFF 		bl	xPortRaisePrivilege
 419              	.LVL55:
 420 000a 0446     		mov	r4, r0
 421              	.LVL56:
 213:Source\bsw\FreeRTOS\src/mpu_wrappers.c **** 
 214:Source\bsw\FreeRTOS\src/mpu_wrappers.c **** 		vTaskPrioritySet( pxTask, uxNewPriority );
 422              		.loc 1 214 0
 423 000c 3146     		mov	r1, r6
 424 000e 2846     		mov	r0, r5
 425              	.LVL57:
 426 0010 FFF7FEFF 		bl	vTaskPrioritySet
 427              	.LVL58:
 215:Source\bsw\FreeRTOS\src/mpu_wrappers.c **** 		vPortResetPrivilege( xRunningPrivileged );
 428              		.loc 1 215 0
 429 0014 2046     		mov	r0, r4
 430 0016 FFF7FEFF 		bl	vPortResetPrivilege
 431              	.LVL59:
 432 001a 70BD     		pop	{r4, r5, r6, pc}
 433              		.cfi_endproc
 434              	.LFE77:
 435              		.size	MPU_vTaskPrioritySet, .-MPU_vTaskPrioritySet
 436              		.section	.text.MPU_eTaskGetState,"ax",%progbits
 437              		.align	2
 438              		.global	MPU_eTaskGetState
 439              		.thumb
 440              		.thumb_func
 441              		.type	MPU_eTaskGetState, %function
 442              	MPU_eTaskGetState:
 443              	.LFB78:
 216:Source\bsw\FreeRTOS\src/mpu_wrappers.c **** 	}
 217:Source\bsw\FreeRTOS\src/mpu_wrappers.c **** #endif
 218:Source\bsw\FreeRTOS\src/mpu_wrappers.c **** /*-----------------------------------------------------------*/
 219:Source\bsw\FreeRTOS\src/mpu_wrappers.c **** 
 220:Source\bsw\FreeRTOS\src/mpu_wrappers.c **** #if ( INCLUDE_eTaskGetState == 1 )
 221:Source\bsw\FreeRTOS\src/mpu_wrappers.c **** 	eTaskState MPU_eTaskGetState( TaskHandle_t pxTask ) /* FREERTOS_SYSTEM_CALL */
 222:Source\bsw\FreeRTOS\src/mpu_wrappers.c **** 	{
 444              		.loc 1 222 0
 445              		.cfi_startproc
 446              		@ args = 0, pretend = 0, frame = 0
 447              		@ frame_needed = 0, uses_anonymous_args = 0
 448              	.LVL60:
 449 0000 38B5     		push	{r3, r4, r5, lr}
 450              		.cfi_def_cfa_offset 16
 451              		.cfi_offset 3, -16
 452              		.cfi_offset 4, -12
 453              		.cfi_offset 5, -8
 454              		.cfi_offset 14, -4
 455 0002 0446     		mov	r4, r0
 223:Source\bsw\FreeRTOS\src/mpu_wrappers.c **** 	BaseType_t xRunningPrivileged = xPortRaisePrivilege();
 456              		.loc 1 223 0
 457 0004 FFF7FEFF 		bl	xPortRaisePrivilege
 458              	.LVL61:
 459 0008 0546     		mov	r5, r0
 460              	.LVL62:
ARM GAS  C:\Users\Reza\AppData\Local\Temp\cckOPwM0.s 			page 13


 224:Source\bsw\FreeRTOS\src/mpu_wrappers.c **** 	eTaskState eReturn;
 225:Source\bsw\FreeRTOS\src/mpu_wrappers.c **** 
 226:Source\bsw\FreeRTOS\src/mpu_wrappers.c **** 		eReturn = eTaskGetState( pxTask );
 461              		.loc 1 226 0
 462 000a 2046     		mov	r0, r4
 463              	.LVL63:
 464 000c FFF7FEFF 		bl	eTaskGetState
 465              	.LVL64:
 466 0010 0446     		mov	r4, r0
 467              	.LVL65:
 227:Source\bsw\FreeRTOS\src/mpu_wrappers.c **** 		vPortResetPrivilege( xRunningPrivileged );
 468              		.loc 1 227 0
 469 0012 2846     		mov	r0, r5
 470 0014 FFF7FEFF 		bl	vPortResetPrivilege
 471              	.LVL66:
 228:Source\bsw\FreeRTOS\src/mpu_wrappers.c **** 		return eReturn;
 229:Source\bsw\FreeRTOS\src/mpu_wrappers.c **** 	}
 472              		.loc 1 229 0
 473 0018 2046     		mov	r0, r4
 474 001a 38BD     		pop	{r3, r4, r5, pc}
 475              		.cfi_endproc
 476              	.LFE78:
 477              		.size	MPU_eTaskGetState, .-MPU_eTaskGetState
 478              		.section	.text.MPU_vTaskSuspend,"ax",%progbits
 479              		.align	2
 480              		.global	MPU_vTaskSuspend
 481              		.thumb
 482              		.thumb_func
 483              		.type	MPU_vTaskSuspend, %function
 484              	MPU_vTaskSuspend:
 485              	.LFB79:
 230:Source\bsw\FreeRTOS\src/mpu_wrappers.c **** #endif
 231:Source\bsw\FreeRTOS\src/mpu_wrappers.c **** /*-----------------------------------------------------------*/
 232:Source\bsw\FreeRTOS\src/mpu_wrappers.c **** 
 233:Source\bsw\FreeRTOS\src/mpu_wrappers.c **** #if( configUSE_TRACE_FACILITY == 1 )
 234:Source\bsw\FreeRTOS\src/mpu_wrappers.c **** 	void MPU_vTaskGetInfo( TaskHandle_t xTask, TaskStatus_t *pxTaskStatus, BaseType_t xGetFreeStackSpa
 235:Source\bsw\FreeRTOS\src/mpu_wrappers.c **** 	{
 236:Source\bsw\FreeRTOS\src/mpu_wrappers.c **** 	BaseType_t xRunningPrivileged = xPortRaisePrivilege();
 237:Source\bsw\FreeRTOS\src/mpu_wrappers.c **** 
 238:Source\bsw\FreeRTOS\src/mpu_wrappers.c **** 		vTaskGetInfo( xTask, pxTaskStatus, xGetFreeStackSpace, eState );
 239:Source\bsw\FreeRTOS\src/mpu_wrappers.c **** 		vPortResetPrivilege( xRunningPrivileged );
 240:Source\bsw\FreeRTOS\src/mpu_wrappers.c **** 	}
 241:Source\bsw\FreeRTOS\src/mpu_wrappers.c **** #endif
 242:Source\bsw\FreeRTOS\src/mpu_wrappers.c **** /*-----------------------------------------------------------*/
 243:Source\bsw\FreeRTOS\src/mpu_wrappers.c **** 
 244:Source\bsw\FreeRTOS\src/mpu_wrappers.c **** #if ( INCLUDE_xTaskGetIdleTaskHandle == 1 )
 245:Source\bsw\FreeRTOS\src/mpu_wrappers.c **** 	TaskHandle_t MPU_xTaskGetIdleTaskHandle( void ) /* FREERTOS_SYSTEM_CALL */
 246:Source\bsw\FreeRTOS\src/mpu_wrappers.c **** 	{
 247:Source\bsw\FreeRTOS\src/mpu_wrappers.c **** 	TaskHandle_t xReturn;
 248:Source\bsw\FreeRTOS\src/mpu_wrappers.c **** 	BaseType_t xRunningPrivileged = xPortRaisePrivilege();
 249:Source\bsw\FreeRTOS\src/mpu_wrappers.c **** 
 250:Source\bsw\FreeRTOS\src/mpu_wrappers.c **** 		xReturn = xTaskGetIdleTaskHandle();
 251:Source\bsw\FreeRTOS\src/mpu_wrappers.c **** 		vPortResetPrivilege( xRunningPrivileged );
 252:Source\bsw\FreeRTOS\src/mpu_wrappers.c **** 		return xReturn;
 253:Source\bsw\FreeRTOS\src/mpu_wrappers.c **** 	}
 254:Source\bsw\FreeRTOS\src/mpu_wrappers.c **** #endif
 255:Source\bsw\FreeRTOS\src/mpu_wrappers.c **** /*-----------------------------------------------------------*/
ARM GAS  C:\Users\Reza\AppData\Local\Temp\cckOPwM0.s 			page 14


 256:Source\bsw\FreeRTOS\src/mpu_wrappers.c **** 
 257:Source\bsw\FreeRTOS\src/mpu_wrappers.c **** #if ( INCLUDE_vTaskSuspend == 1 )
 258:Source\bsw\FreeRTOS\src/mpu_wrappers.c **** 	void MPU_vTaskSuspend( TaskHandle_t pxTaskToSuspend ) /* FREERTOS_SYSTEM_CALL */
 259:Source\bsw\FreeRTOS\src/mpu_wrappers.c **** 	{
 486              		.loc 1 259 0
 487              		.cfi_startproc
 488              		@ args = 0, pretend = 0, frame = 0
 489              		@ frame_needed = 0, uses_anonymous_args = 0
 490              	.LVL67:
 491 0000 38B5     		push	{r3, r4, r5, lr}
 492              		.cfi_def_cfa_offset 16
 493              		.cfi_offset 3, -16
 494              		.cfi_offset 4, -12
 495              		.cfi_offset 5, -8
 496              		.cfi_offset 14, -4
 497 0002 0546     		mov	r5, r0
 260:Source\bsw\FreeRTOS\src/mpu_wrappers.c **** 	BaseType_t xRunningPrivileged = xPortRaisePrivilege();
 498              		.loc 1 260 0
 499 0004 FFF7FEFF 		bl	xPortRaisePrivilege
 500              	.LVL68:
 501 0008 0446     		mov	r4, r0
 502              	.LVL69:
 261:Source\bsw\FreeRTOS\src/mpu_wrappers.c **** 
 262:Source\bsw\FreeRTOS\src/mpu_wrappers.c **** 		vTaskSuspend( pxTaskToSuspend );
 503              		.loc 1 262 0
 504 000a 2846     		mov	r0, r5
 505              	.LVL70:
 506 000c FFF7FEFF 		bl	vTaskSuspend
 507              	.LVL71:
 263:Source\bsw\FreeRTOS\src/mpu_wrappers.c **** 		vPortResetPrivilege( xRunningPrivileged );
 508              		.loc 1 263 0
 509 0010 2046     		mov	r0, r4
 510 0012 FFF7FEFF 		bl	vPortResetPrivilege
 511              	.LVL72:
 512 0016 38BD     		pop	{r3, r4, r5, pc}
 513              		.cfi_endproc
 514              	.LFE79:
 515              		.size	MPU_vTaskSuspend, .-MPU_vTaskSuspend
 516              		.section	.text.MPU_vTaskResume,"ax",%progbits
 517              		.align	2
 518              		.global	MPU_vTaskResume
 519              		.thumb
 520              		.thumb_func
 521              		.type	MPU_vTaskResume, %function
 522              	MPU_vTaskResume:
 523              	.LFB80:
 264:Source\bsw\FreeRTOS\src/mpu_wrappers.c **** 	}
 265:Source\bsw\FreeRTOS\src/mpu_wrappers.c **** #endif
 266:Source\bsw\FreeRTOS\src/mpu_wrappers.c **** /*-----------------------------------------------------------*/
 267:Source\bsw\FreeRTOS\src/mpu_wrappers.c **** 
 268:Source\bsw\FreeRTOS\src/mpu_wrappers.c **** #if ( INCLUDE_vTaskSuspend == 1 )
 269:Source\bsw\FreeRTOS\src/mpu_wrappers.c **** 	void MPU_vTaskResume( TaskHandle_t pxTaskToResume ) /* FREERTOS_SYSTEM_CALL */
 270:Source\bsw\FreeRTOS\src/mpu_wrappers.c **** 	{
 524              		.loc 1 270 0
 525              		.cfi_startproc
 526              		@ args = 0, pretend = 0, frame = 0
 527              		@ frame_needed = 0, uses_anonymous_args = 0
ARM GAS  C:\Users\Reza\AppData\Local\Temp\cckOPwM0.s 			page 15


 528              	.LVL73:
 529 0000 38B5     		push	{r3, r4, r5, lr}
 530              		.cfi_def_cfa_offset 16
 531              		.cfi_offset 3, -16
 532              		.cfi_offset 4, -12
 533              		.cfi_offset 5, -8
 534              		.cfi_offset 14, -4
 535 0002 0546     		mov	r5, r0
 271:Source\bsw\FreeRTOS\src/mpu_wrappers.c **** 	BaseType_t xRunningPrivileged = xPortRaisePrivilege();
 536              		.loc 1 271 0
 537 0004 FFF7FEFF 		bl	xPortRaisePrivilege
 538              	.LVL74:
 539 0008 0446     		mov	r4, r0
 540              	.LVL75:
 272:Source\bsw\FreeRTOS\src/mpu_wrappers.c **** 
 273:Source\bsw\FreeRTOS\src/mpu_wrappers.c **** 		vTaskResume( pxTaskToResume );
 541              		.loc 1 273 0
 542 000a 2846     		mov	r0, r5
 543              	.LVL76:
 544 000c FFF7FEFF 		bl	vTaskResume
 545              	.LVL77:
 274:Source\bsw\FreeRTOS\src/mpu_wrappers.c **** 		vPortResetPrivilege( xRunningPrivileged );
 546              		.loc 1 274 0
 547 0010 2046     		mov	r0, r4
 548 0012 FFF7FEFF 		bl	vPortResetPrivilege
 549              	.LVL78:
 550 0016 38BD     		pop	{r3, r4, r5, pc}
 551              		.cfi_endproc
 552              	.LFE80:
 553              		.size	MPU_vTaskResume, .-MPU_vTaskResume
 554              		.section	.text.MPU_vTaskSuspendAll,"ax",%progbits
 555              		.align	2
 556              		.global	MPU_vTaskSuspendAll
 557              		.thumb
 558              		.thumb_func
 559              		.type	MPU_vTaskSuspendAll, %function
 560              	MPU_vTaskSuspendAll:
 561              	.LFB81:
 275:Source\bsw\FreeRTOS\src/mpu_wrappers.c **** 	}
 276:Source\bsw\FreeRTOS\src/mpu_wrappers.c **** #endif
 277:Source\bsw\FreeRTOS\src/mpu_wrappers.c **** /*-----------------------------------------------------------*/
 278:Source\bsw\FreeRTOS\src/mpu_wrappers.c **** 
 279:Source\bsw\FreeRTOS\src/mpu_wrappers.c **** void MPU_vTaskSuspendAll( void ) /* FREERTOS_SYSTEM_CALL */
 280:Source\bsw\FreeRTOS\src/mpu_wrappers.c **** {
 562              		.loc 1 280 0
 563              		.cfi_startproc
 564              		@ args = 0, pretend = 0, frame = 0
 565              		@ frame_needed = 0, uses_anonymous_args = 0
 566 0000 10B5     		push	{r4, lr}
 567              		.cfi_def_cfa_offset 8
 568              		.cfi_offset 4, -8
 569              		.cfi_offset 14, -4
 281:Source\bsw\FreeRTOS\src/mpu_wrappers.c **** BaseType_t xRunningPrivileged = xPortRaisePrivilege();
 570              		.loc 1 281 0
 571 0002 FFF7FEFF 		bl	xPortRaisePrivilege
 572              	.LVL79:
 573 0006 0446     		mov	r4, r0
ARM GAS  C:\Users\Reza\AppData\Local\Temp\cckOPwM0.s 			page 16


 574              	.LVL80:
 282:Source\bsw\FreeRTOS\src/mpu_wrappers.c **** 
 283:Source\bsw\FreeRTOS\src/mpu_wrappers.c **** 	vTaskSuspendAll();
 575              		.loc 1 283 0
 576 0008 FFF7FEFF 		bl	vTaskSuspendAll
 577              	.LVL81:
 284:Source\bsw\FreeRTOS\src/mpu_wrappers.c **** 	vPortResetPrivilege( xRunningPrivileged );
 578              		.loc 1 284 0
 579 000c 2046     		mov	r0, r4
 580 000e FFF7FEFF 		bl	vPortResetPrivilege
 581              	.LVL82:
 582 0012 10BD     		pop	{r4, pc}
 583              		.cfi_endproc
 584              	.LFE81:
 585              		.size	MPU_vTaskSuspendAll, .-MPU_vTaskSuspendAll
 586              		.section	.text.MPU_xTaskResumeAll,"ax",%progbits
 587              		.align	2
 588              		.global	MPU_xTaskResumeAll
 589              		.thumb
 590              		.thumb_func
 591              		.type	MPU_xTaskResumeAll, %function
 592              	MPU_xTaskResumeAll:
 593              	.LFB82:
 285:Source\bsw\FreeRTOS\src/mpu_wrappers.c **** }
 286:Source\bsw\FreeRTOS\src/mpu_wrappers.c **** /*-----------------------------------------------------------*/
 287:Source\bsw\FreeRTOS\src/mpu_wrappers.c **** 
 288:Source\bsw\FreeRTOS\src/mpu_wrappers.c **** BaseType_t MPU_xTaskResumeAll( void ) /* FREERTOS_SYSTEM_CALL */
 289:Source\bsw\FreeRTOS\src/mpu_wrappers.c **** {
 594              		.loc 1 289 0
 595              		.cfi_startproc
 596              		@ args = 0, pretend = 0, frame = 0
 597              		@ frame_needed = 0, uses_anonymous_args = 0
 598 0000 38B5     		push	{r3, r4, r5, lr}
 599              		.cfi_def_cfa_offset 16
 600              		.cfi_offset 3, -16
 601              		.cfi_offset 4, -12
 602              		.cfi_offset 5, -8
 603              		.cfi_offset 14, -4
 290:Source\bsw\FreeRTOS\src/mpu_wrappers.c **** BaseType_t xReturn;
 291:Source\bsw\FreeRTOS\src/mpu_wrappers.c **** BaseType_t xRunningPrivileged = xPortRaisePrivilege();
 604              		.loc 1 291 0
 605 0002 FFF7FEFF 		bl	xPortRaisePrivilege
 606              	.LVL83:
 607 0006 0546     		mov	r5, r0
 608              	.LVL84:
 292:Source\bsw\FreeRTOS\src/mpu_wrappers.c **** 
 293:Source\bsw\FreeRTOS\src/mpu_wrappers.c **** 	xReturn = xTaskResumeAll();
 609              		.loc 1 293 0
 610 0008 FFF7FEFF 		bl	xTaskResumeAll
 611              	.LVL85:
 612 000c 0446     		mov	r4, r0
 613              	.LVL86:
 294:Source\bsw\FreeRTOS\src/mpu_wrappers.c **** 	vPortResetPrivilege( xRunningPrivileged );
 614              		.loc 1 294 0
 615 000e 2846     		mov	r0, r5
 616              	.LVL87:
 617 0010 FFF7FEFF 		bl	vPortResetPrivilege
ARM GAS  C:\Users\Reza\AppData\Local\Temp\cckOPwM0.s 			page 17


 618              	.LVL88:
 295:Source\bsw\FreeRTOS\src/mpu_wrappers.c **** 	return xReturn;
 296:Source\bsw\FreeRTOS\src/mpu_wrappers.c **** }
 619              		.loc 1 296 0
 620 0014 2046     		mov	r0, r4
 621 0016 38BD     		pop	{r3, r4, r5, pc}
 622              		.cfi_endproc
 623              	.LFE82:
 624              		.size	MPU_xTaskResumeAll, .-MPU_xTaskResumeAll
 625              		.section	.text.MPU_xTaskGetTickCount,"ax",%progbits
 626              		.align	2
 627              		.global	MPU_xTaskGetTickCount
 628              		.thumb
 629              		.thumb_func
 630              		.type	MPU_xTaskGetTickCount, %function
 631              	MPU_xTaskGetTickCount:
 632              	.LFB83:
 297:Source\bsw\FreeRTOS\src/mpu_wrappers.c **** /*-----------------------------------------------------------*/
 298:Source\bsw\FreeRTOS\src/mpu_wrappers.c **** 
 299:Source\bsw\FreeRTOS\src/mpu_wrappers.c **** TickType_t MPU_xTaskGetTickCount( void ) /* FREERTOS_SYSTEM_CALL */
 300:Source\bsw\FreeRTOS\src/mpu_wrappers.c **** {
 633              		.loc 1 300 0
 634              		.cfi_startproc
 635              		@ args = 0, pretend = 0, frame = 0
 636              		@ frame_needed = 0, uses_anonymous_args = 0
 637 0000 38B5     		push	{r3, r4, r5, lr}
 638              		.cfi_def_cfa_offset 16
 639              		.cfi_offset 3, -16
 640              		.cfi_offset 4, -12
 641              		.cfi_offset 5, -8
 642              		.cfi_offset 14, -4
 301:Source\bsw\FreeRTOS\src/mpu_wrappers.c **** TickType_t xReturn;
 302:Source\bsw\FreeRTOS\src/mpu_wrappers.c **** BaseType_t xRunningPrivileged = xPortRaisePrivilege();
 643              		.loc 1 302 0
 644 0002 FFF7FEFF 		bl	xPortRaisePrivilege
 645              	.LVL89:
 646 0006 0546     		mov	r5, r0
 647              	.LVL90:
 303:Source\bsw\FreeRTOS\src/mpu_wrappers.c **** 
 304:Source\bsw\FreeRTOS\src/mpu_wrappers.c **** 	xReturn = xTaskGetTickCount();
 648              		.loc 1 304 0
 649 0008 FFF7FEFF 		bl	xTaskGetTickCount
 650              	.LVL91:
 651 000c 0446     		mov	r4, r0
 652              	.LVL92:
 305:Source\bsw\FreeRTOS\src/mpu_wrappers.c **** 	vPortResetPrivilege( xRunningPrivileged );
 653              		.loc 1 305 0
 654 000e 2846     		mov	r0, r5
 655              	.LVL93:
 656 0010 FFF7FEFF 		bl	vPortResetPrivilege
 657              	.LVL94:
 306:Source\bsw\FreeRTOS\src/mpu_wrappers.c **** 	return xReturn;
 307:Source\bsw\FreeRTOS\src/mpu_wrappers.c **** }
 658              		.loc 1 307 0
 659 0014 2046     		mov	r0, r4
 660 0016 38BD     		pop	{r3, r4, r5, pc}
 661              		.cfi_endproc
ARM GAS  C:\Users\Reza\AppData\Local\Temp\cckOPwM0.s 			page 18


 662              	.LFE83:
 663              		.size	MPU_xTaskGetTickCount, .-MPU_xTaskGetTickCount
 664              		.section	.text.MPU_uxTaskGetNumberOfTasks,"ax",%progbits
 665              		.align	2
 666              		.global	MPU_uxTaskGetNumberOfTasks
 667              		.thumb
 668              		.thumb_func
 669              		.type	MPU_uxTaskGetNumberOfTasks, %function
 670              	MPU_uxTaskGetNumberOfTasks:
 671              	.LFB84:
 308:Source\bsw\FreeRTOS\src/mpu_wrappers.c **** /*-----------------------------------------------------------*/
 309:Source\bsw\FreeRTOS\src/mpu_wrappers.c **** 
 310:Source\bsw\FreeRTOS\src/mpu_wrappers.c **** UBaseType_t MPU_uxTaskGetNumberOfTasks( void ) /* FREERTOS_SYSTEM_CALL */
 311:Source\bsw\FreeRTOS\src/mpu_wrappers.c **** {
 672              		.loc 1 311 0
 673              		.cfi_startproc
 674              		@ args = 0, pretend = 0, frame = 0
 675              		@ frame_needed = 0, uses_anonymous_args = 0
 676 0000 38B5     		push	{r3, r4, r5, lr}
 677              		.cfi_def_cfa_offset 16
 678              		.cfi_offset 3, -16
 679              		.cfi_offset 4, -12
 680              		.cfi_offset 5, -8
 681              		.cfi_offset 14, -4
 312:Source\bsw\FreeRTOS\src/mpu_wrappers.c **** UBaseType_t uxReturn;
 313:Source\bsw\FreeRTOS\src/mpu_wrappers.c **** BaseType_t xRunningPrivileged = xPortRaisePrivilege();
 682              		.loc 1 313 0
 683 0002 FFF7FEFF 		bl	xPortRaisePrivilege
 684              	.LVL95:
 685 0006 0546     		mov	r5, r0
 686              	.LVL96:
 314:Source\bsw\FreeRTOS\src/mpu_wrappers.c **** 
 315:Source\bsw\FreeRTOS\src/mpu_wrappers.c **** 	uxReturn = uxTaskGetNumberOfTasks();
 687              		.loc 1 315 0
 688 0008 FFF7FEFF 		bl	uxTaskGetNumberOfTasks
 689              	.LVL97:
 690 000c 0446     		mov	r4, r0
 691              	.LVL98:
 316:Source\bsw\FreeRTOS\src/mpu_wrappers.c **** 	vPortResetPrivilege( xRunningPrivileged );
 692              		.loc 1 316 0
 693 000e 2846     		mov	r0, r5
 694              	.LVL99:
 695 0010 FFF7FEFF 		bl	vPortResetPrivilege
 696              	.LVL100:
 317:Source\bsw\FreeRTOS\src/mpu_wrappers.c **** 	return uxReturn;
 318:Source\bsw\FreeRTOS\src/mpu_wrappers.c **** }
 697              		.loc 1 318 0
 698 0014 2046     		mov	r0, r4
 699 0016 38BD     		pop	{r3, r4, r5, pc}
 700              		.cfi_endproc
 701              	.LFE84:
 702              		.size	MPU_uxTaskGetNumberOfTasks, .-MPU_uxTaskGetNumberOfTasks
 703              		.section	.text.MPU_pcTaskGetName,"ax",%progbits
 704              		.align	2
 705              		.global	MPU_pcTaskGetName
 706              		.thumb
 707              		.thumb_func
ARM GAS  C:\Users\Reza\AppData\Local\Temp\cckOPwM0.s 			page 19


 708              		.type	MPU_pcTaskGetName, %function
 709              	MPU_pcTaskGetName:
 710              	.LFB85:
 319:Source\bsw\FreeRTOS\src/mpu_wrappers.c **** /*-----------------------------------------------------------*/
 320:Source\bsw\FreeRTOS\src/mpu_wrappers.c **** 
 321:Source\bsw\FreeRTOS\src/mpu_wrappers.c **** char * MPU_pcTaskGetName( TaskHandle_t xTaskToQuery ) /* FREERTOS_SYSTEM_CALL */
 322:Source\bsw\FreeRTOS\src/mpu_wrappers.c **** {
 711              		.loc 1 322 0
 712              		.cfi_startproc
 713              		@ args = 0, pretend = 0, frame = 0
 714              		@ frame_needed = 0, uses_anonymous_args = 0
 715              	.LVL101:
 716 0000 38B5     		push	{r3, r4, r5, lr}
 717              		.cfi_def_cfa_offset 16
 718              		.cfi_offset 3, -16
 719              		.cfi_offset 4, -12
 720              		.cfi_offset 5, -8
 721              		.cfi_offset 14, -4
 722 0002 0446     		mov	r4, r0
 323:Source\bsw\FreeRTOS\src/mpu_wrappers.c **** char *pcReturn;
 324:Source\bsw\FreeRTOS\src/mpu_wrappers.c **** BaseType_t xRunningPrivileged = xPortRaisePrivilege();
 723              		.loc 1 324 0
 724 0004 FFF7FEFF 		bl	xPortRaisePrivilege
 725              	.LVL102:
 726 0008 0546     		mov	r5, r0
 727              	.LVL103:
 325:Source\bsw\FreeRTOS\src/mpu_wrappers.c **** 
 326:Source\bsw\FreeRTOS\src/mpu_wrappers.c **** 	pcReturn = pcTaskGetName( xTaskToQuery );
 728              		.loc 1 326 0
 729 000a 2046     		mov	r0, r4
 730              	.LVL104:
 731 000c FFF7FEFF 		bl	pcTaskGetName
 732              	.LVL105:
 733 0010 0446     		mov	r4, r0
 734              	.LVL106:
 327:Source\bsw\FreeRTOS\src/mpu_wrappers.c **** 	vPortResetPrivilege( xRunningPrivileged );
 735              		.loc 1 327 0
 736 0012 2846     		mov	r0, r5
 737              	.LVL107:
 738 0014 FFF7FEFF 		bl	vPortResetPrivilege
 739              	.LVL108:
 328:Source\bsw\FreeRTOS\src/mpu_wrappers.c **** 	return pcReturn;
 329:Source\bsw\FreeRTOS\src/mpu_wrappers.c **** }
 740              		.loc 1 329 0
 741 0018 2046     		mov	r0, r4
 742 001a 38BD     		pop	{r3, r4, r5, pc}
 743              		.cfi_endproc
 744              	.LFE85:
 745              		.size	MPU_pcTaskGetName, .-MPU_pcTaskGetName
 746              		.section	.text.MPU_xTaskCatchUpTicks,"ax",%progbits
 747              		.align	2
 748              		.global	MPU_xTaskCatchUpTicks
 749              		.thumb
 750              		.thumb_func
 751              		.type	MPU_xTaskCatchUpTicks, %function
 752              	MPU_xTaskCatchUpTicks:
 753              	.LFB86:
ARM GAS  C:\Users\Reza\AppData\Local\Temp\cckOPwM0.s 			page 20


 330:Source\bsw\FreeRTOS\src/mpu_wrappers.c **** /*-----------------------------------------------------------*/
 331:Source\bsw\FreeRTOS\src/mpu_wrappers.c **** 
 332:Source\bsw\FreeRTOS\src/mpu_wrappers.c **** #if ( INCLUDE_xTaskGetHandle == 1 )
 333:Source\bsw\FreeRTOS\src/mpu_wrappers.c **** 	TaskHandle_t MPU_xTaskGetHandle( const char *pcNameToQuery ) /* FREERTOS_SYSTEM_CALL */
 334:Source\bsw\FreeRTOS\src/mpu_wrappers.c **** 	{
 335:Source\bsw\FreeRTOS\src/mpu_wrappers.c **** 	TaskHandle_t xReturn;
 336:Source\bsw\FreeRTOS\src/mpu_wrappers.c **** 	BaseType_t xRunningPrivileged = xPortRaisePrivilege();
 337:Source\bsw\FreeRTOS\src/mpu_wrappers.c **** 
 338:Source\bsw\FreeRTOS\src/mpu_wrappers.c **** 		xReturn = xTaskGetHandle( pcNameToQuery );
 339:Source\bsw\FreeRTOS\src/mpu_wrappers.c **** 		vPortResetPrivilege( xRunningPrivileged );
 340:Source\bsw\FreeRTOS\src/mpu_wrappers.c **** 		return xReturn;
 341:Source\bsw\FreeRTOS\src/mpu_wrappers.c **** 	}
 342:Source\bsw\FreeRTOS\src/mpu_wrappers.c **** #endif
 343:Source\bsw\FreeRTOS\src/mpu_wrappers.c **** /*-----------------------------------------------------------*/
 344:Source\bsw\FreeRTOS\src/mpu_wrappers.c **** 
 345:Source\bsw\FreeRTOS\src/mpu_wrappers.c **** #if ( ( configUSE_TRACE_FACILITY == 1 ) && ( configUSE_STATS_FORMATTING_FUNCTIONS > 0 ) && ( config
 346:Source\bsw\FreeRTOS\src/mpu_wrappers.c **** 	void MPU_vTaskList( char *pcWriteBuffer ) /* FREERTOS_SYSTEM_CALL */
 347:Source\bsw\FreeRTOS\src/mpu_wrappers.c **** 	{
 348:Source\bsw\FreeRTOS\src/mpu_wrappers.c **** 	BaseType_t xRunningPrivileged = xPortRaisePrivilege();
 349:Source\bsw\FreeRTOS\src/mpu_wrappers.c **** 
 350:Source\bsw\FreeRTOS\src/mpu_wrappers.c **** 		vTaskList( pcWriteBuffer );
 351:Source\bsw\FreeRTOS\src/mpu_wrappers.c **** 		vPortResetPrivilege( xRunningPrivileged );
 352:Source\bsw\FreeRTOS\src/mpu_wrappers.c **** 	}
 353:Source\bsw\FreeRTOS\src/mpu_wrappers.c **** #endif
 354:Source\bsw\FreeRTOS\src/mpu_wrappers.c **** /*-----------------------------------------------------------*/
 355:Source\bsw\FreeRTOS\src/mpu_wrappers.c **** 
 356:Source\bsw\FreeRTOS\src/mpu_wrappers.c **** #if ( ( configGENERATE_RUN_TIME_STATS == 1 ) && ( configUSE_STATS_FORMATTING_FUNCTIONS > 0 ) && ( c
 357:Source\bsw\FreeRTOS\src/mpu_wrappers.c **** 	void MPU_vTaskGetRunTimeStats( char *pcWriteBuffer ) /* FREERTOS_SYSTEM_CALL */
 358:Source\bsw\FreeRTOS\src/mpu_wrappers.c **** 	{
 359:Source\bsw\FreeRTOS\src/mpu_wrappers.c **** 	BaseType_t xRunningPrivileged = xPortRaisePrivilege();
 360:Source\bsw\FreeRTOS\src/mpu_wrappers.c **** 
 361:Source\bsw\FreeRTOS\src/mpu_wrappers.c **** 		vTaskGetRunTimeStats( pcWriteBuffer );
 362:Source\bsw\FreeRTOS\src/mpu_wrappers.c **** 		vPortResetPrivilege( xRunningPrivileged );
 363:Source\bsw\FreeRTOS\src/mpu_wrappers.c **** 	}
 364:Source\bsw\FreeRTOS\src/mpu_wrappers.c **** #endif
 365:Source\bsw\FreeRTOS\src/mpu_wrappers.c **** /*-----------------------------------------------------------*/
 366:Source\bsw\FreeRTOS\src/mpu_wrappers.c **** 
 367:Source\bsw\FreeRTOS\src/mpu_wrappers.c **** #if( ( configGENERATE_RUN_TIME_STATS == 1 ) && ( INCLUDE_xTaskGetIdleTaskHandle == 1 ) )
 368:Source\bsw\FreeRTOS\src/mpu_wrappers.c **** 	uint32_t MPU_ulTaskGetIdleRunTimeCounter( void ) /* FREERTOS_SYSTEM_CALL */
 369:Source\bsw\FreeRTOS\src/mpu_wrappers.c **** 	{
 370:Source\bsw\FreeRTOS\src/mpu_wrappers.c **** 	uint32_t xReturn;
 371:Source\bsw\FreeRTOS\src/mpu_wrappers.c **** 	BaseType_t xRunningPrivileged = xPortRaisePrivilege();
 372:Source\bsw\FreeRTOS\src/mpu_wrappers.c **** 
 373:Source\bsw\FreeRTOS\src/mpu_wrappers.c **** 		xReturn = ulTaskGetIdleRunTimeCounter();
 374:Source\bsw\FreeRTOS\src/mpu_wrappers.c **** 		vPortResetPrivilege( xRunningPrivileged );
 375:Source\bsw\FreeRTOS\src/mpu_wrappers.c **** 		return xReturn;
 376:Source\bsw\FreeRTOS\src/mpu_wrappers.c **** 	}
 377:Source\bsw\FreeRTOS\src/mpu_wrappers.c **** #endif
 378:Source\bsw\FreeRTOS\src/mpu_wrappers.c **** /*-----------------------------------------------------------*/
 379:Source\bsw\FreeRTOS\src/mpu_wrappers.c **** 
 380:Source\bsw\FreeRTOS\src/mpu_wrappers.c **** #if ( configUSE_APPLICATION_TASK_TAG == 1 )
 381:Source\bsw\FreeRTOS\src/mpu_wrappers.c **** 	void MPU_vTaskSetApplicationTaskTag( TaskHandle_t xTask, TaskHookFunction_t pxTagValue ) /* FREERT
 382:Source\bsw\FreeRTOS\src/mpu_wrappers.c **** 	{
 383:Source\bsw\FreeRTOS\src/mpu_wrappers.c **** 	BaseType_t xRunningPrivileged = xPortRaisePrivilege();
 384:Source\bsw\FreeRTOS\src/mpu_wrappers.c **** 
 385:Source\bsw\FreeRTOS\src/mpu_wrappers.c **** 		vTaskSetApplicationTaskTag( xTask, pxTagValue );
 386:Source\bsw\FreeRTOS\src/mpu_wrappers.c **** 		vPortResetPrivilege( xRunningPrivileged );
ARM GAS  C:\Users\Reza\AppData\Local\Temp\cckOPwM0.s 			page 21


 387:Source\bsw\FreeRTOS\src/mpu_wrappers.c **** 	}
 388:Source\bsw\FreeRTOS\src/mpu_wrappers.c **** #endif
 389:Source\bsw\FreeRTOS\src/mpu_wrappers.c **** /*-----------------------------------------------------------*/
 390:Source\bsw\FreeRTOS\src/mpu_wrappers.c **** 
 391:Source\bsw\FreeRTOS\src/mpu_wrappers.c **** #if ( configUSE_APPLICATION_TASK_TAG == 1 )
 392:Source\bsw\FreeRTOS\src/mpu_wrappers.c **** 	TaskHookFunction_t MPU_xTaskGetApplicationTaskTag( TaskHandle_t xTask ) /* FREERTOS_SYSTEM_CALL */
 393:Source\bsw\FreeRTOS\src/mpu_wrappers.c **** 	{
 394:Source\bsw\FreeRTOS\src/mpu_wrappers.c **** 	TaskHookFunction_t xReturn;
 395:Source\bsw\FreeRTOS\src/mpu_wrappers.c **** 	BaseType_t xRunningPrivileged = xPortRaisePrivilege();
 396:Source\bsw\FreeRTOS\src/mpu_wrappers.c **** 
 397:Source\bsw\FreeRTOS\src/mpu_wrappers.c **** 		xReturn = xTaskGetApplicationTaskTag( xTask );
 398:Source\bsw\FreeRTOS\src/mpu_wrappers.c **** 		vPortResetPrivilege( xRunningPrivileged );
 399:Source\bsw\FreeRTOS\src/mpu_wrappers.c **** 		return xReturn;
 400:Source\bsw\FreeRTOS\src/mpu_wrappers.c **** 	}
 401:Source\bsw\FreeRTOS\src/mpu_wrappers.c **** #endif
 402:Source\bsw\FreeRTOS\src/mpu_wrappers.c **** /*-----------------------------------------------------------*/
 403:Source\bsw\FreeRTOS\src/mpu_wrappers.c **** 
 404:Source\bsw\FreeRTOS\src/mpu_wrappers.c **** #if ( configNUM_THREAD_LOCAL_STORAGE_POINTERS != 0 )
 405:Source\bsw\FreeRTOS\src/mpu_wrappers.c **** 	void MPU_vTaskSetThreadLocalStoragePointer( TaskHandle_t xTaskToSet, BaseType_t xIndex, void *pvVa
 406:Source\bsw\FreeRTOS\src/mpu_wrappers.c **** 	{
 407:Source\bsw\FreeRTOS\src/mpu_wrappers.c **** 	BaseType_t xRunningPrivileged = xPortRaisePrivilege();
 408:Source\bsw\FreeRTOS\src/mpu_wrappers.c **** 
 409:Source\bsw\FreeRTOS\src/mpu_wrappers.c **** 		vTaskSetThreadLocalStoragePointer( xTaskToSet, xIndex, pvValue );
 410:Source\bsw\FreeRTOS\src/mpu_wrappers.c **** 		vPortResetPrivilege( xRunningPrivileged );
 411:Source\bsw\FreeRTOS\src/mpu_wrappers.c **** 	}
 412:Source\bsw\FreeRTOS\src/mpu_wrappers.c **** #endif
 413:Source\bsw\FreeRTOS\src/mpu_wrappers.c **** /*-----------------------------------------------------------*/
 414:Source\bsw\FreeRTOS\src/mpu_wrappers.c **** 
 415:Source\bsw\FreeRTOS\src/mpu_wrappers.c **** #if ( configNUM_THREAD_LOCAL_STORAGE_POINTERS != 0 )
 416:Source\bsw\FreeRTOS\src/mpu_wrappers.c **** 	void *MPU_pvTaskGetThreadLocalStoragePointer( TaskHandle_t xTaskToQuery, BaseType_t xIndex ) /* FR
 417:Source\bsw\FreeRTOS\src/mpu_wrappers.c **** 	{
 418:Source\bsw\FreeRTOS\src/mpu_wrappers.c **** 	void *pvReturn;
 419:Source\bsw\FreeRTOS\src/mpu_wrappers.c **** 	BaseType_t xRunningPrivileged = xPortRaisePrivilege();
 420:Source\bsw\FreeRTOS\src/mpu_wrappers.c **** 
 421:Source\bsw\FreeRTOS\src/mpu_wrappers.c **** 		pvReturn = pvTaskGetThreadLocalStoragePointer( xTaskToQuery, xIndex );
 422:Source\bsw\FreeRTOS\src/mpu_wrappers.c **** 		vPortResetPrivilege( xRunningPrivileged );
 423:Source\bsw\FreeRTOS\src/mpu_wrappers.c **** 		return pvReturn;
 424:Source\bsw\FreeRTOS\src/mpu_wrappers.c **** 	}
 425:Source\bsw\FreeRTOS\src/mpu_wrappers.c **** #endif
 426:Source\bsw\FreeRTOS\src/mpu_wrappers.c **** /*-----------------------------------------------------------*/
 427:Source\bsw\FreeRTOS\src/mpu_wrappers.c **** 
 428:Source\bsw\FreeRTOS\src/mpu_wrappers.c **** #if ( configUSE_APPLICATION_TASK_TAG == 1 )
 429:Source\bsw\FreeRTOS\src/mpu_wrappers.c **** 	BaseType_t MPU_xTaskCallApplicationTaskHook( TaskHandle_t xTask, void *pvParameter ) /* FREERTOS_S
 430:Source\bsw\FreeRTOS\src/mpu_wrappers.c **** 	{
 431:Source\bsw\FreeRTOS\src/mpu_wrappers.c **** 	BaseType_t xReturn;
 432:Source\bsw\FreeRTOS\src/mpu_wrappers.c **** 	BaseType_t xRunningPrivileged = xPortRaisePrivilege();
 433:Source\bsw\FreeRTOS\src/mpu_wrappers.c **** 
 434:Source\bsw\FreeRTOS\src/mpu_wrappers.c **** 		xReturn = xTaskCallApplicationTaskHook( xTask, pvParameter );
 435:Source\bsw\FreeRTOS\src/mpu_wrappers.c **** 		vPortResetPrivilege( xRunningPrivileged );
 436:Source\bsw\FreeRTOS\src/mpu_wrappers.c **** 		return xReturn;
 437:Source\bsw\FreeRTOS\src/mpu_wrappers.c **** 	}
 438:Source\bsw\FreeRTOS\src/mpu_wrappers.c **** #endif
 439:Source\bsw\FreeRTOS\src/mpu_wrappers.c **** /*-----------------------------------------------------------*/
 440:Source\bsw\FreeRTOS\src/mpu_wrappers.c **** 
 441:Source\bsw\FreeRTOS\src/mpu_wrappers.c **** #if ( configUSE_TRACE_FACILITY == 1 )
 442:Source\bsw\FreeRTOS\src/mpu_wrappers.c **** 	UBaseType_t MPU_uxTaskGetSystemState( TaskStatus_t *pxTaskStatusArray, UBaseType_t uxArraySize, ui
 443:Source\bsw\FreeRTOS\src/mpu_wrappers.c **** 	{
ARM GAS  C:\Users\Reza\AppData\Local\Temp\cckOPwM0.s 			page 22


 444:Source\bsw\FreeRTOS\src/mpu_wrappers.c **** 	UBaseType_t uxReturn;
 445:Source\bsw\FreeRTOS\src/mpu_wrappers.c **** 	BaseType_t xRunningPrivileged = xPortRaisePrivilege();
 446:Source\bsw\FreeRTOS\src/mpu_wrappers.c **** 
 447:Source\bsw\FreeRTOS\src/mpu_wrappers.c **** 		uxReturn = uxTaskGetSystemState( pxTaskStatusArray, uxArraySize, pulTotalRunTime );
 448:Source\bsw\FreeRTOS\src/mpu_wrappers.c **** 		vPortResetPrivilege( xRunningPrivileged );
 449:Source\bsw\FreeRTOS\src/mpu_wrappers.c **** 		return uxReturn;
 450:Source\bsw\FreeRTOS\src/mpu_wrappers.c **** 	}
 451:Source\bsw\FreeRTOS\src/mpu_wrappers.c **** #endif
 452:Source\bsw\FreeRTOS\src/mpu_wrappers.c **** /*-----------------------------------------------------------*/
 453:Source\bsw\FreeRTOS\src/mpu_wrappers.c **** 
 454:Source\bsw\FreeRTOS\src/mpu_wrappers.c **** BaseType_t MPU_xTaskCatchUpTicks( TickType_t xTicksToCatchUp ) /* FREERTOS_SYSTEM_CALL */
 455:Source\bsw\FreeRTOS\src/mpu_wrappers.c **** {
 754              		.loc 1 455 0
 755              		.cfi_startproc
 756              		@ args = 0, pretend = 0, frame = 0
 757              		@ frame_needed = 0, uses_anonymous_args = 0
 758              	.LVL109:
 759 0000 38B5     		push	{r3, r4, r5, lr}
 760              		.cfi_def_cfa_offset 16
 761              		.cfi_offset 3, -16
 762              		.cfi_offset 4, -12
 763              		.cfi_offset 5, -8
 764              		.cfi_offset 14, -4
 765 0002 0446     		mov	r4, r0
 456:Source\bsw\FreeRTOS\src/mpu_wrappers.c **** BaseType_t xReturn;
 457:Source\bsw\FreeRTOS\src/mpu_wrappers.c **** BaseType_t xRunningPrivileged = xPortRaisePrivilege();
 766              		.loc 1 457 0
 767 0004 FFF7FEFF 		bl	xPortRaisePrivilege
 768              	.LVL110:
 769 0008 0546     		mov	r5, r0
 770              	.LVL111:
 458:Source\bsw\FreeRTOS\src/mpu_wrappers.c **** 
 459:Source\bsw\FreeRTOS\src/mpu_wrappers.c **** 	xReturn = xTaskCatchUpTicks( xTicksToCatchUp );
 771              		.loc 1 459 0
 772 000a 2046     		mov	r0, r4
 773              	.LVL112:
 774 000c FFF7FEFF 		bl	xTaskCatchUpTicks
 775              	.LVL113:
 776 0010 0446     		mov	r4, r0
 777              	.LVL114:
 460:Source\bsw\FreeRTOS\src/mpu_wrappers.c **** 	vPortResetPrivilege( xRunningPrivileged );
 778              		.loc 1 460 0
 779 0012 2846     		mov	r0, r5
 780              	.LVL115:
 781 0014 FFF7FEFF 		bl	vPortResetPrivilege
 782              	.LVL116:
 461:Source\bsw\FreeRTOS\src/mpu_wrappers.c **** 	return xReturn;
 462:Source\bsw\FreeRTOS\src/mpu_wrappers.c **** }
 783              		.loc 1 462 0
 784 0018 2046     		mov	r0, r4
 785 001a 38BD     		pop	{r3, r4, r5, pc}
 786              		.cfi_endproc
 787              	.LFE86:
 788              		.size	MPU_xTaskCatchUpTicks, .-MPU_xTaskCatchUpTicks
 789              		.section	.text.MPU_uxTaskGetStackHighWaterMark,"ax",%progbits
 790              		.align	2
 791              		.global	MPU_uxTaskGetStackHighWaterMark
ARM GAS  C:\Users\Reza\AppData\Local\Temp\cckOPwM0.s 			page 23


 792              		.thumb
 793              		.thumb_func
 794              		.type	MPU_uxTaskGetStackHighWaterMark, %function
 795              	MPU_uxTaskGetStackHighWaterMark:
 796              	.LFB87:
 463:Source\bsw\FreeRTOS\src/mpu_wrappers.c **** /*-----------------------------------------------------------*/
 464:Source\bsw\FreeRTOS\src/mpu_wrappers.c **** 
 465:Source\bsw\FreeRTOS\src/mpu_wrappers.c **** #if ( INCLUDE_uxTaskGetStackHighWaterMark == 1 )
 466:Source\bsw\FreeRTOS\src/mpu_wrappers.c **** 	UBaseType_t MPU_uxTaskGetStackHighWaterMark( TaskHandle_t xTask ) /* FREERTOS_SYSTEM_CALL */
 467:Source\bsw\FreeRTOS\src/mpu_wrappers.c **** 	{
 797              		.loc 1 467 0
 798              		.cfi_startproc
 799              		@ args = 0, pretend = 0, frame = 0
 800              		@ frame_needed = 0, uses_anonymous_args = 0
 801              	.LVL117:
 802 0000 38B5     		push	{r3, r4, r5, lr}
 803              		.cfi_def_cfa_offset 16
 804              		.cfi_offset 3, -16
 805              		.cfi_offset 4, -12
 806              		.cfi_offset 5, -8
 807              		.cfi_offset 14, -4
 808 0002 0446     		mov	r4, r0
 468:Source\bsw\FreeRTOS\src/mpu_wrappers.c **** 	UBaseType_t uxReturn;
 469:Source\bsw\FreeRTOS\src/mpu_wrappers.c **** 	BaseType_t xRunningPrivileged = xPortRaisePrivilege();
 809              		.loc 1 469 0
 810 0004 FFF7FEFF 		bl	xPortRaisePrivilege
 811              	.LVL118:
 812 0008 0546     		mov	r5, r0
 813              	.LVL119:
 470:Source\bsw\FreeRTOS\src/mpu_wrappers.c **** 
 471:Source\bsw\FreeRTOS\src/mpu_wrappers.c **** 		uxReturn = uxTaskGetStackHighWaterMark( xTask );
 814              		.loc 1 471 0
 815 000a 2046     		mov	r0, r4
 816              	.LVL120:
 817 000c FFF7FEFF 		bl	uxTaskGetStackHighWaterMark
 818              	.LVL121:
 819 0010 0446     		mov	r4, r0
 820              	.LVL122:
 472:Source\bsw\FreeRTOS\src/mpu_wrappers.c **** 		vPortResetPrivilege( xRunningPrivileged );
 821              		.loc 1 472 0
 822 0012 2846     		mov	r0, r5
 823              	.LVL123:
 824 0014 FFF7FEFF 		bl	vPortResetPrivilege
 825              	.LVL124:
 473:Source\bsw\FreeRTOS\src/mpu_wrappers.c **** 		return uxReturn;
 474:Source\bsw\FreeRTOS\src/mpu_wrappers.c **** 	}
 826              		.loc 1 474 0
 827 0018 2046     		mov	r0, r4
 828 001a 38BD     		pop	{r3, r4, r5, pc}
 829              		.cfi_endproc
 830              	.LFE87:
 831              		.size	MPU_uxTaskGetStackHighWaterMark, .-MPU_uxTaskGetStackHighWaterMark
 832              		.section	.text.MPU_vTaskSetTimeOutState,"ax",%progbits
 833              		.align	2
 834              		.global	MPU_vTaskSetTimeOutState
 835              		.thumb
 836              		.thumb_func
ARM GAS  C:\Users\Reza\AppData\Local\Temp\cckOPwM0.s 			page 24


 837              		.type	MPU_vTaskSetTimeOutState, %function
 838              	MPU_vTaskSetTimeOutState:
 839              	.LFB88:
 475:Source\bsw\FreeRTOS\src/mpu_wrappers.c **** #endif
 476:Source\bsw\FreeRTOS\src/mpu_wrappers.c **** /*-----------------------------------------------------------*/
 477:Source\bsw\FreeRTOS\src/mpu_wrappers.c **** 
 478:Source\bsw\FreeRTOS\src/mpu_wrappers.c **** #if ( INCLUDE_uxTaskGetStackHighWaterMark2 == 1 )
 479:Source\bsw\FreeRTOS\src/mpu_wrappers.c **** 	configSTACK_DEPTH_TYPE MPU_uxTaskGetStackHighWaterMark2( TaskHandle_t xTask ) /* FREERTOS_SYSTEM_C
 480:Source\bsw\FreeRTOS\src/mpu_wrappers.c **** 	{
 481:Source\bsw\FreeRTOS\src/mpu_wrappers.c **** 	configSTACK_DEPTH_TYPE uxReturn;
 482:Source\bsw\FreeRTOS\src/mpu_wrappers.c **** 	BaseType_t xRunningPrivileged = xPortRaisePrivilege();
 483:Source\bsw\FreeRTOS\src/mpu_wrappers.c **** 
 484:Source\bsw\FreeRTOS\src/mpu_wrappers.c **** 		uxReturn = uxTaskGetStackHighWaterMark2( xTask );
 485:Source\bsw\FreeRTOS\src/mpu_wrappers.c **** 		vPortResetPrivilege( xRunningPrivileged );
 486:Source\bsw\FreeRTOS\src/mpu_wrappers.c **** 		return uxReturn;
 487:Source\bsw\FreeRTOS\src/mpu_wrappers.c **** 	}
 488:Source\bsw\FreeRTOS\src/mpu_wrappers.c **** #endif
 489:Source\bsw\FreeRTOS\src/mpu_wrappers.c **** /*-----------------------------------------------------------*/
 490:Source\bsw\FreeRTOS\src/mpu_wrappers.c **** 
 491:Source\bsw\FreeRTOS\src/mpu_wrappers.c **** #if ( INCLUDE_xTaskGetCurrentTaskHandle == 1 )
 492:Source\bsw\FreeRTOS\src/mpu_wrappers.c **** 	TaskHandle_t MPU_xTaskGetCurrentTaskHandle( void ) /* FREERTOS_SYSTEM_CALL */
 493:Source\bsw\FreeRTOS\src/mpu_wrappers.c **** 	{
 494:Source\bsw\FreeRTOS\src/mpu_wrappers.c **** 	TaskHandle_t xReturn;
 495:Source\bsw\FreeRTOS\src/mpu_wrappers.c **** 	BaseType_t xRunningPrivileged = xPortRaisePrivilege();
 496:Source\bsw\FreeRTOS\src/mpu_wrappers.c **** 
 497:Source\bsw\FreeRTOS\src/mpu_wrappers.c **** 		xReturn = xTaskGetCurrentTaskHandle();
 498:Source\bsw\FreeRTOS\src/mpu_wrappers.c **** 		vPortResetPrivilege( xRunningPrivileged );
 499:Source\bsw\FreeRTOS\src/mpu_wrappers.c **** 		return xReturn;
 500:Source\bsw\FreeRTOS\src/mpu_wrappers.c **** 	}
 501:Source\bsw\FreeRTOS\src/mpu_wrappers.c **** #endif
 502:Source\bsw\FreeRTOS\src/mpu_wrappers.c **** /*-----------------------------------------------------------*/
 503:Source\bsw\FreeRTOS\src/mpu_wrappers.c **** 
 504:Source\bsw\FreeRTOS\src/mpu_wrappers.c **** #if ( INCLUDE_xTaskGetSchedulerState == 1 )
 505:Source\bsw\FreeRTOS\src/mpu_wrappers.c **** 	BaseType_t MPU_xTaskGetSchedulerState( void ) /* FREERTOS_SYSTEM_CALL */
 506:Source\bsw\FreeRTOS\src/mpu_wrappers.c **** 	{
 507:Source\bsw\FreeRTOS\src/mpu_wrappers.c **** 	BaseType_t xReturn;
 508:Source\bsw\FreeRTOS\src/mpu_wrappers.c **** 	BaseType_t xRunningPrivileged = xPortRaisePrivilege();
 509:Source\bsw\FreeRTOS\src/mpu_wrappers.c **** 
 510:Source\bsw\FreeRTOS\src/mpu_wrappers.c **** 		xReturn = xTaskGetSchedulerState();
 511:Source\bsw\FreeRTOS\src/mpu_wrappers.c **** 		vPortResetPrivilege( xRunningPrivileged );
 512:Source\bsw\FreeRTOS\src/mpu_wrappers.c **** 		return xReturn;
 513:Source\bsw\FreeRTOS\src/mpu_wrappers.c **** 	}
 514:Source\bsw\FreeRTOS\src/mpu_wrappers.c **** #endif
 515:Source\bsw\FreeRTOS\src/mpu_wrappers.c **** /*-----------------------------------------------------------*/
 516:Source\bsw\FreeRTOS\src/mpu_wrappers.c **** 
 517:Source\bsw\FreeRTOS\src/mpu_wrappers.c **** void MPU_vTaskSetTimeOutState( TimeOut_t * const pxTimeOut ) /* FREERTOS_SYSTEM_CALL */
 518:Source\bsw\FreeRTOS\src/mpu_wrappers.c **** {
 840              		.loc 1 518 0
 841              		.cfi_startproc
 842              		@ args = 0, pretend = 0, frame = 0
 843              		@ frame_needed = 0, uses_anonymous_args = 0
 844              	.LVL125:
 845 0000 38B5     		push	{r3, r4, r5, lr}
 846              		.cfi_def_cfa_offset 16
 847              		.cfi_offset 3, -16
 848              		.cfi_offset 4, -12
 849              		.cfi_offset 5, -8
ARM GAS  C:\Users\Reza\AppData\Local\Temp\cckOPwM0.s 			page 25


 850              		.cfi_offset 14, -4
 851 0002 0546     		mov	r5, r0
 519:Source\bsw\FreeRTOS\src/mpu_wrappers.c **** BaseType_t xRunningPrivileged = xPortRaisePrivilege();
 852              		.loc 1 519 0
 853 0004 FFF7FEFF 		bl	xPortRaisePrivilege
 854              	.LVL126:
 855 0008 0446     		mov	r4, r0
 856              	.LVL127:
 520:Source\bsw\FreeRTOS\src/mpu_wrappers.c **** 
 521:Source\bsw\FreeRTOS\src/mpu_wrappers.c **** 	vTaskSetTimeOutState( pxTimeOut );
 857              		.loc 1 521 0
 858 000a 2846     		mov	r0, r5
 859              	.LVL128:
 860 000c FFF7FEFF 		bl	vTaskSetTimeOutState
 861              	.LVL129:
 522:Source\bsw\FreeRTOS\src/mpu_wrappers.c **** 	vPortResetPrivilege( xRunningPrivileged );
 862              		.loc 1 522 0
 863 0010 2046     		mov	r0, r4
 864 0012 FFF7FEFF 		bl	vPortResetPrivilege
 865              	.LVL130:
 866 0016 38BD     		pop	{r3, r4, r5, pc}
 867              		.cfi_endproc
 868              	.LFE88:
 869              		.size	MPU_vTaskSetTimeOutState, .-MPU_vTaskSetTimeOutState
 870              		.section	.text.MPU_xTaskCheckForTimeOut,"ax",%progbits
 871              		.align	2
 872              		.global	MPU_xTaskCheckForTimeOut
 873              		.thumb
 874              		.thumb_func
 875              		.type	MPU_xTaskCheckForTimeOut, %function
 876              	MPU_xTaskCheckForTimeOut:
 877              	.LFB89:
 523:Source\bsw\FreeRTOS\src/mpu_wrappers.c **** }
 524:Source\bsw\FreeRTOS\src/mpu_wrappers.c **** /*-----------------------------------------------------------*/
 525:Source\bsw\FreeRTOS\src/mpu_wrappers.c **** 
 526:Source\bsw\FreeRTOS\src/mpu_wrappers.c **** BaseType_t MPU_xTaskCheckForTimeOut( TimeOut_t * const pxTimeOut, TickType_t * const pxTicksToWait 
 527:Source\bsw\FreeRTOS\src/mpu_wrappers.c **** {
 878              		.loc 1 527 0
 879              		.cfi_startproc
 880              		@ args = 0, pretend = 0, frame = 0
 881              		@ frame_needed = 0, uses_anonymous_args = 0
 882              	.LVL131:
 883 0000 70B5     		push	{r4, r5, r6, lr}
 884              		.cfi_def_cfa_offset 16
 885              		.cfi_offset 4, -16
 886              		.cfi_offset 5, -12
 887              		.cfi_offset 6, -8
 888              		.cfi_offset 14, -4
 889 0002 0446     		mov	r4, r0
 890 0004 0E46     		mov	r6, r1
 528:Source\bsw\FreeRTOS\src/mpu_wrappers.c **** BaseType_t xReturn;
 529:Source\bsw\FreeRTOS\src/mpu_wrappers.c **** BaseType_t xRunningPrivileged = xPortRaisePrivilege();
 891              		.loc 1 529 0
 892 0006 FFF7FEFF 		bl	xPortRaisePrivilege
 893              	.LVL132:
 894 000a 0546     		mov	r5, r0
 895              	.LVL133:
ARM GAS  C:\Users\Reza\AppData\Local\Temp\cckOPwM0.s 			page 26


 530:Source\bsw\FreeRTOS\src/mpu_wrappers.c **** 
 531:Source\bsw\FreeRTOS\src/mpu_wrappers.c **** 	xReturn = xTaskCheckForTimeOut( pxTimeOut, pxTicksToWait );
 896              		.loc 1 531 0
 897 000c 3146     		mov	r1, r6
 898 000e 2046     		mov	r0, r4
 899              	.LVL134:
 900 0010 FFF7FEFF 		bl	xTaskCheckForTimeOut
 901              	.LVL135:
 902 0014 0446     		mov	r4, r0
 903              	.LVL136:
 532:Source\bsw\FreeRTOS\src/mpu_wrappers.c **** 	vPortResetPrivilege( xRunningPrivileged );
 904              		.loc 1 532 0
 905 0016 2846     		mov	r0, r5
 906              	.LVL137:
 907 0018 FFF7FEFF 		bl	vPortResetPrivilege
 908              	.LVL138:
 533:Source\bsw\FreeRTOS\src/mpu_wrappers.c **** 	return xReturn;
 534:Source\bsw\FreeRTOS\src/mpu_wrappers.c **** }
 909              		.loc 1 534 0
 910 001c 2046     		mov	r0, r4
 911 001e 70BD     		pop	{r4, r5, r6, pc}
 912              		.cfi_endproc
 913              	.LFE89:
 914              		.size	MPU_xTaskCheckForTimeOut, .-MPU_xTaskCheckForTimeOut
 915              		.section	.text.MPU_xTaskGenericNotify,"ax",%progbits
 916              		.align	2
 917              		.global	MPU_xTaskGenericNotify
 918              		.thumb
 919              		.thumb_func
 920              		.type	MPU_xTaskGenericNotify, %function
 921              	MPU_xTaskGenericNotify:
 922              	.LFB90:
 535:Source\bsw\FreeRTOS\src/mpu_wrappers.c **** /*-----------------------------------------------------------*/
 536:Source\bsw\FreeRTOS\src/mpu_wrappers.c **** 
 537:Source\bsw\FreeRTOS\src/mpu_wrappers.c **** #if( configUSE_TASK_NOTIFICATIONS == 1 )
 538:Source\bsw\FreeRTOS\src/mpu_wrappers.c **** 	BaseType_t MPU_xTaskGenericNotify( TaskHandle_t xTaskToNotify, uint32_t ulValue, eNotifyAction eAc
 539:Source\bsw\FreeRTOS\src/mpu_wrappers.c **** 	{
 923              		.loc 1 539 0
 924              		.cfi_startproc
 925              		@ args = 0, pretend = 0, frame = 0
 926              		@ frame_needed = 0, uses_anonymous_args = 0
 927              	.LVL139:
 928 0000 2DE9F041 		push	{r4, r5, r6, r7, r8, lr}
 929              		.cfi_def_cfa_offset 24
 930              		.cfi_offset 4, -24
 931              		.cfi_offset 5, -20
 932              		.cfi_offset 6, -16
 933              		.cfi_offset 7, -12
 934              		.cfi_offset 8, -8
 935              		.cfi_offset 14, -4
 936 0004 0446     		mov	r4, r0
 937 0006 0E46     		mov	r6, r1
 938 0008 1746     		mov	r7, r2
 939 000a 9846     		mov	r8, r3
 540:Source\bsw\FreeRTOS\src/mpu_wrappers.c **** 	BaseType_t xReturn;
 541:Source\bsw\FreeRTOS\src/mpu_wrappers.c **** 	BaseType_t xRunningPrivileged = xPortRaisePrivilege();
 940              		.loc 1 541 0
ARM GAS  C:\Users\Reza\AppData\Local\Temp\cckOPwM0.s 			page 27


 941 000c FFF7FEFF 		bl	xPortRaisePrivilege
 942              	.LVL140:
 943 0010 0546     		mov	r5, r0
 944              	.LVL141:
 542:Source\bsw\FreeRTOS\src/mpu_wrappers.c **** 
 543:Source\bsw\FreeRTOS\src/mpu_wrappers.c **** 		xReturn = xTaskGenericNotify( xTaskToNotify, ulValue, eAction, pulPreviousNotificationValue );
 945              		.loc 1 543 0
 946 0012 4346     		mov	r3, r8
 947 0014 3A46     		mov	r2, r7
 948 0016 3146     		mov	r1, r6
 949 0018 2046     		mov	r0, r4
 950              	.LVL142:
 951 001a FFF7FEFF 		bl	xTaskGenericNotify
 952              	.LVL143:
 953 001e 0446     		mov	r4, r0
 954              	.LVL144:
 544:Source\bsw\FreeRTOS\src/mpu_wrappers.c **** 		vPortResetPrivilege( xRunningPrivileged );
 955              		.loc 1 544 0
 956 0020 2846     		mov	r0, r5
 957              	.LVL145:
 958 0022 FFF7FEFF 		bl	vPortResetPrivilege
 959              	.LVL146:
 545:Source\bsw\FreeRTOS\src/mpu_wrappers.c **** 		return xReturn;
 546:Source\bsw\FreeRTOS\src/mpu_wrappers.c **** 	}
 960              		.loc 1 546 0
 961 0026 2046     		mov	r0, r4
 962 0028 BDE8F081 		pop	{r4, r5, r6, r7, r8, pc}
 963              		.cfi_endproc
 964              	.LFE90:
 965              		.size	MPU_xTaskGenericNotify, .-MPU_xTaskGenericNotify
 966              		.section	.text.MPU_xTaskNotifyWait,"ax",%progbits
 967              		.align	2
 968              		.global	MPU_xTaskNotifyWait
 969              		.thumb
 970              		.thumb_func
 971              		.type	MPU_xTaskNotifyWait, %function
 972              	MPU_xTaskNotifyWait:
 973              	.LFB91:
 547:Source\bsw\FreeRTOS\src/mpu_wrappers.c **** #endif
 548:Source\bsw\FreeRTOS\src/mpu_wrappers.c **** /*-----------------------------------------------------------*/
 549:Source\bsw\FreeRTOS\src/mpu_wrappers.c **** 
 550:Source\bsw\FreeRTOS\src/mpu_wrappers.c **** #if( configUSE_TASK_NOTIFICATIONS == 1 )
 551:Source\bsw\FreeRTOS\src/mpu_wrappers.c **** 	BaseType_t MPU_xTaskNotifyWait( uint32_t ulBitsToClearOnEntry, uint32_t ulBitsToClearOnExit, uint3
 552:Source\bsw\FreeRTOS\src/mpu_wrappers.c **** 	{
 974              		.loc 1 552 0
 975              		.cfi_startproc
 976              		@ args = 0, pretend = 0, frame = 0
 977              		@ frame_needed = 0, uses_anonymous_args = 0
 978              	.LVL147:
 979 0000 2DE9F041 		push	{r4, r5, r6, r7, r8, lr}
 980              		.cfi_def_cfa_offset 24
 981              		.cfi_offset 4, -24
 982              		.cfi_offset 5, -20
 983              		.cfi_offset 6, -16
 984              		.cfi_offset 7, -12
 985              		.cfi_offset 8, -8
 986              		.cfi_offset 14, -4
ARM GAS  C:\Users\Reza\AppData\Local\Temp\cckOPwM0.s 			page 28


 987 0004 0446     		mov	r4, r0
 988 0006 0E46     		mov	r6, r1
 989 0008 1746     		mov	r7, r2
 990 000a 9846     		mov	r8, r3
 553:Source\bsw\FreeRTOS\src/mpu_wrappers.c **** 	BaseType_t xReturn;
 554:Source\bsw\FreeRTOS\src/mpu_wrappers.c **** 	BaseType_t xRunningPrivileged = xPortRaisePrivilege();
 991              		.loc 1 554 0
 992 000c FFF7FEFF 		bl	xPortRaisePrivilege
 993              	.LVL148:
 994 0010 0546     		mov	r5, r0
 995              	.LVL149:
 555:Source\bsw\FreeRTOS\src/mpu_wrappers.c **** 
 556:Source\bsw\FreeRTOS\src/mpu_wrappers.c **** 		xReturn = xTaskNotifyWait( ulBitsToClearOnEntry, ulBitsToClearOnExit, pulNotificationValue, xTick
 996              		.loc 1 556 0
 997 0012 4346     		mov	r3, r8
 998 0014 3A46     		mov	r2, r7
 999 0016 3146     		mov	r1, r6
 1000 0018 2046     		mov	r0, r4
 1001              	.LVL150:
 1002 001a FFF7FEFF 		bl	xTaskNotifyWait
 1003              	.LVL151:
 1004 001e 0446     		mov	r4, r0
 1005              	.LVL152:
 557:Source\bsw\FreeRTOS\src/mpu_wrappers.c **** 		vPortResetPrivilege( xRunningPrivileged );
 1006              		.loc 1 557 0
 1007 0020 2846     		mov	r0, r5
 1008              	.LVL153:
 1009 0022 FFF7FEFF 		bl	vPortResetPrivilege
 1010              	.LVL154:
 558:Source\bsw\FreeRTOS\src/mpu_wrappers.c **** 		return xReturn;
 559:Source\bsw\FreeRTOS\src/mpu_wrappers.c **** 	}
 1011              		.loc 1 559 0
 1012 0026 2046     		mov	r0, r4
 1013 0028 BDE8F081 		pop	{r4, r5, r6, r7, r8, pc}
 1014              		.cfi_endproc
 1015              	.LFE91:
 1016              		.size	MPU_xTaskNotifyWait, .-MPU_xTaskNotifyWait
 1017              		.section	.text.MPU_ulTaskNotifyTake,"ax",%progbits
 1018              		.align	2
 1019              		.global	MPU_ulTaskNotifyTake
 1020              		.thumb
 1021              		.thumb_func
 1022              		.type	MPU_ulTaskNotifyTake, %function
 1023              	MPU_ulTaskNotifyTake:
 1024              	.LFB92:
 560:Source\bsw\FreeRTOS\src/mpu_wrappers.c **** #endif
 561:Source\bsw\FreeRTOS\src/mpu_wrappers.c **** /*-----------------------------------------------------------*/
 562:Source\bsw\FreeRTOS\src/mpu_wrappers.c **** 
 563:Source\bsw\FreeRTOS\src/mpu_wrappers.c **** #if( configUSE_TASK_NOTIFICATIONS == 1 )
 564:Source\bsw\FreeRTOS\src/mpu_wrappers.c **** 	uint32_t MPU_ulTaskNotifyTake( BaseType_t xClearCountOnExit, TickType_t xTicksToWait ) /* FREERTOS
 565:Source\bsw\FreeRTOS\src/mpu_wrappers.c **** 	{
 1025              		.loc 1 565 0
 1026              		.cfi_startproc
 1027              		@ args = 0, pretend = 0, frame = 0
 1028              		@ frame_needed = 0, uses_anonymous_args = 0
 1029              	.LVL155:
 1030 0000 70B5     		push	{r4, r5, r6, lr}
ARM GAS  C:\Users\Reza\AppData\Local\Temp\cckOPwM0.s 			page 29


 1031              		.cfi_def_cfa_offset 16
 1032              		.cfi_offset 4, -16
 1033              		.cfi_offset 5, -12
 1034              		.cfi_offset 6, -8
 1035              		.cfi_offset 14, -4
 1036 0002 0446     		mov	r4, r0
 1037 0004 0E46     		mov	r6, r1
 566:Source\bsw\FreeRTOS\src/mpu_wrappers.c **** 	uint32_t ulReturn;
 567:Source\bsw\FreeRTOS\src/mpu_wrappers.c **** 	BaseType_t xRunningPrivileged = xPortRaisePrivilege();
 1038              		.loc 1 567 0
 1039 0006 FFF7FEFF 		bl	xPortRaisePrivilege
 1040              	.LVL156:
 1041 000a 0546     		mov	r5, r0
 1042              	.LVL157:
 568:Source\bsw\FreeRTOS\src/mpu_wrappers.c **** 
 569:Source\bsw\FreeRTOS\src/mpu_wrappers.c **** 		ulReturn = ulTaskNotifyTake( xClearCountOnExit, xTicksToWait );
 1043              		.loc 1 569 0
 1044 000c 3146     		mov	r1, r6
 1045 000e 2046     		mov	r0, r4
 1046              	.LVL158:
 1047 0010 FFF7FEFF 		bl	ulTaskNotifyTake
 1048              	.LVL159:
 1049 0014 0446     		mov	r4, r0
 1050              	.LVL160:
 570:Source\bsw\FreeRTOS\src/mpu_wrappers.c **** 		vPortResetPrivilege( xRunningPrivileged );
 1051              		.loc 1 570 0
 1052 0016 2846     		mov	r0, r5
 1053              	.LVL161:
 1054 0018 FFF7FEFF 		bl	vPortResetPrivilege
 1055              	.LVL162:
 571:Source\bsw\FreeRTOS\src/mpu_wrappers.c **** 		return ulReturn;
 572:Source\bsw\FreeRTOS\src/mpu_wrappers.c **** 	}
 1056              		.loc 1 572 0
 1057 001c 2046     		mov	r0, r4
 1058 001e 70BD     		pop	{r4, r5, r6, pc}
 1059              		.cfi_endproc
 1060              	.LFE92:
 1061              		.size	MPU_ulTaskNotifyTake, .-MPU_ulTaskNotifyTake
 1062              		.section	.text.MPU_xTaskNotifyStateClear,"ax",%progbits
 1063              		.align	2
 1064              		.global	MPU_xTaskNotifyStateClear
 1065              		.thumb
 1066              		.thumb_func
 1067              		.type	MPU_xTaskNotifyStateClear, %function
 1068              	MPU_xTaskNotifyStateClear:
 1069              	.LFB93:
 573:Source\bsw\FreeRTOS\src/mpu_wrappers.c **** #endif
 574:Source\bsw\FreeRTOS\src/mpu_wrappers.c **** /*-----------------------------------------------------------*/
 575:Source\bsw\FreeRTOS\src/mpu_wrappers.c **** 
 576:Source\bsw\FreeRTOS\src/mpu_wrappers.c **** #if( configUSE_TASK_NOTIFICATIONS == 1 )
 577:Source\bsw\FreeRTOS\src/mpu_wrappers.c **** 	BaseType_t MPU_xTaskNotifyStateClear( TaskHandle_t xTask ) /* FREERTOS_SYSTEM_CALL */
 578:Source\bsw\FreeRTOS\src/mpu_wrappers.c **** 	{
 1070              		.loc 1 578 0
 1071              		.cfi_startproc
 1072              		@ args = 0, pretend = 0, frame = 0
 1073              		@ frame_needed = 0, uses_anonymous_args = 0
 1074              	.LVL163:
ARM GAS  C:\Users\Reza\AppData\Local\Temp\cckOPwM0.s 			page 30


 1075 0000 38B5     		push	{r3, r4, r5, lr}
 1076              		.cfi_def_cfa_offset 16
 1077              		.cfi_offset 3, -16
 1078              		.cfi_offset 4, -12
 1079              		.cfi_offset 5, -8
 1080              		.cfi_offset 14, -4
 1081 0002 0446     		mov	r4, r0
 579:Source\bsw\FreeRTOS\src/mpu_wrappers.c **** 	BaseType_t xReturn;
 580:Source\bsw\FreeRTOS\src/mpu_wrappers.c **** 	BaseType_t xRunningPrivileged = xPortRaisePrivilege();
 1082              		.loc 1 580 0
 1083 0004 FFF7FEFF 		bl	xPortRaisePrivilege
 1084              	.LVL164:
 1085 0008 0546     		mov	r5, r0
 1086              	.LVL165:
 581:Source\bsw\FreeRTOS\src/mpu_wrappers.c **** 
 582:Source\bsw\FreeRTOS\src/mpu_wrappers.c **** 		xReturn = xTaskNotifyStateClear( xTask );
 1087              		.loc 1 582 0
 1088 000a 2046     		mov	r0, r4
 1089              	.LVL166:
 1090 000c FFF7FEFF 		bl	xTaskNotifyStateClear
 1091              	.LVL167:
 1092 0010 0446     		mov	r4, r0
 1093              	.LVL168:
 583:Source\bsw\FreeRTOS\src/mpu_wrappers.c **** 		vPortResetPrivilege( xRunningPrivileged );
 1094              		.loc 1 583 0
 1095 0012 2846     		mov	r0, r5
 1096              	.LVL169:
 1097 0014 FFF7FEFF 		bl	vPortResetPrivilege
 1098              	.LVL170:
 584:Source\bsw\FreeRTOS\src/mpu_wrappers.c **** 		return xReturn;
 585:Source\bsw\FreeRTOS\src/mpu_wrappers.c **** 	}
 1099              		.loc 1 585 0
 1100 0018 2046     		mov	r0, r4
 1101 001a 38BD     		pop	{r3, r4, r5, pc}
 1102              		.cfi_endproc
 1103              	.LFE93:
 1104              		.size	MPU_xTaskNotifyStateClear, .-MPU_xTaskNotifyStateClear
 1105              		.section	.text.MPU_ulTaskNotifyValueClear,"ax",%progbits
 1106              		.align	2
 1107              		.global	MPU_ulTaskNotifyValueClear
 1108              		.thumb
 1109              		.thumb_func
 1110              		.type	MPU_ulTaskNotifyValueClear, %function
 1111              	MPU_ulTaskNotifyValueClear:
 1112              	.LFB94:
 586:Source\bsw\FreeRTOS\src/mpu_wrappers.c **** #endif
 587:Source\bsw\FreeRTOS\src/mpu_wrappers.c **** /*-----------------------------------------------------------*/
 588:Source\bsw\FreeRTOS\src/mpu_wrappers.c **** 
 589:Source\bsw\FreeRTOS\src/mpu_wrappers.c **** #if( configUSE_TASK_NOTIFICATIONS == 1 )
 590:Source\bsw\FreeRTOS\src/mpu_wrappers.c **** 	uint32_t MPU_ulTaskNotifyValueClear( TaskHandle_t xTask, uint32_t ulBitsToClear ) /* FREERTOS_SYST
 591:Source\bsw\FreeRTOS\src/mpu_wrappers.c **** 	{
 1113              		.loc 1 591 0
 1114              		.cfi_startproc
 1115              		@ args = 0, pretend = 0, frame = 0
 1116              		@ frame_needed = 0, uses_anonymous_args = 0
 1117              	.LVL171:
 1118 0000 70B5     		push	{r4, r5, r6, lr}
ARM GAS  C:\Users\Reza\AppData\Local\Temp\cckOPwM0.s 			page 31


 1119              		.cfi_def_cfa_offset 16
 1120              		.cfi_offset 4, -16
 1121              		.cfi_offset 5, -12
 1122              		.cfi_offset 6, -8
 1123              		.cfi_offset 14, -4
 1124 0002 0446     		mov	r4, r0
 1125 0004 0E46     		mov	r6, r1
 592:Source\bsw\FreeRTOS\src/mpu_wrappers.c **** 	uint32_t ulReturn;
 593:Source\bsw\FreeRTOS\src/mpu_wrappers.c **** 	BaseType_t xRunningPrivileged = xPortRaisePrivilege();
 1126              		.loc 1 593 0
 1127 0006 FFF7FEFF 		bl	xPortRaisePrivilege
 1128              	.LVL172:
 1129 000a 0546     		mov	r5, r0
 1130              	.LVL173:
 594:Source\bsw\FreeRTOS\src/mpu_wrappers.c **** 
 595:Source\bsw\FreeRTOS\src/mpu_wrappers.c **** 		ulReturn = ulTaskNotifyValueClear( xTask, ulBitsToClear );
 1131              		.loc 1 595 0
 1132 000c 3146     		mov	r1, r6
 1133 000e 2046     		mov	r0, r4
 1134              	.LVL174:
 1135 0010 FFF7FEFF 		bl	ulTaskNotifyValueClear
 1136              	.LVL175:
 1137 0014 0446     		mov	r4, r0
 1138              	.LVL176:
 596:Source\bsw\FreeRTOS\src/mpu_wrappers.c **** 		vPortResetPrivilege( xRunningPrivileged );
 1139              		.loc 1 596 0
 1140 0016 2846     		mov	r0, r5
 1141              	.LVL177:
 1142 0018 FFF7FEFF 		bl	vPortResetPrivilege
 1143              	.LVL178:
 597:Source\bsw\FreeRTOS\src/mpu_wrappers.c **** 		return ulReturn;
 598:Source\bsw\FreeRTOS\src/mpu_wrappers.c **** 	}
 1144              		.loc 1 598 0
 1145 001c 2046     		mov	r0, r4
 1146 001e 70BD     		pop	{r4, r5, r6, pc}
 1147              		.cfi_endproc
 1148              	.LFE94:
 1149              		.size	MPU_ulTaskNotifyValueClear, .-MPU_ulTaskNotifyValueClear
 1150              		.section	.text.MPU_xQueueGenericCreate,"ax",%progbits
 1151              		.align	2
 1152              		.global	MPU_xQueueGenericCreate
 1153              		.thumb
 1154              		.thumb_func
 1155              		.type	MPU_xQueueGenericCreate, %function
 1156              	MPU_xQueueGenericCreate:
 1157              	.LFB95:
 599:Source\bsw\FreeRTOS\src/mpu_wrappers.c **** #endif
 600:Source\bsw\FreeRTOS\src/mpu_wrappers.c **** /*-----------------------------------------------------------*/
 601:Source\bsw\FreeRTOS\src/mpu_wrappers.c **** 
 602:Source\bsw\FreeRTOS\src/mpu_wrappers.c **** #if( configSUPPORT_DYNAMIC_ALLOCATION == 1 )
 603:Source\bsw\FreeRTOS\src/mpu_wrappers.c **** 	QueueHandle_t MPU_xQueueGenericCreate( UBaseType_t uxQueueLength, UBaseType_t uxItemSize, uint8_t 
 604:Source\bsw\FreeRTOS\src/mpu_wrappers.c **** 	{
 1158              		.loc 1 604 0
 1159              		.cfi_startproc
 1160              		@ args = 0, pretend = 0, frame = 0
 1161              		@ frame_needed = 0, uses_anonymous_args = 0
 1162              	.LVL179:
ARM GAS  C:\Users\Reza\AppData\Local\Temp\cckOPwM0.s 			page 32


 1163 0000 F8B5     		push	{r3, r4, r5, r6, r7, lr}
 1164              		.cfi_def_cfa_offset 24
 1165              		.cfi_offset 3, -24
 1166              		.cfi_offset 4, -20
 1167              		.cfi_offset 5, -16
 1168              		.cfi_offset 6, -12
 1169              		.cfi_offset 7, -8
 1170              		.cfi_offset 14, -4
 1171 0002 0446     		mov	r4, r0
 1172 0004 0E46     		mov	r6, r1
 1173 0006 1746     		mov	r7, r2
 605:Source\bsw\FreeRTOS\src/mpu_wrappers.c **** 	QueueHandle_t xReturn;
 606:Source\bsw\FreeRTOS\src/mpu_wrappers.c **** 	BaseType_t xRunningPrivileged = xPortRaisePrivilege();
 1174              		.loc 1 606 0
 1175 0008 FFF7FEFF 		bl	xPortRaisePrivilege
 1176              	.LVL180:
 1177 000c 0546     		mov	r5, r0
 1178              	.LVL181:
 607:Source\bsw\FreeRTOS\src/mpu_wrappers.c **** 
 608:Source\bsw\FreeRTOS\src/mpu_wrappers.c **** 		xReturn = xQueueGenericCreate( uxQueueLength, uxItemSize, ucQueueType );
 1179              		.loc 1 608 0
 1180 000e 3A46     		mov	r2, r7
 1181 0010 3146     		mov	r1, r6
 1182 0012 2046     		mov	r0, r4
 1183              	.LVL182:
 1184 0014 FFF7FEFF 		bl	xQueueGenericCreate
 1185              	.LVL183:
 1186 0018 0446     		mov	r4, r0
 1187              	.LVL184:
 609:Source\bsw\FreeRTOS\src/mpu_wrappers.c **** 		vPortResetPrivilege( xRunningPrivileged );
 1188              		.loc 1 609 0
 1189 001a 2846     		mov	r0, r5
 1190              	.LVL185:
 1191 001c FFF7FEFF 		bl	vPortResetPrivilege
 1192              	.LVL186:
 610:Source\bsw\FreeRTOS\src/mpu_wrappers.c **** 		return xReturn;
 611:Source\bsw\FreeRTOS\src/mpu_wrappers.c **** 	}
 1193              		.loc 1 611 0
 1194 0020 2046     		mov	r0, r4
 1195 0022 F8BD     		pop	{r3, r4, r5, r6, r7, pc}
 1196              		.cfi_endproc
 1197              	.LFE95:
 1198              		.size	MPU_xQueueGenericCreate, .-MPU_xQueueGenericCreate
 1199              		.section	.text.MPU_xQueueGenericReset,"ax",%progbits
 1200              		.align	2
 1201              		.global	MPU_xQueueGenericReset
 1202              		.thumb
 1203              		.thumb_func
 1204              		.type	MPU_xQueueGenericReset, %function
 1205              	MPU_xQueueGenericReset:
 1206              	.LFB96:
 612:Source\bsw\FreeRTOS\src/mpu_wrappers.c **** #endif
 613:Source\bsw\FreeRTOS\src/mpu_wrappers.c **** /*-----------------------------------------------------------*/
 614:Source\bsw\FreeRTOS\src/mpu_wrappers.c **** 
 615:Source\bsw\FreeRTOS\src/mpu_wrappers.c **** #if( configSUPPORT_STATIC_ALLOCATION == 1 )
 616:Source\bsw\FreeRTOS\src/mpu_wrappers.c **** 	QueueHandle_t MPU_xQueueGenericCreateStatic( const UBaseType_t uxQueueLength, const UBaseType_t ux
 617:Source\bsw\FreeRTOS\src/mpu_wrappers.c **** 	{
ARM GAS  C:\Users\Reza\AppData\Local\Temp\cckOPwM0.s 			page 33


 618:Source\bsw\FreeRTOS\src/mpu_wrappers.c **** 	QueueHandle_t xReturn;
 619:Source\bsw\FreeRTOS\src/mpu_wrappers.c **** 	BaseType_t xRunningPrivileged = xPortRaisePrivilege();
 620:Source\bsw\FreeRTOS\src/mpu_wrappers.c **** 
 621:Source\bsw\FreeRTOS\src/mpu_wrappers.c **** 		xReturn = xQueueGenericCreateStatic( uxQueueLength, uxItemSize, pucQueueStorage, pxStaticQueue, u
 622:Source\bsw\FreeRTOS\src/mpu_wrappers.c **** 		vPortResetPrivilege( xRunningPrivileged );
 623:Source\bsw\FreeRTOS\src/mpu_wrappers.c **** 		return xReturn;
 624:Source\bsw\FreeRTOS\src/mpu_wrappers.c **** 	}
 625:Source\bsw\FreeRTOS\src/mpu_wrappers.c **** #endif
 626:Source\bsw\FreeRTOS\src/mpu_wrappers.c **** /*-----------------------------------------------------------*/
 627:Source\bsw\FreeRTOS\src/mpu_wrappers.c **** 
 628:Source\bsw\FreeRTOS\src/mpu_wrappers.c **** BaseType_t MPU_xQueueGenericReset( QueueHandle_t pxQueue, BaseType_t xNewQueue ) /* FREERTOS_SYSTEM
 629:Source\bsw\FreeRTOS\src/mpu_wrappers.c **** {
 1207              		.loc 1 629 0
 1208              		.cfi_startproc
 1209              		@ args = 0, pretend = 0, frame = 0
 1210              		@ frame_needed = 0, uses_anonymous_args = 0
 1211              	.LVL187:
 1212 0000 70B5     		push	{r4, r5, r6, lr}
 1213              		.cfi_def_cfa_offset 16
 1214              		.cfi_offset 4, -16
 1215              		.cfi_offset 5, -12
 1216              		.cfi_offset 6, -8
 1217              		.cfi_offset 14, -4
 1218 0002 0446     		mov	r4, r0
 1219 0004 0E46     		mov	r6, r1
 630:Source\bsw\FreeRTOS\src/mpu_wrappers.c **** BaseType_t xReturn;
 631:Source\bsw\FreeRTOS\src/mpu_wrappers.c **** BaseType_t xRunningPrivileged = xPortRaisePrivilege();
 1220              		.loc 1 631 0
 1221 0006 FFF7FEFF 		bl	xPortRaisePrivilege
 1222              	.LVL188:
 1223 000a 0546     		mov	r5, r0
 1224              	.LVL189:
 632:Source\bsw\FreeRTOS\src/mpu_wrappers.c **** 
 633:Source\bsw\FreeRTOS\src/mpu_wrappers.c **** 	xReturn = xQueueGenericReset( pxQueue, xNewQueue );
 1225              		.loc 1 633 0
 1226 000c 3146     		mov	r1, r6
 1227 000e 2046     		mov	r0, r4
 1228              	.LVL190:
 1229 0010 FFF7FEFF 		bl	xQueueGenericReset
 1230              	.LVL191:
 1231 0014 0446     		mov	r4, r0
 1232              	.LVL192:
 634:Source\bsw\FreeRTOS\src/mpu_wrappers.c **** 	vPortResetPrivilege( xRunningPrivileged );
 1233              		.loc 1 634 0
 1234 0016 2846     		mov	r0, r5
 1235              	.LVL193:
 1236 0018 FFF7FEFF 		bl	vPortResetPrivilege
 1237              	.LVL194:
 635:Source\bsw\FreeRTOS\src/mpu_wrappers.c **** 	return xReturn;
 636:Source\bsw\FreeRTOS\src/mpu_wrappers.c **** }
 1238              		.loc 1 636 0
 1239 001c 2046     		mov	r0, r4
 1240 001e 70BD     		pop	{r4, r5, r6, pc}
 1241              		.cfi_endproc
 1242              	.LFE96:
 1243              		.size	MPU_xQueueGenericReset, .-MPU_xQueueGenericReset
 1244              		.section	.text.MPU_xQueueGenericSend,"ax",%progbits
ARM GAS  C:\Users\Reza\AppData\Local\Temp\cckOPwM0.s 			page 34


 1245              		.align	2
 1246              		.global	MPU_xQueueGenericSend
 1247              		.thumb
 1248              		.thumb_func
 1249              		.type	MPU_xQueueGenericSend, %function
 1250              	MPU_xQueueGenericSend:
 1251              	.LFB97:
 637:Source\bsw\FreeRTOS\src/mpu_wrappers.c **** /*-----------------------------------------------------------*/
 638:Source\bsw\FreeRTOS\src/mpu_wrappers.c **** 
 639:Source\bsw\FreeRTOS\src/mpu_wrappers.c **** BaseType_t MPU_xQueueGenericSend( QueueHandle_t xQueue, const void * const pvItemToQueue, TickType_
 640:Source\bsw\FreeRTOS\src/mpu_wrappers.c **** {
 1252              		.loc 1 640 0
 1253              		.cfi_startproc
 1254              		@ args = 0, pretend = 0, frame = 0
 1255              		@ frame_needed = 0, uses_anonymous_args = 0
 1256              	.LVL195:
 1257 0000 2DE9F041 		push	{r4, r5, r6, r7, r8, lr}
 1258              		.cfi_def_cfa_offset 24
 1259              		.cfi_offset 4, -24
 1260              		.cfi_offset 5, -20
 1261              		.cfi_offset 6, -16
 1262              		.cfi_offset 7, -12
 1263              		.cfi_offset 8, -8
 1264              		.cfi_offset 14, -4
 1265 0004 0446     		mov	r4, r0
 1266 0006 0E46     		mov	r6, r1
 1267 0008 1746     		mov	r7, r2
 1268 000a 9846     		mov	r8, r3
 641:Source\bsw\FreeRTOS\src/mpu_wrappers.c **** BaseType_t xReturn;
 642:Source\bsw\FreeRTOS\src/mpu_wrappers.c **** BaseType_t xRunningPrivileged = xPortRaisePrivilege();
 1269              		.loc 1 642 0
 1270 000c FFF7FEFF 		bl	xPortRaisePrivilege
 1271              	.LVL196:
 1272 0010 0546     		mov	r5, r0
 1273              	.LVL197:
 643:Source\bsw\FreeRTOS\src/mpu_wrappers.c **** 
 644:Source\bsw\FreeRTOS\src/mpu_wrappers.c **** 	xReturn = xQueueGenericSend( xQueue, pvItemToQueue, xTicksToWait, xCopyPosition );
 1274              		.loc 1 644 0
 1275 0012 4346     		mov	r3, r8
 1276 0014 3A46     		mov	r2, r7
 1277 0016 3146     		mov	r1, r6
 1278 0018 2046     		mov	r0, r4
 1279              	.LVL198:
 1280 001a FFF7FEFF 		bl	xQueueGenericSend
 1281              	.LVL199:
 1282 001e 0446     		mov	r4, r0
 1283              	.LVL200:
 645:Source\bsw\FreeRTOS\src/mpu_wrappers.c **** 	vPortResetPrivilege( xRunningPrivileged );
 1284              		.loc 1 645 0
 1285 0020 2846     		mov	r0, r5
 1286              	.LVL201:
 1287 0022 FFF7FEFF 		bl	vPortResetPrivilege
 1288              	.LVL202:
 646:Source\bsw\FreeRTOS\src/mpu_wrappers.c **** 	return xReturn;
 647:Source\bsw\FreeRTOS\src/mpu_wrappers.c **** }
 1289              		.loc 1 647 0
 1290 0026 2046     		mov	r0, r4
ARM GAS  C:\Users\Reza\AppData\Local\Temp\cckOPwM0.s 			page 35


 1291 0028 BDE8F081 		pop	{r4, r5, r6, r7, r8, pc}
 1292              		.cfi_endproc
 1293              	.LFE97:
 1294              		.size	MPU_xQueueGenericSend, .-MPU_xQueueGenericSend
 1295              		.section	.text.MPU_uxQueueMessagesWaiting,"ax",%progbits
 1296              		.align	2
 1297              		.global	MPU_uxQueueMessagesWaiting
 1298              		.thumb
 1299              		.thumb_func
 1300              		.type	MPU_uxQueueMessagesWaiting, %function
 1301              	MPU_uxQueueMessagesWaiting:
 1302              	.LFB98:
 648:Source\bsw\FreeRTOS\src/mpu_wrappers.c **** /*-----------------------------------------------------------*/
 649:Source\bsw\FreeRTOS\src/mpu_wrappers.c **** 
 650:Source\bsw\FreeRTOS\src/mpu_wrappers.c **** UBaseType_t MPU_uxQueueMessagesWaiting( const QueueHandle_t pxQueue ) /* FREERTOS_SYSTEM_CALL */
 651:Source\bsw\FreeRTOS\src/mpu_wrappers.c **** {
 1303              		.loc 1 651 0
 1304              		.cfi_startproc
 1305              		@ args = 0, pretend = 0, frame = 0
 1306              		@ frame_needed = 0, uses_anonymous_args = 0
 1307              	.LVL203:
 1308 0000 38B5     		push	{r3, r4, r5, lr}
 1309              		.cfi_def_cfa_offset 16
 1310              		.cfi_offset 3, -16
 1311              		.cfi_offset 4, -12
 1312              		.cfi_offset 5, -8
 1313              		.cfi_offset 14, -4
 1314 0002 0446     		mov	r4, r0
 652:Source\bsw\FreeRTOS\src/mpu_wrappers.c **** BaseType_t xRunningPrivileged = xPortRaisePrivilege();
 1315              		.loc 1 652 0
 1316 0004 FFF7FEFF 		bl	xPortRaisePrivilege
 1317              	.LVL204:
 1318 0008 0546     		mov	r5, r0
 1319              	.LVL205:
 653:Source\bsw\FreeRTOS\src/mpu_wrappers.c **** UBaseType_t uxReturn;
 654:Source\bsw\FreeRTOS\src/mpu_wrappers.c **** 
 655:Source\bsw\FreeRTOS\src/mpu_wrappers.c **** 	uxReturn = uxQueueMessagesWaiting( pxQueue );
 1320              		.loc 1 655 0
 1321 000a 2046     		mov	r0, r4
 1322              	.LVL206:
 1323 000c FFF7FEFF 		bl	uxQueueMessagesWaiting
 1324              	.LVL207:
 1325 0010 0446     		mov	r4, r0
 1326              	.LVL208:
 656:Source\bsw\FreeRTOS\src/mpu_wrappers.c **** 	vPortResetPrivilege( xRunningPrivileged );
 1327              		.loc 1 656 0
 1328 0012 2846     		mov	r0, r5
 1329              	.LVL209:
 1330 0014 FFF7FEFF 		bl	vPortResetPrivilege
 1331              	.LVL210:
 657:Source\bsw\FreeRTOS\src/mpu_wrappers.c **** 	return uxReturn;
 658:Source\bsw\FreeRTOS\src/mpu_wrappers.c **** }
 1332              		.loc 1 658 0
 1333 0018 2046     		mov	r0, r4
 1334 001a 38BD     		pop	{r3, r4, r5, pc}
 1335              		.cfi_endproc
 1336              	.LFE98:
ARM GAS  C:\Users\Reza\AppData\Local\Temp\cckOPwM0.s 			page 36


 1337              		.size	MPU_uxQueueMessagesWaiting, .-MPU_uxQueueMessagesWaiting
 1338              		.section	.text.MPU_uxQueueSpacesAvailable,"ax",%progbits
 1339              		.align	2
 1340              		.global	MPU_uxQueueSpacesAvailable
 1341              		.thumb
 1342              		.thumb_func
 1343              		.type	MPU_uxQueueSpacesAvailable, %function
 1344              	MPU_uxQueueSpacesAvailable:
 1345              	.LFB99:
 659:Source\bsw\FreeRTOS\src/mpu_wrappers.c **** /*-----------------------------------------------------------*/
 660:Source\bsw\FreeRTOS\src/mpu_wrappers.c **** 
 661:Source\bsw\FreeRTOS\src/mpu_wrappers.c **** UBaseType_t MPU_uxQueueSpacesAvailable( const QueueHandle_t xQueue ) /* FREERTOS_SYSTEM_CALL */
 662:Source\bsw\FreeRTOS\src/mpu_wrappers.c **** {
 1346              		.loc 1 662 0
 1347              		.cfi_startproc
 1348              		@ args = 0, pretend = 0, frame = 0
 1349              		@ frame_needed = 0, uses_anonymous_args = 0
 1350              	.LVL211:
 1351 0000 38B5     		push	{r3, r4, r5, lr}
 1352              		.cfi_def_cfa_offset 16
 1353              		.cfi_offset 3, -16
 1354              		.cfi_offset 4, -12
 1355              		.cfi_offset 5, -8
 1356              		.cfi_offset 14, -4
 1357 0002 0446     		mov	r4, r0
 663:Source\bsw\FreeRTOS\src/mpu_wrappers.c **** BaseType_t xRunningPrivileged = xPortRaisePrivilege();
 1358              		.loc 1 663 0
 1359 0004 FFF7FEFF 		bl	xPortRaisePrivilege
 1360              	.LVL212:
 1361 0008 0546     		mov	r5, r0
 1362              	.LVL213:
 664:Source\bsw\FreeRTOS\src/mpu_wrappers.c **** UBaseType_t uxReturn;
 665:Source\bsw\FreeRTOS\src/mpu_wrappers.c **** 
 666:Source\bsw\FreeRTOS\src/mpu_wrappers.c **** 	uxReturn = uxQueueSpacesAvailable( xQueue );
 1363              		.loc 1 666 0
 1364 000a 2046     		mov	r0, r4
 1365              	.LVL214:
 1366 000c FFF7FEFF 		bl	uxQueueSpacesAvailable
 1367              	.LVL215:
 1368 0010 0446     		mov	r4, r0
 1369              	.LVL216:
 667:Source\bsw\FreeRTOS\src/mpu_wrappers.c **** 	vPortResetPrivilege( xRunningPrivileged );
 1370              		.loc 1 667 0
 1371 0012 2846     		mov	r0, r5
 1372              	.LVL217:
 1373 0014 FFF7FEFF 		bl	vPortResetPrivilege
 1374              	.LVL218:
 668:Source\bsw\FreeRTOS\src/mpu_wrappers.c **** 	return uxReturn;
 669:Source\bsw\FreeRTOS\src/mpu_wrappers.c **** }
 1375              		.loc 1 669 0
 1376 0018 2046     		mov	r0, r4
 1377 001a 38BD     		pop	{r3, r4, r5, pc}
 1378              		.cfi_endproc
 1379              	.LFE99:
 1380              		.size	MPU_uxQueueSpacesAvailable, .-MPU_uxQueueSpacesAvailable
 1381              		.section	.text.MPU_xQueueReceive,"ax",%progbits
 1382              		.align	2
ARM GAS  C:\Users\Reza\AppData\Local\Temp\cckOPwM0.s 			page 37


 1383              		.global	MPU_xQueueReceive
 1384              		.thumb
 1385              		.thumb_func
 1386              		.type	MPU_xQueueReceive, %function
 1387              	MPU_xQueueReceive:
 1388              	.LFB100:
 670:Source\bsw\FreeRTOS\src/mpu_wrappers.c **** /*-----------------------------------------------------------*/
 671:Source\bsw\FreeRTOS\src/mpu_wrappers.c **** 
 672:Source\bsw\FreeRTOS\src/mpu_wrappers.c **** BaseType_t MPU_xQueueReceive( QueueHandle_t pxQueue, void * const pvBuffer, TickType_t xTicksToWait
 673:Source\bsw\FreeRTOS\src/mpu_wrappers.c **** {
 1389              		.loc 1 673 0
 1390              		.cfi_startproc
 1391              		@ args = 0, pretend = 0, frame = 0
 1392              		@ frame_needed = 0, uses_anonymous_args = 0
 1393              	.LVL219:
 1394 0000 F8B5     		push	{r3, r4, r5, r6, r7, lr}
 1395              		.cfi_def_cfa_offset 24
 1396              		.cfi_offset 3, -24
 1397              		.cfi_offset 4, -20
 1398              		.cfi_offset 5, -16
 1399              		.cfi_offset 6, -12
 1400              		.cfi_offset 7, -8
 1401              		.cfi_offset 14, -4
 1402 0002 0446     		mov	r4, r0
 1403 0004 0E46     		mov	r6, r1
 1404 0006 1746     		mov	r7, r2
 674:Source\bsw\FreeRTOS\src/mpu_wrappers.c **** BaseType_t xRunningPrivileged = xPortRaisePrivilege();
 1405              		.loc 1 674 0
 1406 0008 FFF7FEFF 		bl	xPortRaisePrivilege
 1407              	.LVL220:
 1408 000c 0546     		mov	r5, r0
 1409              	.LVL221:
 675:Source\bsw\FreeRTOS\src/mpu_wrappers.c **** BaseType_t xReturn;
 676:Source\bsw\FreeRTOS\src/mpu_wrappers.c **** 
 677:Source\bsw\FreeRTOS\src/mpu_wrappers.c **** 	xReturn = xQueueReceive( pxQueue, pvBuffer, xTicksToWait );
 1410              		.loc 1 677 0
 1411 000e 3A46     		mov	r2, r7
 1412 0010 3146     		mov	r1, r6
 1413 0012 2046     		mov	r0, r4
 1414              	.LVL222:
 1415 0014 FFF7FEFF 		bl	xQueueReceive
 1416              	.LVL223:
 1417 0018 0446     		mov	r4, r0
 1418              	.LVL224:
 678:Source\bsw\FreeRTOS\src/mpu_wrappers.c **** 	vPortResetPrivilege( xRunningPrivileged );
 1419              		.loc 1 678 0
 1420 001a 2846     		mov	r0, r5
 1421              	.LVL225:
 1422 001c FFF7FEFF 		bl	vPortResetPrivilege
 1423              	.LVL226:
 679:Source\bsw\FreeRTOS\src/mpu_wrappers.c **** 	return xReturn;
 680:Source\bsw\FreeRTOS\src/mpu_wrappers.c **** }
 1424              		.loc 1 680 0
 1425 0020 2046     		mov	r0, r4
 1426 0022 F8BD     		pop	{r3, r4, r5, r6, r7, pc}
 1427              		.cfi_endproc
 1428              	.LFE100:
ARM GAS  C:\Users\Reza\AppData\Local\Temp\cckOPwM0.s 			page 38


 1429              		.size	MPU_xQueueReceive, .-MPU_xQueueReceive
 1430              		.section	.text.MPU_xQueuePeek,"ax",%progbits
 1431              		.align	2
 1432              		.global	MPU_xQueuePeek
 1433              		.thumb
 1434              		.thumb_func
 1435              		.type	MPU_xQueuePeek, %function
 1436              	MPU_xQueuePeek:
 1437              	.LFB101:
 681:Source\bsw\FreeRTOS\src/mpu_wrappers.c **** /*-----------------------------------------------------------*/
 682:Source\bsw\FreeRTOS\src/mpu_wrappers.c **** 
 683:Source\bsw\FreeRTOS\src/mpu_wrappers.c **** BaseType_t MPU_xQueuePeek( QueueHandle_t xQueue, void * const pvBuffer, TickType_t xTicksToWait ) /
 684:Source\bsw\FreeRTOS\src/mpu_wrappers.c **** {
 1438              		.loc 1 684 0
 1439              		.cfi_startproc
 1440              		@ args = 0, pretend = 0, frame = 0
 1441              		@ frame_needed = 0, uses_anonymous_args = 0
 1442              	.LVL227:
 1443 0000 F8B5     		push	{r3, r4, r5, r6, r7, lr}
 1444              		.cfi_def_cfa_offset 24
 1445              		.cfi_offset 3, -24
 1446              		.cfi_offset 4, -20
 1447              		.cfi_offset 5, -16
 1448              		.cfi_offset 6, -12
 1449              		.cfi_offset 7, -8
 1450              		.cfi_offset 14, -4
 1451 0002 0446     		mov	r4, r0
 1452 0004 0E46     		mov	r6, r1
 1453 0006 1746     		mov	r7, r2
 685:Source\bsw\FreeRTOS\src/mpu_wrappers.c **** BaseType_t xRunningPrivileged = xPortRaisePrivilege();
 1454              		.loc 1 685 0
 1455 0008 FFF7FEFF 		bl	xPortRaisePrivilege
 1456              	.LVL228:
 1457 000c 0546     		mov	r5, r0
 1458              	.LVL229:
 686:Source\bsw\FreeRTOS\src/mpu_wrappers.c **** BaseType_t xReturn;
 687:Source\bsw\FreeRTOS\src/mpu_wrappers.c **** 
 688:Source\bsw\FreeRTOS\src/mpu_wrappers.c **** 	xReturn = xQueuePeek( xQueue, pvBuffer, xTicksToWait );
 1459              		.loc 1 688 0
 1460 000e 3A46     		mov	r2, r7
 1461 0010 3146     		mov	r1, r6
 1462 0012 2046     		mov	r0, r4
 1463              	.LVL230:
 1464 0014 FFF7FEFF 		bl	xQueuePeek
 1465              	.LVL231:
 1466 0018 0446     		mov	r4, r0
 1467              	.LVL232:
 689:Source\bsw\FreeRTOS\src/mpu_wrappers.c **** 	vPortResetPrivilege( xRunningPrivileged );
 1468              		.loc 1 689 0
 1469 001a 2846     		mov	r0, r5
 1470              	.LVL233:
 1471 001c FFF7FEFF 		bl	vPortResetPrivilege
 1472              	.LVL234:
 690:Source\bsw\FreeRTOS\src/mpu_wrappers.c **** 	return xReturn;
 691:Source\bsw\FreeRTOS\src/mpu_wrappers.c **** }
 1473              		.loc 1 691 0
 1474 0020 2046     		mov	r0, r4
ARM GAS  C:\Users\Reza\AppData\Local\Temp\cckOPwM0.s 			page 39


 1475 0022 F8BD     		pop	{r3, r4, r5, r6, r7, pc}
 1476              		.cfi_endproc
 1477              	.LFE101:
 1478              		.size	MPU_xQueuePeek, .-MPU_xQueuePeek
 1479              		.section	.text.MPU_xQueueSemaphoreTake,"ax",%progbits
 1480              		.align	2
 1481              		.global	MPU_xQueueSemaphoreTake
 1482              		.thumb
 1483              		.thumb_func
 1484              		.type	MPU_xQueueSemaphoreTake, %function
 1485              	MPU_xQueueSemaphoreTake:
 1486              	.LFB102:
 692:Source\bsw\FreeRTOS\src/mpu_wrappers.c **** /*-----------------------------------------------------------*/
 693:Source\bsw\FreeRTOS\src/mpu_wrappers.c **** 
 694:Source\bsw\FreeRTOS\src/mpu_wrappers.c **** BaseType_t MPU_xQueueSemaphoreTake( QueueHandle_t xQueue, TickType_t xTicksToWait ) /* FREERTOS_SYS
 695:Source\bsw\FreeRTOS\src/mpu_wrappers.c **** {
 1487              		.loc 1 695 0
 1488              		.cfi_startproc
 1489              		@ args = 0, pretend = 0, frame = 0
 1490              		@ frame_needed = 0, uses_anonymous_args = 0
 1491              	.LVL235:
 1492 0000 70B5     		push	{r4, r5, r6, lr}
 1493              		.cfi_def_cfa_offset 16
 1494              		.cfi_offset 4, -16
 1495              		.cfi_offset 5, -12
 1496              		.cfi_offset 6, -8
 1497              		.cfi_offset 14, -4
 1498 0002 0446     		mov	r4, r0
 1499 0004 0E46     		mov	r6, r1
 696:Source\bsw\FreeRTOS\src/mpu_wrappers.c **** BaseType_t xRunningPrivileged = xPortRaisePrivilege();
 1500              		.loc 1 696 0
 1501 0006 FFF7FEFF 		bl	xPortRaisePrivilege
 1502              	.LVL236:
 1503 000a 0546     		mov	r5, r0
 1504              	.LVL237:
 697:Source\bsw\FreeRTOS\src/mpu_wrappers.c **** BaseType_t xReturn;
 698:Source\bsw\FreeRTOS\src/mpu_wrappers.c **** 
 699:Source\bsw\FreeRTOS\src/mpu_wrappers.c **** 	xReturn = xQueueSemaphoreTake( xQueue, xTicksToWait );
 1505              		.loc 1 699 0
 1506 000c 3146     		mov	r1, r6
 1507 000e 2046     		mov	r0, r4
 1508              	.LVL238:
 1509 0010 FFF7FEFF 		bl	xQueueSemaphoreTake
 1510              	.LVL239:
 1511 0014 0446     		mov	r4, r0
 1512              	.LVL240:
 700:Source\bsw\FreeRTOS\src/mpu_wrappers.c **** 	vPortResetPrivilege( xRunningPrivileged );
 1513              		.loc 1 700 0
 1514 0016 2846     		mov	r0, r5
 1515              	.LVL241:
 1516 0018 FFF7FEFF 		bl	vPortResetPrivilege
 1517              	.LVL242:
 701:Source\bsw\FreeRTOS\src/mpu_wrappers.c **** 	return xReturn;
 702:Source\bsw\FreeRTOS\src/mpu_wrappers.c **** }
 1518              		.loc 1 702 0
 1519 001c 2046     		mov	r0, r4
 1520 001e 70BD     		pop	{r4, r5, r6, pc}
ARM GAS  C:\Users\Reza\AppData\Local\Temp\cckOPwM0.s 			page 40


 1521              		.cfi_endproc
 1522              	.LFE102:
 1523              		.size	MPU_xQueueSemaphoreTake, .-MPU_xQueueSemaphoreTake
 1524              		.section	.text.MPU_xQueueCreateMutex,"ax",%progbits
 1525              		.align	2
 1526              		.global	MPU_xQueueCreateMutex
 1527              		.thumb
 1528              		.thumb_func
 1529              		.type	MPU_xQueueCreateMutex, %function
 1530              	MPU_xQueueCreateMutex:
 1531              	.LFB103:
 703:Source\bsw\FreeRTOS\src/mpu_wrappers.c **** /*-----------------------------------------------------------*/
 704:Source\bsw\FreeRTOS\src/mpu_wrappers.c **** 
 705:Source\bsw\FreeRTOS\src/mpu_wrappers.c **** #if ( ( configUSE_MUTEXES == 1 ) && ( INCLUDE_xSemaphoreGetMutexHolder == 1 ) )
 706:Source\bsw\FreeRTOS\src/mpu_wrappers.c **** 	TaskHandle_t MPU_xQueueGetMutexHolder( QueueHandle_t xSemaphore ) /* FREERTOS_SYSTEM_CALL */
 707:Source\bsw\FreeRTOS\src/mpu_wrappers.c **** 	{
 708:Source\bsw\FreeRTOS\src/mpu_wrappers.c **** 	BaseType_t xRunningPrivileged = xPortRaisePrivilege();
 709:Source\bsw\FreeRTOS\src/mpu_wrappers.c **** 	void * xReturn;
 710:Source\bsw\FreeRTOS\src/mpu_wrappers.c **** 
 711:Source\bsw\FreeRTOS\src/mpu_wrappers.c **** 		xReturn = xQueueGetMutexHolder( xSemaphore );
 712:Source\bsw\FreeRTOS\src/mpu_wrappers.c **** 		vPortResetPrivilege( xRunningPrivileged );
 713:Source\bsw\FreeRTOS\src/mpu_wrappers.c **** 		return xReturn;
 714:Source\bsw\FreeRTOS\src/mpu_wrappers.c **** 	}
 715:Source\bsw\FreeRTOS\src/mpu_wrappers.c **** #endif
 716:Source\bsw\FreeRTOS\src/mpu_wrappers.c **** /*-----------------------------------------------------------*/
 717:Source\bsw\FreeRTOS\src/mpu_wrappers.c **** 
 718:Source\bsw\FreeRTOS\src/mpu_wrappers.c **** #if( ( configUSE_MUTEXES == 1 ) && ( configSUPPORT_DYNAMIC_ALLOCATION == 1 ) )
 719:Source\bsw\FreeRTOS\src/mpu_wrappers.c **** 	QueueHandle_t MPU_xQueueCreateMutex( const uint8_t ucQueueType ) /* FREERTOS_SYSTEM_CALL */
 720:Source\bsw\FreeRTOS\src/mpu_wrappers.c **** 	{
 1532              		.loc 1 720 0
 1533              		.cfi_startproc
 1534              		@ args = 0, pretend = 0, frame = 0
 1535              		@ frame_needed = 0, uses_anonymous_args = 0
 1536              	.LVL243:
 1537 0000 38B5     		push	{r3, r4, r5, lr}
 1538              		.cfi_def_cfa_offset 16
 1539              		.cfi_offset 3, -16
 1540              		.cfi_offset 4, -12
 1541              		.cfi_offset 5, -8
 1542              		.cfi_offset 14, -4
 1543 0002 0446     		mov	r4, r0
 721:Source\bsw\FreeRTOS\src/mpu_wrappers.c **** 	QueueHandle_t xReturn;
 722:Source\bsw\FreeRTOS\src/mpu_wrappers.c **** 	BaseType_t xRunningPrivileged = xPortRaisePrivilege();
 1544              		.loc 1 722 0
 1545 0004 FFF7FEFF 		bl	xPortRaisePrivilege
 1546              	.LVL244:
 1547 0008 0546     		mov	r5, r0
 1548              	.LVL245:
 723:Source\bsw\FreeRTOS\src/mpu_wrappers.c **** 
 724:Source\bsw\FreeRTOS\src/mpu_wrappers.c **** 		xReturn = xQueueCreateMutex( ucQueueType );
 1549              		.loc 1 724 0
 1550 000a 2046     		mov	r0, r4
 1551              	.LVL246:
 1552 000c FFF7FEFF 		bl	xQueueCreateMutex
 1553              	.LVL247:
 1554 0010 0446     		mov	r4, r0
 1555              	.LVL248:
ARM GAS  C:\Users\Reza\AppData\Local\Temp\cckOPwM0.s 			page 41


 725:Source\bsw\FreeRTOS\src/mpu_wrappers.c **** 		vPortResetPrivilege( xRunningPrivileged );
 1556              		.loc 1 725 0
 1557 0012 2846     		mov	r0, r5
 1558              	.LVL249:
 1559 0014 FFF7FEFF 		bl	vPortResetPrivilege
 1560              	.LVL250:
 726:Source\bsw\FreeRTOS\src/mpu_wrappers.c **** 		return xReturn;
 727:Source\bsw\FreeRTOS\src/mpu_wrappers.c **** 	}
 1561              		.loc 1 727 0
 1562 0018 2046     		mov	r0, r4
 1563 001a 38BD     		pop	{r3, r4, r5, pc}
 1564              		.cfi_endproc
 1565              	.LFE103:
 1566              		.size	MPU_xQueueCreateMutex, .-MPU_xQueueCreateMutex
 1567              		.section	.text.MPU_xQueueCreateCountingSemaphore,"ax",%progbits
 1568              		.align	2
 1569              		.global	MPU_xQueueCreateCountingSemaphore
 1570              		.thumb
 1571              		.thumb_func
 1572              		.type	MPU_xQueueCreateCountingSemaphore, %function
 1573              	MPU_xQueueCreateCountingSemaphore:
 1574              	.LFB104:
 728:Source\bsw\FreeRTOS\src/mpu_wrappers.c **** #endif
 729:Source\bsw\FreeRTOS\src/mpu_wrappers.c **** /*-----------------------------------------------------------*/
 730:Source\bsw\FreeRTOS\src/mpu_wrappers.c **** 
 731:Source\bsw\FreeRTOS\src/mpu_wrappers.c **** #if( ( configUSE_MUTEXES == 1 ) && ( configSUPPORT_STATIC_ALLOCATION == 1 ) )
 732:Source\bsw\FreeRTOS\src/mpu_wrappers.c **** 	QueueHandle_t MPU_xQueueCreateMutexStatic( const uint8_t ucQueueType, StaticQueue_t *pxStaticQueue
 733:Source\bsw\FreeRTOS\src/mpu_wrappers.c **** 	{
 734:Source\bsw\FreeRTOS\src/mpu_wrappers.c **** 	QueueHandle_t xReturn;
 735:Source\bsw\FreeRTOS\src/mpu_wrappers.c **** 	BaseType_t xRunningPrivileged = xPortRaisePrivilege();
 736:Source\bsw\FreeRTOS\src/mpu_wrappers.c **** 
 737:Source\bsw\FreeRTOS\src/mpu_wrappers.c **** 		xReturn = xQueueCreateMutexStatic( ucQueueType, pxStaticQueue );
 738:Source\bsw\FreeRTOS\src/mpu_wrappers.c **** 		vPortResetPrivilege( xRunningPrivileged );
 739:Source\bsw\FreeRTOS\src/mpu_wrappers.c **** 		return xReturn;
 740:Source\bsw\FreeRTOS\src/mpu_wrappers.c **** 	}
 741:Source\bsw\FreeRTOS\src/mpu_wrappers.c **** #endif
 742:Source\bsw\FreeRTOS\src/mpu_wrappers.c **** /*-----------------------------------------------------------*/
 743:Source\bsw\FreeRTOS\src/mpu_wrappers.c **** 
 744:Source\bsw\FreeRTOS\src/mpu_wrappers.c **** #if( ( configUSE_COUNTING_SEMAPHORES == 1 ) && ( configSUPPORT_DYNAMIC_ALLOCATION == 1 ) )
 745:Source\bsw\FreeRTOS\src/mpu_wrappers.c **** 	QueueHandle_t MPU_xQueueCreateCountingSemaphore( UBaseType_t uxCountValue, UBaseType_t uxInitialCo
 746:Source\bsw\FreeRTOS\src/mpu_wrappers.c **** 	{
 1575              		.loc 1 746 0
 1576              		.cfi_startproc
 1577              		@ args = 0, pretend = 0, frame = 0
 1578              		@ frame_needed = 0, uses_anonymous_args = 0
 1579              	.LVL251:
 1580 0000 70B5     		push	{r4, r5, r6, lr}
 1581              		.cfi_def_cfa_offset 16
 1582              		.cfi_offset 4, -16
 1583              		.cfi_offset 5, -12
 1584              		.cfi_offset 6, -8
 1585              		.cfi_offset 14, -4
 1586 0002 0446     		mov	r4, r0
 1587 0004 0E46     		mov	r6, r1
 747:Source\bsw\FreeRTOS\src/mpu_wrappers.c **** 	QueueHandle_t xReturn;
 748:Source\bsw\FreeRTOS\src/mpu_wrappers.c **** 	BaseType_t xRunningPrivileged = xPortRaisePrivilege();
 1588              		.loc 1 748 0
ARM GAS  C:\Users\Reza\AppData\Local\Temp\cckOPwM0.s 			page 42


 1589 0006 FFF7FEFF 		bl	xPortRaisePrivilege
 1590              	.LVL252:
 1591 000a 0546     		mov	r5, r0
 1592              	.LVL253:
 749:Source\bsw\FreeRTOS\src/mpu_wrappers.c **** 
 750:Source\bsw\FreeRTOS\src/mpu_wrappers.c **** 		xReturn = xQueueCreateCountingSemaphore( uxCountValue, uxInitialCount );
 1593              		.loc 1 750 0
 1594 000c 3146     		mov	r1, r6
 1595 000e 2046     		mov	r0, r4
 1596              	.LVL254:
 1597 0010 FFF7FEFF 		bl	xQueueCreateCountingSemaphore
 1598              	.LVL255:
 1599 0014 0446     		mov	r4, r0
 1600              	.LVL256:
 751:Source\bsw\FreeRTOS\src/mpu_wrappers.c **** 		vPortResetPrivilege( xRunningPrivileged );
 1601              		.loc 1 751 0
 1602 0016 2846     		mov	r0, r5
 1603              	.LVL257:
 1604 0018 FFF7FEFF 		bl	vPortResetPrivilege
 1605              	.LVL258:
 752:Source\bsw\FreeRTOS\src/mpu_wrappers.c **** 		return xReturn;
 753:Source\bsw\FreeRTOS\src/mpu_wrappers.c **** 	}
 1606              		.loc 1 753 0
 1607 001c 2046     		mov	r0, r4
 1608 001e 70BD     		pop	{r4, r5, r6, pc}
 1609              		.cfi_endproc
 1610              	.LFE104:
 1611              		.size	MPU_xQueueCreateCountingSemaphore, .-MPU_xQueueCreateCountingSemaphore
 1612              		.section	.text.MPU_xQueueTakeMutexRecursive,"ax",%progbits
 1613              		.align	2
 1614              		.global	MPU_xQueueTakeMutexRecursive
 1615              		.thumb
 1616              		.thumb_func
 1617              		.type	MPU_xQueueTakeMutexRecursive, %function
 1618              	MPU_xQueueTakeMutexRecursive:
 1619              	.LFB105:
 754:Source\bsw\FreeRTOS\src/mpu_wrappers.c **** #endif
 755:Source\bsw\FreeRTOS\src/mpu_wrappers.c **** /*-----------------------------------------------------------*/
 756:Source\bsw\FreeRTOS\src/mpu_wrappers.c **** 
 757:Source\bsw\FreeRTOS\src/mpu_wrappers.c **** #if( ( configUSE_COUNTING_SEMAPHORES == 1 ) && ( configSUPPORT_STATIC_ALLOCATION == 1 ) )
 758:Source\bsw\FreeRTOS\src/mpu_wrappers.c **** 
 759:Source\bsw\FreeRTOS\src/mpu_wrappers.c **** 	QueueHandle_t MPU_xQueueCreateCountingSemaphoreStatic( const UBaseType_t uxMaxCount, const UBaseTy
 760:Source\bsw\FreeRTOS\src/mpu_wrappers.c **** 	{
 761:Source\bsw\FreeRTOS\src/mpu_wrappers.c **** 	QueueHandle_t xReturn;
 762:Source\bsw\FreeRTOS\src/mpu_wrappers.c **** 	BaseType_t xRunningPrivileged = xPortRaisePrivilege();
 763:Source\bsw\FreeRTOS\src/mpu_wrappers.c **** 
 764:Source\bsw\FreeRTOS\src/mpu_wrappers.c **** 		xReturn = xQueueCreateCountingSemaphoreStatic( uxMaxCount, uxInitialCount, pxStaticQueue );
 765:Source\bsw\FreeRTOS\src/mpu_wrappers.c **** 		vPortResetPrivilege( xRunningPrivileged );
 766:Source\bsw\FreeRTOS\src/mpu_wrappers.c **** 		return xReturn;
 767:Source\bsw\FreeRTOS\src/mpu_wrappers.c **** 	}
 768:Source\bsw\FreeRTOS\src/mpu_wrappers.c **** #endif
 769:Source\bsw\FreeRTOS\src/mpu_wrappers.c **** /*-----------------------------------------------------------*/
 770:Source\bsw\FreeRTOS\src/mpu_wrappers.c **** 
 771:Source\bsw\FreeRTOS\src/mpu_wrappers.c **** #if ( configUSE_RECURSIVE_MUTEXES == 1 )
 772:Source\bsw\FreeRTOS\src/mpu_wrappers.c **** 	BaseType_t MPU_xQueueTakeMutexRecursive( QueueHandle_t xMutex, TickType_t xBlockTime ) /* FREERTOS
 773:Source\bsw\FreeRTOS\src/mpu_wrappers.c **** 	{
 1620              		.loc 1 773 0
ARM GAS  C:\Users\Reza\AppData\Local\Temp\cckOPwM0.s 			page 43


 1621              		.cfi_startproc
 1622              		@ args = 0, pretend = 0, frame = 0
 1623              		@ frame_needed = 0, uses_anonymous_args = 0
 1624              	.LVL259:
 1625 0000 70B5     		push	{r4, r5, r6, lr}
 1626              		.cfi_def_cfa_offset 16
 1627              		.cfi_offset 4, -16
 1628              		.cfi_offset 5, -12
 1629              		.cfi_offset 6, -8
 1630              		.cfi_offset 14, -4
 1631 0002 0446     		mov	r4, r0
 1632 0004 0E46     		mov	r6, r1
 774:Source\bsw\FreeRTOS\src/mpu_wrappers.c **** 	BaseType_t xReturn;
 775:Source\bsw\FreeRTOS\src/mpu_wrappers.c **** 	BaseType_t xRunningPrivileged = xPortRaisePrivilege();
 1633              		.loc 1 775 0
 1634 0006 FFF7FEFF 		bl	xPortRaisePrivilege
 1635              	.LVL260:
 1636 000a 0546     		mov	r5, r0
 1637              	.LVL261:
 776:Source\bsw\FreeRTOS\src/mpu_wrappers.c **** 
 777:Source\bsw\FreeRTOS\src/mpu_wrappers.c **** 		xReturn = xQueueTakeMutexRecursive( xMutex, xBlockTime );
 1638              		.loc 1 777 0
 1639 000c 3146     		mov	r1, r6
 1640 000e 2046     		mov	r0, r4
 1641              	.LVL262:
 1642 0010 FFF7FEFF 		bl	xQueueTakeMutexRecursive
 1643              	.LVL263:
 1644 0014 0446     		mov	r4, r0
 1645              	.LVL264:
 778:Source\bsw\FreeRTOS\src/mpu_wrappers.c **** 		vPortResetPrivilege( xRunningPrivileged );
 1646              		.loc 1 778 0
 1647 0016 2846     		mov	r0, r5
 1648              	.LVL265:
 1649 0018 FFF7FEFF 		bl	vPortResetPrivilege
 1650              	.LVL266:
 779:Source\bsw\FreeRTOS\src/mpu_wrappers.c **** 		return xReturn;
 780:Source\bsw\FreeRTOS\src/mpu_wrappers.c **** 	}
 1651              		.loc 1 780 0
 1652 001c 2046     		mov	r0, r4
 1653 001e 70BD     		pop	{r4, r5, r6, pc}
 1654              		.cfi_endproc
 1655              	.LFE105:
 1656              		.size	MPU_xQueueTakeMutexRecursive, .-MPU_xQueueTakeMutexRecursive
 1657              		.section	.text.MPU_xQueueGiveMutexRecursive,"ax",%progbits
 1658              		.align	2
 1659              		.global	MPU_xQueueGiveMutexRecursive
 1660              		.thumb
 1661              		.thumb_func
 1662              		.type	MPU_xQueueGiveMutexRecursive, %function
 1663              	MPU_xQueueGiveMutexRecursive:
 1664              	.LFB106:
 781:Source\bsw\FreeRTOS\src/mpu_wrappers.c **** #endif
 782:Source\bsw\FreeRTOS\src/mpu_wrappers.c **** /*-----------------------------------------------------------*/
 783:Source\bsw\FreeRTOS\src/mpu_wrappers.c **** 
 784:Source\bsw\FreeRTOS\src/mpu_wrappers.c **** #if ( configUSE_RECURSIVE_MUTEXES == 1 )
 785:Source\bsw\FreeRTOS\src/mpu_wrappers.c **** 	BaseType_t MPU_xQueueGiveMutexRecursive( QueueHandle_t xMutex ) /* FREERTOS_SYSTEM_CALL */
 786:Source\bsw\FreeRTOS\src/mpu_wrappers.c **** 	{
ARM GAS  C:\Users\Reza\AppData\Local\Temp\cckOPwM0.s 			page 44


 1665              		.loc 1 786 0
 1666              		.cfi_startproc
 1667              		@ args = 0, pretend = 0, frame = 0
 1668              		@ frame_needed = 0, uses_anonymous_args = 0
 1669              	.LVL267:
 1670 0000 38B5     		push	{r3, r4, r5, lr}
 1671              		.cfi_def_cfa_offset 16
 1672              		.cfi_offset 3, -16
 1673              		.cfi_offset 4, -12
 1674              		.cfi_offset 5, -8
 1675              		.cfi_offset 14, -4
 1676 0002 0446     		mov	r4, r0
 787:Source\bsw\FreeRTOS\src/mpu_wrappers.c **** 	BaseType_t xReturn;
 788:Source\bsw\FreeRTOS\src/mpu_wrappers.c **** 	BaseType_t xRunningPrivileged = xPortRaisePrivilege();
 1677              		.loc 1 788 0
 1678 0004 FFF7FEFF 		bl	xPortRaisePrivilege
 1679              	.LVL268:
 1680 0008 0546     		mov	r5, r0
 1681              	.LVL269:
 789:Source\bsw\FreeRTOS\src/mpu_wrappers.c **** 
 790:Source\bsw\FreeRTOS\src/mpu_wrappers.c **** 		xReturn = xQueueGiveMutexRecursive( xMutex );
 1682              		.loc 1 790 0
 1683 000a 2046     		mov	r0, r4
 1684              	.LVL270:
 1685 000c FFF7FEFF 		bl	xQueueGiveMutexRecursive
 1686              	.LVL271:
 1687 0010 0446     		mov	r4, r0
 1688              	.LVL272:
 791:Source\bsw\FreeRTOS\src/mpu_wrappers.c **** 		vPortResetPrivilege( xRunningPrivileged );
 1689              		.loc 1 791 0
 1690 0012 2846     		mov	r0, r5
 1691              	.LVL273:
 1692 0014 FFF7FEFF 		bl	vPortResetPrivilege
 1693              	.LVL274:
 792:Source\bsw\FreeRTOS\src/mpu_wrappers.c **** 		return xReturn;
 793:Source\bsw\FreeRTOS\src/mpu_wrappers.c **** 	}
 1694              		.loc 1 793 0
 1695 0018 2046     		mov	r0, r4
 1696 001a 38BD     		pop	{r3, r4, r5, pc}
 1697              		.cfi_endproc
 1698              	.LFE106:
 1699              		.size	MPU_xQueueGiveMutexRecursive, .-MPU_xQueueGiveMutexRecursive
 1700              		.section	.text.MPU_vQueueAddToRegistry,"ax",%progbits
 1701              		.align	2
 1702              		.global	MPU_vQueueAddToRegistry
 1703              		.thumb
 1704              		.thumb_func
 1705              		.type	MPU_vQueueAddToRegistry, %function
 1706              	MPU_vQueueAddToRegistry:
 1707              	.LFB107:
 794:Source\bsw\FreeRTOS\src/mpu_wrappers.c **** #endif
 795:Source\bsw\FreeRTOS\src/mpu_wrappers.c **** /*-----------------------------------------------------------*/
 796:Source\bsw\FreeRTOS\src/mpu_wrappers.c **** 
 797:Source\bsw\FreeRTOS\src/mpu_wrappers.c **** #if( ( configUSE_QUEUE_SETS == 1 ) && ( configSUPPORT_DYNAMIC_ALLOCATION == 1 ) )
 798:Source\bsw\FreeRTOS\src/mpu_wrappers.c **** 	QueueSetHandle_t MPU_xQueueCreateSet( UBaseType_t uxEventQueueLength ) /* FREERTOS_SYSTEM_CALL */
 799:Source\bsw\FreeRTOS\src/mpu_wrappers.c **** 	{
 800:Source\bsw\FreeRTOS\src/mpu_wrappers.c **** 	QueueSetHandle_t xReturn;
ARM GAS  C:\Users\Reza\AppData\Local\Temp\cckOPwM0.s 			page 45


 801:Source\bsw\FreeRTOS\src/mpu_wrappers.c **** 	BaseType_t xRunningPrivileged = xPortRaisePrivilege();
 802:Source\bsw\FreeRTOS\src/mpu_wrappers.c **** 
 803:Source\bsw\FreeRTOS\src/mpu_wrappers.c **** 		xReturn = xQueueCreateSet( uxEventQueueLength );
 804:Source\bsw\FreeRTOS\src/mpu_wrappers.c **** 		vPortResetPrivilege( xRunningPrivileged );
 805:Source\bsw\FreeRTOS\src/mpu_wrappers.c **** 		return xReturn;
 806:Source\bsw\FreeRTOS\src/mpu_wrappers.c **** 	}
 807:Source\bsw\FreeRTOS\src/mpu_wrappers.c **** #endif
 808:Source\bsw\FreeRTOS\src/mpu_wrappers.c **** /*-----------------------------------------------------------*/
 809:Source\bsw\FreeRTOS\src/mpu_wrappers.c **** 
 810:Source\bsw\FreeRTOS\src/mpu_wrappers.c **** #if ( configUSE_QUEUE_SETS == 1 )
 811:Source\bsw\FreeRTOS\src/mpu_wrappers.c **** 	QueueSetMemberHandle_t MPU_xQueueSelectFromSet( QueueSetHandle_t xQueueSet, TickType_t xBlockTimeT
 812:Source\bsw\FreeRTOS\src/mpu_wrappers.c **** 	{
 813:Source\bsw\FreeRTOS\src/mpu_wrappers.c **** 	QueueSetMemberHandle_t xReturn;
 814:Source\bsw\FreeRTOS\src/mpu_wrappers.c **** 	BaseType_t xRunningPrivileged = xPortRaisePrivilege();
 815:Source\bsw\FreeRTOS\src/mpu_wrappers.c **** 
 816:Source\bsw\FreeRTOS\src/mpu_wrappers.c **** 		xReturn = xQueueSelectFromSet( xQueueSet, xBlockTimeTicks );
 817:Source\bsw\FreeRTOS\src/mpu_wrappers.c **** 		vPortResetPrivilege( xRunningPrivileged );
 818:Source\bsw\FreeRTOS\src/mpu_wrappers.c **** 		return xReturn;
 819:Source\bsw\FreeRTOS\src/mpu_wrappers.c **** 	}
 820:Source\bsw\FreeRTOS\src/mpu_wrappers.c **** #endif
 821:Source\bsw\FreeRTOS\src/mpu_wrappers.c **** /*-----------------------------------------------------------*/
 822:Source\bsw\FreeRTOS\src/mpu_wrappers.c **** 
 823:Source\bsw\FreeRTOS\src/mpu_wrappers.c **** #if ( configUSE_QUEUE_SETS == 1 )
 824:Source\bsw\FreeRTOS\src/mpu_wrappers.c **** 	BaseType_t MPU_xQueueAddToSet( QueueSetMemberHandle_t xQueueOrSemaphore, QueueSetHandle_t xQueueSe
 825:Source\bsw\FreeRTOS\src/mpu_wrappers.c **** 	{
 826:Source\bsw\FreeRTOS\src/mpu_wrappers.c **** 	BaseType_t xReturn;
 827:Source\bsw\FreeRTOS\src/mpu_wrappers.c **** 	BaseType_t xRunningPrivileged = xPortRaisePrivilege();
 828:Source\bsw\FreeRTOS\src/mpu_wrappers.c **** 
 829:Source\bsw\FreeRTOS\src/mpu_wrappers.c **** 		xReturn = xQueueAddToSet( xQueueOrSemaphore, xQueueSet );
 830:Source\bsw\FreeRTOS\src/mpu_wrappers.c **** 		vPortResetPrivilege( xRunningPrivileged );
 831:Source\bsw\FreeRTOS\src/mpu_wrappers.c **** 		return xReturn;
 832:Source\bsw\FreeRTOS\src/mpu_wrappers.c **** 	}
 833:Source\bsw\FreeRTOS\src/mpu_wrappers.c **** #endif
 834:Source\bsw\FreeRTOS\src/mpu_wrappers.c **** /*-----------------------------------------------------------*/
 835:Source\bsw\FreeRTOS\src/mpu_wrappers.c **** 
 836:Source\bsw\FreeRTOS\src/mpu_wrappers.c **** #if ( configUSE_QUEUE_SETS == 1 )
 837:Source\bsw\FreeRTOS\src/mpu_wrappers.c **** 	BaseType_t MPU_xQueueRemoveFromSet( QueueSetMemberHandle_t xQueueOrSemaphore, QueueSetHandle_t xQu
 838:Source\bsw\FreeRTOS\src/mpu_wrappers.c **** 	{
 839:Source\bsw\FreeRTOS\src/mpu_wrappers.c **** 	BaseType_t xReturn;
 840:Source\bsw\FreeRTOS\src/mpu_wrappers.c **** 	BaseType_t xRunningPrivileged = xPortRaisePrivilege();
 841:Source\bsw\FreeRTOS\src/mpu_wrappers.c **** 
 842:Source\bsw\FreeRTOS\src/mpu_wrappers.c **** 		xReturn = xQueueRemoveFromSet( xQueueOrSemaphore, xQueueSet );
 843:Source\bsw\FreeRTOS\src/mpu_wrappers.c **** 		vPortResetPrivilege( xRunningPrivileged );
 844:Source\bsw\FreeRTOS\src/mpu_wrappers.c **** 		return xReturn;
 845:Source\bsw\FreeRTOS\src/mpu_wrappers.c **** 	}
 846:Source\bsw\FreeRTOS\src/mpu_wrappers.c **** #endif
 847:Source\bsw\FreeRTOS\src/mpu_wrappers.c **** /*-----------------------------------------------------------*/
 848:Source\bsw\FreeRTOS\src/mpu_wrappers.c **** 
 849:Source\bsw\FreeRTOS\src/mpu_wrappers.c **** #if configQUEUE_REGISTRY_SIZE > 0
 850:Source\bsw\FreeRTOS\src/mpu_wrappers.c **** 	void MPU_vQueueAddToRegistry( QueueHandle_t xQueue, const char *pcName ) /* FREERTOS_SYSTEM_CALL *
 851:Source\bsw\FreeRTOS\src/mpu_wrappers.c **** 	{
 1708              		.loc 1 851 0
 1709              		.cfi_startproc
 1710              		@ args = 0, pretend = 0, frame = 0
 1711              		@ frame_needed = 0, uses_anonymous_args = 0
 1712              	.LVL275:
 1713 0000 70B5     		push	{r4, r5, r6, lr}
ARM GAS  C:\Users\Reza\AppData\Local\Temp\cckOPwM0.s 			page 46


 1714              		.cfi_def_cfa_offset 16
 1715              		.cfi_offset 4, -16
 1716              		.cfi_offset 5, -12
 1717              		.cfi_offset 6, -8
 1718              		.cfi_offset 14, -4
 1719 0002 0546     		mov	r5, r0
 1720 0004 0E46     		mov	r6, r1
 852:Source\bsw\FreeRTOS\src/mpu_wrappers.c **** 	BaseType_t xRunningPrivileged = xPortRaisePrivilege();
 1721              		.loc 1 852 0
 1722 0006 FFF7FEFF 		bl	xPortRaisePrivilege
 1723              	.LVL276:
 1724 000a 0446     		mov	r4, r0
 1725              	.LVL277:
 853:Source\bsw\FreeRTOS\src/mpu_wrappers.c **** 
 854:Source\bsw\FreeRTOS\src/mpu_wrappers.c **** 		vQueueAddToRegistry( xQueue, pcName );
 1726              		.loc 1 854 0
 1727 000c 3146     		mov	r1, r6
 1728 000e 2846     		mov	r0, r5
 1729              	.LVL278:
 1730 0010 FFF7FEFF 		bl	vQueueAddToRegistry
 1731              	.LVL279:
 855:Source\bsw\FreeRTOS\src/mpu_wrappers.c **** 
 856:Source\bsw\FreeRTOS\src/mpu_wrappers.c **** 		vPortResetPrivilege( xRunningPrivileged );
 1732              		.loc 1 856 0
 1733 0014 2046     		mov	r0, r4
 1734 0016 FFF7FEFF 		bl	vPortResetPrivilege
 1735              	.LVL280:
 1736 001a 70BD     		pop	{r4, r5, r6, pc}
 1737              		.cfi_endproc
 1738              	.LFE107:
 1739              		.size	MPU_vQueueAddToRegistry, .-MPU_vQueueAddToRegistry
 1740              		.section	.text.MPU_vQueueUnregisterQueue,"ax",%progbits
 1741              		.align	2
 1742              		.global	MPU_vQueueUnregisterQueue
 1743              		.thumb
 1744              		.thumb_func
 1745              		.type	MPU_vQueueUnregisterQueue, %function
 1746              	MPU_vQueueUnregisterQueue:
 1747              	.LFB108:
 857:Source\bsw\FreeRTOS\src/mpu_wrappers.c **** 	}
 858:Source\bsw\FreeRTOS\src/mpu_wrappers.c **** #endif
 859:Source\bsw\FreeRTOS\src/mpu_wrappers.c **** /*-----------------------------------------------------------*/
 860:Source\bsw\FreeRTOS\src/mpu_wrappers.c **** 
 861:Source\bsw\FreeRTOS\src/mpu_wrappers.c **** #if configQUEUE_REGISTRY_SIZE > 0
 862:Source\bsw\FreeRTOS\src/mpu_wrappers.c **** 	void MPU_vQueueUnregisterQueue( QueueHandle_t xQueue ) /* FREERTOS_SYSTEM_CALL */
 863:Source\bsw\FreeRTOS\src/mpu_wrappers.c **** 	{
 1748              		.loc 1 863 0
 1749              		.cfi_startproc
 1750              		@ args = 0, pretend = 0, frame = 0
 1751              		@ frame_needed = 0, uses_anonymous_args = 0
 1752              	.LVL281:
 1753 0000 38B5     		push	{r3, r4, r5, lr}
 1754              		.cfi_def_cfa_offset 16
 1755              		.cfi_offset 3, -16
 1756              		.cfi_offset 4, -12
 1757              		.cfi_offset 5, -8
 1758              		.cfi_offset 14, -4
ARM GAS  C:\Users\Reza\AppData\Local\Temp\cckOPwM0.s 			page 47


 1759 0002 0546     		mov	r5, r0
 864:Source\bsw\FreeRTOS\src/mpu_wrappers.c **** 	BaseType_t xRunningPrivileged = xPortRaisePrivilege();
 1760              		.loc 1 864 0
 1761 0004 FFF7FEFF 		bl	xPortRaisePrivilege
 1762              	.LVL282:
 1763 0008 0446     		mov	r4, r0
 1764              	.LVL283:
 865:Source\bsw\FreeRTOS\src/mpu_wrappers.c **** 
 866:Source\bsw\FreeRTOS\src/mpu_wrappers.c **** 		vQueueUnregisterQueue( xQueue );
 1765              		.loc 1 866 0
 1766 000a 2846     		mov	r0, r5
 1767              	.LVL284:
 1768 000c FFF7FEFF 		bl	vQueueUnregisterQueue
 1769              	.LVL285:
 867:Source\bsw\FreeRTOS\src/mpu_wrappers.c **** 
 868:Source\bsw\FreeRTOS\src/mpu_wrappers.c **** 		vPortResetPrivilege( xRunningPrivileged );
 1770              		.loc 1 868 0
 1771 0010 2046     		mov	r0, r4
 1772 0012 FFF7FEFF 		bl	vPortResetPrivilege
 1773              	.LVL286:
 1774 0016 38BD     		pop	{r3, r4, r5, pc}
 1775              		.cfi_endproc
 1776              	.LFE108:
 1777              		.size	MPU_vQueueUnregisterQueue, .-MPU_vQueueUnregisterQueue
 1778              		.section	.text.MPU_pcQueueGetName,"ax",%progbits
 1779              		.align	2
 1780              		.global	MPU_pcQueueGetName
 1781              		.thumb
 1782              		.thumb_func
 1783              		.type	MPU_pcQueueGetName, %function
 1784              	MPU_pcQueueGetName:
 1785              	.LFB109:
 869:Source\bsw\FreeRTOS\src/mpu_wrappers.c **** 	}
 870:Source\bsw\FreeRTOS\src/mpu_wrappers.c **** #endif
 871:Source\bsw\FreeRTOS\src/mpu_wrappers.c **** /*-----------------------------------------------------------*/
 872:Source\bsw\FreeRTOS\src/mpu_wrappers.c **** 
 873:Source\bsw\FreeRTOS\src/mpu_wrappers.c **** #if configQUEUE_REGISTRY_SIZE > 0
 874:Source\bsw\FreeRTOS\src/mpu_wrappers.c **** 	const char *MPU_pcQueueGetName( QueueHandle_t xQueue ) /* FREERTOS_SYSTEM_CALL */
 875:Source\bsw\FreeRTOS\src/mpu_wrappers.c **** 	{
 1786              		.loc 1 875 0
 1787              		.cfi_startproc
 1788              		@ args = 0, pretend = 0, frame = 0
 1789              		@ frame_needed = 0, uses_anonymous_args = 0
 1790              	.LVL287:
 1791 0000 38B5     		push	{r3, r4, r5, lr}
 1792              		.cfi_def_cfa_offset 16
 1793              		.cfi_offset 3, -16
 1794              		.cfi_offset 4, -12
 1795              		.cfi_offset 5, -8
 1796              		.cfi_offset 14, -4
 1797 0002 0446     		mov	r4, r0
 876:Source\bsw\FreeRTOS\src/mpu_wrappers.c **** 	BaseType_t xRunningPrivileged = xPortRaisePrivilege();
 1798              		.loc 1 876 0
 1799 0004 FFF7FEFF 		bl	xPortRaisePrivilege
 1800              	.LVL288:
 1801 0008 0546     		mov	r5, r0
 1802              	.LVL289:
ARM GAS  C:\Users\Reza\AppData\Local\Temp\cckOPwM0.s 			page 48


 877:Source\bsw\FreeRTOS\src/mpu_wrappers.c **** 	const char *pcReturn;
 878:Source\bsw\FreeRTOS\src/mpu_wrappers.c **** 
 879:Source\bsw\FreeRTOS\src/mpu_wrappers.c **** 		pcReturn = pcQueueGetName( xQueue );
 1803              		.loc 1 879 0
 1804 000a 2046     		mov	r0, r4
 1805              	.LVL290:
 1806 000c FFF7FEFF 		bl	pcQueueGetName
 1807              	.LVL291:
 1808 0010 0446     		mov	r4, r0
 1809              	.LVL292:
 880:Source\bsw\FreeRTOS\src/mpu_wrappers.c **** 
 881:Source\bsw\FreeRTOS\src/mpu_wrappers.c **** 		vPortResetPrivilege( xRunningPrivileged );
 1810              		.loc 1 881 0
 1811 0012 2846     		mov	r0, r5
 1812              	.LVL293:
 1813 0014 FFF7FEFF 		bl	vPortResetPrivilege
 1814              	.LVL294:
 882:Source\bsw\FreeRTOS\src/mpu_wrappers.c **** 		return pcReturn;
 883:Source\bsw\FreeRTOS\src/mpu_wrappers.c **** 	}
 1815              		.loc 1 883 0
 1816 0018 2046     		mov	r0, r4
 1817 001a 38BD     		pop	{r3, r4, r5, pc}
 1818              		.cfi_endproc
 1819              	.LFE109:
 1820              		.size	MPU_pcQueueGetName, .-MPU_pcQueueGetName
 1821              		.section	.text.MPU_vQueueDelete,"ax",%progbits
 1822              		.align	2
 1823              		.global	MPU_vQueueDelete
 1824              		.thumb
 1825              		.thumb_func
 1826              		.type	MPU_vQueueDelete, %function
 1827              	MPU_vQueueDelete:
 1828              	.LFB110:
 884:Source\bsw\FreeRTOS\src/mpu_wrappers.c **** #endif
 885:Source\bsw\FreeRTOS\src/mpu_wrappers.c **** /*-----------------------------------------------------------*/
 886:Source\bsw\FreeRTOS\src/mpu_wrappers.c **** 
 887:Source\bsw\FreeRTOS\src/mpu_wrappers.c **** void MPU_vQueueDelete( QueueHandle_t xQueue ) /* FREERTOS_SYSTEM_CALL */
 888:Source\bsw\FreeRTOS\src/mpu_wrappers.c **** {
 1829              		.loc 1 888 0
 1830              		.cfi_startproc
 1831              		@ args = 0, pretend = 0, frame = 0
 1832              		@ frame_needed = 0, uses_anonymous_args = 0
 1833              	.LVL295:
 1834 0000 38B5     		push	{r3, r4, r5, lr}
 1835              		.cfi_def_cfa_offset 16
 1836              		.cfi_offset 3, -16
 1837              		.cfi_offset 4, -12
 1838              		.cfi_offset 5, -8
 1839              		.cfi_offset 14, -4
 1840 0002 0546     		mov	r5, r0
 889:Source\bsw\FreeRTOS\src/mpu_wrappers.c **** BaseType_t xRunningPrivileged = xPortRaisePrivilege();
 1841              		.loc 1 889 0
 1842 0004 FFF7FEFF 		bl	xPortRaisePrivilege
 1843              	.LVL296:
 1844 0008 0446     		mov	r4, r0
 1845              	.LVL297:
 890:Source\bsw\FreeRTOS\src/mpu_wrappers.c **** 
ARM GAS  C:\Users\Reza\AppData\Local\Temp\cckOPwM0.s 			page 49


 891:Source\bsw\FreeRTOS\src/mpu_wrappers.c **** 	vQueueDelete( xQueue );
 1846              		.loc 1 891 0
 1847 000a 2846     		mov	r0, r5
 1848              	.LVL298:
 1849 000c FFF7FEFF 		bl	vQueueDelete
 1850              	.LVL299:
 892:Source\bsw\FreeRTOS\src/mpu_wrappers.c **** 
 893:Source\bsw\FreeRTOS\src/mpu_wrappers.c **** 	vPortResetPrivilege( xRunningPrivileged );
 1851              		.loc 1 893 0
 1852 0010 2046     		mov	r0, r4
 1853 0012 FFF7FEFF 		bl	vPortResetPrivilege
 1854              	.LVL300:
 1855 0016 38BD     		pop	{r3, r4, r5, pc}
 1856              		.cfi_endproc
 1857              	.LFE110:
 1858              		.size	MPU_vQueueDelete, .-MPU_vQueueDelete
 1859              		.section	.text.MPU_pvPortMalloc,"ax",%progbits
 1860              		.align	2
 1861              		.global	MPU_pvPortMalloc
 1862              		.thumb
 1863              		.thumb_func
 1864              		.type	MPU_pvPortMalloc, %function
 1865              	MPU_pvPortMalloc:
 1866              	.LFB111:
 894:Source\bsw\FreeRTOS\src/mpu_wrappers.c **** }
 895:Source\bsw\FreeRTOS\src/mpu_wrappers.c **** /*-----------------------------------------------------------*/
 896:Source\bsw\FreeRTOS\src/mpu_wrappers.c **** 
 897:Source\bsw\FreeRTOS\src/mpu_wrappers.c **** #if( configSUPPORT_DYNAMIC_ALLOCATION == 1 )
 898:Source\bsw\FreeRTOS\src/mpu_wrappers.c **** 	void *MPU_pvPortMalloc( size_t xSize ) /* FREERTOS_SYSTEM_CALL */
 899:Source\bsw\FreeRTOS\src/mpu_wrappers.c **** 	{
 1867              		.loc 1 899 0
 1868              		.cfi_startproc
 1869              		@ args = 0, pretend = 0, frame = 0
 1870              		@ frame_needed = 0, uses_anonymous_args = 0
 1871              	.LVL301:
 1872 0000 38B5     		push	{r3, r4, r5, lr}
 1873              		.cfi_def_cfa_offset 16
 1874              		.cfi_offset 3, -16
 1875              		.cfi_offset 4, -12
 1876              		.cfi_offset 5, -8
 1877              		.cfi_offset 14, -4
 1878 0002 0446     		mov	r4, r0
 900:Source\bsw\FreeRTOS\src/mpu_wrappers.c **** 	void *pvReturn;
 901:Source\bsw\FreeRTOS\src/mpu_wrappers.c **** 	BaseType_t xRunningPrivileged = xPortRaisePrivilege();
 1879              		.loc 1 901 0
 1880 0004 FFF7FEFF 		bl	xPortRaisePrivilege
 1881              	.LVL302:
 1882 0008 0546     		mov	r5, r0
 1883              	.LVL303:
 902:Source\bsw\FreeRTOS\src/mpu_wrappers.c **** 
 903:Source\bsw\FreeRTOS\src/mpu_wrappers.c **** 		pvReturn = pvPortMalloc( xSize );
 1884              		.loc 1 903 0
 1885 000a 2046     		mov	r0, r4
 1886              	.LVL304:
 1887 000c FFF7FEFF 		bl	pvPortMalloc
 1888              	.LVL305:
 1889 0010 0446     		mov	r4, r0
ARM GAS  C:\Users\Reza\AppData\Local\Temp\cckOPwM0.s 			page 50


 1890              	.LVL306:
 904:Source\bsw\FreeRTOS\src/mpu_wrappers.c **** 
 905:Source\bsw\FreeRTOS\src/mpu_wrappers.c **** 		vPortResetPrivilege( xRunningPrivileged );
 1891              		.loc 1 905 0
 1892 0012 2846     		mov	r0, r5
 1893              	.LVL307:
 1894 0014 FFF7FEFF 		bl	vPortResetPrivilege
 1895              	.LVL308:
 906:Source\bsw\FreeRTOS\src/mpu_wrappers.c **** 
 907:Source\bsw\FreeRTOS\src/mpu_wrappers.c **** 		return pvReturn;
 908:Source\bsw\FreeRTOS\src/mpu_wrappers.c **** 	}
 1896              		.loc 1 908 0
 1897 0018 2046     		mov	r0, r4
 1898 001a 38BD     		pop	{r3, r4, r5, pc}
 1899              		.cfi_endproc
 1900              	.LFE111:
 1901              		.size	MPU_pvPortMalloc, .-MPU_pvPortMalloc
 1902              		.section	.text.MPU_vPortFree,"ax",%progbits
 1903              		.align	2
 1904              		.global	MPU_vPortFree
 1905              		.thumb
 1906              		.thumb_func
 1907              		.type	MPU_vPortFree, %function
 1908              	MPU_vPortFree:
 1909              	.LFB112:
 909:Source\bsw\FreeRTOS\src/mpu_wrappers.c **** #endif /* configSUPPORT_DYNAMIC_ALLOCATION */
 910:Source\bsw\FreeRTOS\src/mpu_wrappers.c **** /*-----------------------------------------------------------*/
 911:Source\bsw\FreeRTOS\src/mpu_wrappers.c **** 
 912:Source\bsw\FreeRTOS\src/mpu_wrappers.c **** #if( configSUPPORT_DYNAMIC_ALLOCATION == 1 )
 913:Source\bsw\FreeRTOS\src/mpu_wrappers.c **** 	void MPU_vPortFree( void *pv ) /* FREERTOS_SYSTEM_CALL */
 914:Source\bsw\FreeRTOS\src/mpu_wrappers.c **** 	{
 1910              		.loc 1 914 0
 1911              		.cfi_startproc
 1912              		@ args = 0, pretend = 0, frame = 0
 1913              		@ frame_needed = 0, uses_anonymous_args = 0
 1914              	.LVL309:
 1915 0000 38B5     		push	{r3, r4, r5, lr}
 1916              		.cfi_def_cfa_offset 16
 1917              		.cfi_offset 3, -16
 1918              		.cfi_offset 4, -12
 1919              		.cfi_offset 5, -8
 1920              		.cfi_offset 14, -4
 1921 0002 0546     		mov	r5, r0
 915:Source\bsw\FreeRTOS\src/mpu_wrappers.c **** 	BaseType_t xRunningPrivileged = xPortRaisePrivilege();
 1922              		.loc 1 915 0
 1923 0004 FFF7FEFF 		bl	xPortRaisePrivilege
 1924              	.LVL310:
 1925 0008 0446     		mov	r4, r0
 1926              	.LVL311:
 916:Source\bsw\FreeRTOS\src/mpu_wrappers.c **** 
 917:Source\bsw\FreeRTOS\src/mpu_wrappers.c **** 		vPortFree( pv );
 1927              		.loc 1 917 0
 1928 000a 2846     		mov	r0, r5
 1929              	.LVL312:
 1930 000c FFF7FEFF 		bl	vPortFree
 1931              	.LVL313:
 918:Source\bsw\FreeRTOS\src/mpu_wrappers.c **** 
ARM GAS  C:\Users\Reza\AppData\Local\Temp\cckOPwM0.s 			page 51


 919:Source\bsw\FreeRTOS\src/mpu_wrappers.c **** 		vPortResetPrivilege( xRunningPrivileged );
 1932              		.loc 1 919 0
 1933 0010 2046     		mov	r0, r4
 1934 0012 FFF7FEFF 		bl	vPortResetPrivilege
 1935              	.LVL314:
 1936 0016 38BD     		pop	{r3, r4, r5, pc}
 1937              		.cfi_endproc
 1938              	.LFE112:
 1939              		.size	MPU_vPortFree, .-MPU_vPortFree
 1940              		.section	.text.MPU_vPortInitialiseBlocks,"ax",%progbits
 1941              		.align	2
 1942              		.global	MPU_vPortInitialiseBlocks
 1943              		.thumb
 1944              		.thumb_func
 1945              		.type	MPU_vPortInitialiseBlocks, %function
 1946              	MPU_vPortInitialiseBlocks:
 1947              	.LFB113:
 920:Source\bsw\FreeRTOS\src/mpu_wrappers.c **** 	}
 921:Source\bsw\FreeRTOS\src/mpu_wrappers.c **** #endif /* configSUPPORT_DYNAMIC_ALLOCATION */
 922:Source\bsw\FreeRTOS\src/mpu_wrappers.c **** /*-----------------------------------------------------------*/
 923:Source\bsw\FreeRTOS\src/mpu_wrappers.c **** 
 924:Source\bsw\FreeRTOS\src/mpu_wrappers.c **** #if( configSUPPORT_DYNAMIC_ALLOCATION == 1 )
 925:Source\bsw\FreeRTOS\src/mpu_wrappers.c **** 	void MPU_vPortInitialiseBlocks( void ) /* FREERTOS_SYSTEM_CALL */
 926:Source\bsw\FreeRTOS\src/mpu_wrappers.c **** 	{
 1948              		.loc 1 926 0
 1949              		.cfi_startproc
 1950              		@ args = 0, pretend = 0, frame = 0
 1951              		@ frame_needed = 0, uses_anonymous_args = 0
 1952 0000 10B5     		push	{r4, lr}
 1953              		.cfi_def_cfa_offset 8
 1954              		.cfi_offset 4, -8
 1955              		.cfi_offset 14, -4
 927:Source\bsw\FreeRTOS\src/mpu_wrappers.c **** 	BaseType_t xRunningPrivileged = xPortRaisePrivilege();
 1956              		.loc 1 927 0
 1957 0002 FFF7FEFF 		bl	xPortRaisePrivilege
 1958              	.LVL315:
 1959 0006 0446     		mov	r4, r0
 1960              	.LVL316:
 928:Source\bsw\FreeRTOS\src/mpu_wrappers.c **** 
 929:Source\bsw\FreeRTOS\src/mpu_wrappers.c **** 		vPortInitialiseBlocks();
 1961              		.loc 1 929 0
 1962 0008 FFF7FEFF 		bl	vPortInitialiseBlocks
 1963              	.LVL317:
 930:Source\bsw\FreeRTOS\src/mpu_wrappers.c **** 
 931:Source\bsw\FreeRTOS\src/mpu_wrappers.c **** 		vPortResetPrivilege( xRunningPrivileged );
 1964              		.loc 1 931 0
 1965 000c 2046     		mov	r0, r4
 1966 000e FFF7FEFF 		bl	vPortResetPrivilege
 1967              	.LVL318:
 1968 0012 10BD     		pop	{r4, pc}
 1969              		.cfi_endproc
 1970              	.LFE113:
 1971              		.size	MPU_vPortInitialiseBlocks, .-MPU_vPortInitialiseBlocks
 1972              		.section	.text.MPU_xPortGetFreeHeapSize,"ax",%progbits
 1973              		.align	2
 1974              		.global	MPU_xPortGetFreeHeapSize
 1975              		.thumb
ARM GAS  C:\Users\Reza\AppData\Local\Temp\cckOPwM0.s 			page 52


 1976              		.thumb_func
 1977              		.type	MPU_xPortGetFreeHeapSize, %function
 1978              	MPU_xPortGetFreeHeapSize:
 1979              	.LFB114:
 932:Source\bsw\FreeRTOS\src/mpu_wrappers.c **** 	}
 933:Source\bsw\FreeRTOS\src/mpu_wrappers.c **** #endif /* configSUPPORT_DYNAMIC_ALLOCATION */
 934:Source\bsw\FreeRTOS\src/mpu_wrappers.c **** /*-----------------------------------------------------------*/
 935:Source\bsw\FreeRTOS\src/mpu_wrappers.c **** 
 936:Source\bsw\FreeRTOS\src/mpu_wrappers.c **** #if( configSUPPORT_DYNAMIC_ALLOCATION == 1 )
 937:Source\bsw\FreeRTOS\src/mpu_wrappers.c **** 	size_t MPU_xPortGetFreeHeapSize( void ) /* FREERTOS_SYSTEM_CALL */
 938:Source\bsw\FreeRTOS\src/mpu_wrappers.c **** 	{
 1980              		.loc 1 938 0
 1981              		.cfi_startproc
 1982              		@ args = 0, pretend = 0, frame = 0
 1983              		@ frame_needed = 0, uses_anonymous_args = 0
 1984 0000 38B5     		push	{r3, r4, r5, lr}
 1985              		.cfi_def_cfa_offset 16
 1986              		.cfi_offset 3, -16
 1987              		.cfi_offset 4, -12
 1988              		.cfi_offset 5, -8
 1989              		.cfi_offset 14, -4
 939:Source\bsw\FreeRTOS\src/mpu_wrappers.c **** 	size_t xReturn;
 940:Source\bsw\FreeRTOS\src/mpu_wrappers.c **** 	BaseType_t xRunningPrivileged = xPortRaisePrivilege();
 1990              		.loc 1 940 0
 1991 0002 FFF7FEFF 		bl	xPortRaisePrivilege
 1992              	.LVL319:
 1993 0006 0546     		mov	r5, r0
 1994              	.LVL320:
 941:Source\bsw\FreeRTOS\src/mpu_wrappers.c **** 
 942:Source\bsw\FreeRTOS\src/mpu_wrappers.c **** 		xReturn = xPortGetFreeHeapSize();
 1995              		.loc 1 942 0
 1996 0008 FFF7FEFF 		bl	xPortGetFreeHeapSize
 1997              	.LVL321:
 1998 000c 0446     		mov	r4, r0
 1999              	.LVL322:
 943:Source\bsw\FreeRTOS\src/mpu_wrappers.c **** 
 944:Source\bsw\FreeRTOS\src/mpu_wrappers.c **** 		vPortResetPrivilege( xRunningPrivileged );
 2000              		.loc 1 944 0
 2001 000e 2846     		mov	r0, r5
 2002              	.LVL323:
 2003 0010 FFF7FEFF 		bl	vPortResetPrivilege
 2004              	.LVL324:
 945:Source\bsw\FreeRTOS\src/mpu_wrappers.c **** 
 946:Source\bsw\FreeRTOS\src/mpu_wrappers.c **** 		return xReturn;
 947:Source\bsw\FreeRTOS\src/mpu_wrappers.c **** 	}
 2005              		.loc 1 947 0
 2006 0014 2046     		mov	r0, r4
 2007 0016 38BD     		pop	{r3, r4, r5, pc}
 2008              		.cfi_endproc
 2009              	.LFE114:
 2010              		.size	MPU_xPortGetFreeHeapSize, .-MPU_xPortGetFreeHeapSize
 2011              		.section	.text.MPU_xEventGroupCreate,"ax",%progbits
 2012              		.align	2
 2013              		.global	MPU_xEventGroupCreate
 2014              		.thumb
 2015              		.thumb_func
 2016              		.type	MPU_xEventGroupCreate, %function
ARM GAS  C:\Users\Reza\AppData\Local\Temp\cckOPwM0.s 			page 53


 2017              	MPU_xEventGroupCreate:
 2018              	.LFB115:
 948:Source\bsw\FreeRTOS\src/mpu_wrappers.c **** #endif /* configSUPPORT_DYNAMIC_ALLOCATION */
 949:Source\bsw\FreeRTOS\src/mpu_wrappers.c **** /*-----------------------------------------------------------*/
 950:Source\bsw\FreeRTOS\src/mpu_wrappers.c **** 
 951:Source\bsw\FreeRTOS\src/mpu_wrappers.c **** #if( ( configSUPPORT_DYNAMIC_ALLOCATION == 1 ) && ( configUSE_TIMERS == 1 ) )
 952:Source\bsw\FreeRTOS\src/mpu_wrappers.c **** 	TimerHandle_t MPU_xTimerCreate( const char * const pcTimerName, const TickType_t xTimerPeriodInTic
 953:Source\bsw\FreeRTOS\src/mpu_wrappers.c **** 	{
 954:Source\bsw\FreeRTOS\src/mpu_wrappers.c **** 	TimerHandle_t xReturn;
 955:Source\bsw\FreeRTOS\src/mpu_wrappers.c **** 	BaseType_t xRunningPrivileged = xPortRaisePrivilege();
 956:Source\bsw\FreeRTOS\src/mpu_wrappers.c **** 
 957:Source\bsw\FreeRTOS\src/mpu_wrappers.c **** 		xReturn = xTimerCreate( pcTimerName, xTimerPeriodInTicks, uxAutoReload, pvTimerID, pxCallbackFunc
 958:Source\bsw\FreeRTOS\src/mpu_wrappers.c **** 		vPortResetPrivilege( xRunningPrivileged );
 959:Source\bsw\FreeRTOS\src/mpu_wrappers.c **** 
 960:Source\bsw\FreeRTOS\src/mpu_wrappers.c **** 		return xReturn;
 961:Source\bsw\FreeRTOS\src/mpu_wrappers.c **** 	}
 962:Source\bsw\FreeRTOS\src/mpu_wrappers.c **** #endif
 963:Source\bsw\FreeRTOS\src/mpu_wrappers.c **** /*-----------------------------------------------------------*/
 964:Source\bsw\FreeRTOS\src/mpu_wrappers.c **** 
 965:Source\bsw\FreeRTOS\src/mpu_wrappers.c **** #if( ( configSUPPORT_STATIC_ALLOCATION == 1 ) && ( configUSE_TIMERS == 1 ) )
 966:Source\bsw\FreeRTOS\src/mpu_wrappers.c **** 	TimerHandle_t MPU_xTimerCreateStatic( const char * const pcTimerName, const TickType_t xTimerPerio
 967:Source\bsw\FreeRTOS\src/mpu_wrappers.c **** 	{
 968:Source\bsw\FreeRTOS\src/mpu_wrappers.c **** 	TimerHandle_t xReturn;
 969:Source\bsw\FreeRTOS\src/mpu_wrappers.c **** 	BaseType_t xRunningPrivileged = xPortRaisePrivilege();
 970:Source\bsw\FreeRTOS\src/mpu_wrappers.c **** 
 971:Source\bsw\FreeRTOS\src/mpu_wrappers.c **** 		xReturn = xTimerCreateStatic( pcTimerName, xTimerPeriodInTicks, uxAutoReload, pvTimerID, pxCallba
 972:Source\bsw\FreeRTOS\src/mpu_wrappers.c **** 		vPortResetPrivilege( xRunningPrivileged );
 973:Source\bsw\FreeRTOS\src/mpu_wrappers.c **** 
 974:Source\bsw\FreeRTOS\src/mpu_wrappers.c **** 		return xReturn;
 975:Source\bsw\FreeRTOS\src/mpu_wrappers.c **** 	}
 976:Source\bsw\FreeRTOS\src/mpu_wrappers.c **** #endif
 977:Source\bsw\FreeRTOS\src/mpu_wrappers.c **** /*-----------------------------------------------------------*/
 978:Source\bsw\FreeRTOS\src/mpu_wrappers.c **** 
 979:Source\bsw\FreeRTOS\src/mpu_wrappers.c **** #if( configUSE_TIMERS == 1 )
 980:Source\bsw\FreeRTOS\src/mpu_wrappers.c **** 	void *MPU_pvTimerGetTimerID( const TimerHandle_t xTimer ) /* FREERTOS_SYSTEM_CALL */
 981:Source\bsw\FreeRTOS\src/mpu_wrappers.c **** 	{
 982:Source\bsw\FreeRTOS\src/mpu_wrappers.c **** 	void * pvReturn;
 983:Source\bsw\FreeRTOS\src/mpu_wrappers.c **** 	BaseType_t xRunningPrivileged = xPortRaisePrivilege();
 984:Source\bsw\FreeRTOS\src/mpu_wrappers.c **** 
 985:Source\bsw\FreeRTOS\src/mpu_wrappers.c **** 		pvReturn = pvTimerGetTimerID( xTimer );
 986:Source\bsw\FreeRTOS\src/mpu_wrappers.c **** 		vPortResetPrivilege( xRunningPrivileged );
 987:Source\bsw\FreeRTOS\src/mpu_wrappers.c **** 
 988:Source\bsw\FreeRTOS\src/mpu_wrappers.c **** 		return pvReturn;
 989:Source\bsw\FreeRTOS\src/mpu_wrappers.c **** 	}
 990:Source\bsw\FreeRTOS\src/mpu_wrappers.c **** #endif
 991:Source\bsw\FreeRTOS\src/mpu_wrappers.c **** /*-----------------------------------------------------------*/
 992:Source\bsw\FreeRTOS\src/mpu_wrappers.c **** 
 993:Source\bsw\FreeRTOS\src/mpu_wrappers.c **** #if( configUSE_TIMERS == 1 )
 994:Source\bsw\FreeRTOS\src/mpu_wrappers.c **** 	void MPU_vTimerSetTimerID( TimerHandle_t xTimer, void *pvNewID ) /* FREERTOS_SYSTEM_CALL */
 995:Source\bsw\FreeRTOS\src/mpu_wrappers.c **** 	{
 996:Source\bsw\FreeRTOS\src/mpu_wrappers.c **** 	BaseType_t xRunningPrivileged = xPortRaisePrivilege();
 997:Source\bsw\FreeRTOS\src/mpu_wrappers.c **** 
 998:Source\bsw\FreeRTOS\src/mpu_wrappers.c **** 		vTimerSetTimerID( xTimer, pvNewID );
 999:Source\bsw\FreeRTOS\src/mpu_wrappers.c **** 		vPortResetPrivilege( xRunningPrivileged );
1000:Source\bsw\FreeRTOS\src/mpu_wrappers.c **** 	}
1001:Source\bsw\FreeRTOS\src/mpu_wrappers.c **** #endif
1002:Source\bsw\FreeRTOS\src/mpu_wrappers.c **** /*-----------------------------------------------------------*/
ARM GAS  C:\Users\Reza\AppData\Local\Temp\cckOPwM0.s 			page 54


1003:Source\bsw\FreeRTOS\src/mpu_wrappers.c **** 
1004:Source\bsw\FreeRTOS\src/mpu_wrappers.c **** #if( configUSE_TIMERS == 1 )
1005:Source\bsw\FreeRTOS\src/mpu_wrappers.c **** 	BaseType_t MPU_xTimerIsTimerActive( TimerHandle_t xTimer ) /* FREERTOS_SYSTEM_CALL */
1006:Source\bsw\FreeRTOS\src/mpu_wrappers.c **** 	{
1007:Source\bsw\FreeRTOS\src/mpu_wrappers.c **** 	BaseType_t xReturn;
1008:Source\bsw\FreeRTOS\src/mpu_wrappers.c **** 	BaseType_t xRunningPrivileged = xPortRaisePrivilege();
1009:Source\bsw\FreeRTOS\src/mpu_wrappers.c **** 
1010:Source\bsw\FreeRTOS\src/mpu_wrappers.c **** 		xReturn = xTimerIsTimerActive( xTimer );
1011:Source\bsw\FreeRTOS\src/mpu_wrappers.c **** 		vPortResetPrivilege( xRunningPrivileged );
1012:Source\bsw\FreeRTOS\src/mpu_wrappers.c **** 
1013:Source\bsw\FreeRTOS\src/mpu_wrappers.c **** 		return xReturn;
1014:Source\bsw\FreeRTOS\src/mpu_wrappers.c **** 	}
1015:Source\bsw\FreeRTOS\src/mpu_wrappers.c **** #endif
1016:Source\bsw\FreeRTOS\src/mpu_wrappers.c **** /*-----------------------------------------------------------*/
1017:Source\bsw\FreeRTOS\src/mpu_wrappers.c **** 
1018:Source\bsw\FreeRTOS\src/mpu_wrappers.c **** #if( configUSE_TIMERS == 1 )
1019:Source\bsw\FreeRTOS\src/mpu_wrappers.c **** 	TaskHandle_t MPU_xTimerGetTimerDaemonTaskHandle( void ) /* FREERTOS_SYSTEM_CALL */
1020:Source\bsw\FreeRTOS\src/mpu_wrappers.c **** 	{
1021:Source\bsw\FreeRTOS\src/mpu_wrappers.c **** 	TaskHandle_t xReturn;
1022:Source\bsw\FreeRTOS\src/mpu_wrappers.c **** 	BaseType_t xRunningPrivileged = xPortRaisePrivilege();
1023:Source\bsw\FreeRTOS\src/mpu_wrappers.c **** 
1024:Source\bsw\FreeRTOS\src/mpu_wrappers.c **** 		xReturn = xTimerGetTimerDaemonTaskHandle();
1025:Source\bsw\FreeRTOS\src/mpu_wrappers.c **** 		vPortResetPrivilege( xRunningPrivileged );
1026:Source\bsw\FreeRTOS\src/mpu_wrappers.c **** 
1027:Source\bsw\FreeRTOS\src/mpu_wrappers.c **** 		return xReturn;
1028:Source\bsw\FreeRTOS\src/mpu_wrappers.c **** 	}
1029:Source\bsw\FreeRTOS\src/mpu_wrappers.c **** #endif
1030:Source\bsw\FreeRTOS\src/mpu_wrappers.c **** /*-----------------------------------------------------------*/
1031:Source\bsw\FreeRTOS\src/mpu_wrappers.c **** 
1032:Source\bsw\FreeRTOS\src/mpu_wrappers.c **** #if( ( INCLUDE_xTimerPendFunctionCall == 1 ) && ( configUSE_TIMERS == 1 ) )
1033:Source\bsw\FreeRTOS\src/mpu_wrappers.c **** 	BaseType_t MPU_xTimerPendFunctionCall( PendedFunction_t xFunctionToPend, void *pvParameter1, uint3
1034:Source\bsw\FreeRTOS\src/mpu_wrappers.c **** 	{
1035:Source\bsw\FreeRTOS\src/mpu_wrappers.c **** 	BaseType_t xReturn;
1036:Source\bsw\FreeRTOS\src/mpu_wrappers.c **** 	BaseType_t xRunningPrivileged = xPortRaisePrivilege();
1037:Source\bsw\FreeRTOS\src/mpu_wrappers.c **** 
1038:Source\bsw\FreeRTOS\src/mpu_wrappers.c **** 		xReturn = xTimerPendFunctionCall( xFunctionToPend, pvParameter1, ulParameter2, xTicksToWait );
1039:Source\bsw\FreeRTOS\src/mpu_wrappers.c **** 		vPortResetPrivilege( xRunningPrivileged );
1040:Source\bsw\FreeRTOS\src/mpu_wrappers.c **** 
1041:Source\bsw\FreeRTOS\src/mpu_wrappers.c **** 		return xReturn;
1042:Source\bsw\FreeRTOS\src/mpu_wrappers.c **** 	}
1043:Source\bsw\FreeRTOS\src/mpu_wrappers.c **** #endif
1044:Source\bsw\FreeRTOS\src/mpu_wrappers.c **** /*-----------------------------------------------------------*/
1045:Source\bsw\FreeRTOS\src/mpu_wrappers.c **** 
1046:Source\bsw\FreeRTOS\src/mpu_wrappers.c **** #if( configUSE_TIMERS == 1 )
1047:Source\bsw\FreeRTOS\src/mpu_wrappers.c **** 	void MPU_vTimerSetReloadMode( TimerHandle_t xTimer, const UBaseType_t uxAutoReload ) /* FREERTOS_S
1048:Source\bsw\FreeRTOS\src/mpu_wrappers.c **** 	{
1049:Source\bsw\FreeRTOS\src/mpu_wrappers.c **** 	BaseType_t xRunningPrivileged = xPortRaisePrivilege();
1050:Source\bsw\FreeRTOS\src/mpu_wrappers.c **** 
1051:Source\bsw\FreeRTOS\src/mpu_wrappers.c **** 		vTimerSetReloadMode( xTimer, uxAutoReload );
1052:Source\bsw\FreeRTOS\src/mpu_wrappers.c **** 		vPortResetPrivilege( xRunningPrivileged );
1053:Source\bsw\FreeRTOS\src/mpu_wrappers.c **** 	}
1054:Source\bsw\FreeRTOS\src/mpu_wrappers.c **** #endif
1055:Source\bsw\FreeRTOS\src/mpu_wrappers.c **** /*-----------------------------------------------------------*/
1056:Source\bsw\FreeRTOS\src/mpu_wrappers.c **** 
1057:Source\bsw\FreeRTOS\src/mpu_wrappers.c **** #if( configUSE_TIMERS == 1 )
1058:Source\bsw\FreeRTOS\src/mpu_wrappers.c **** 	UBaseType_t MPU_uxTimerGetReloadMode( TimerHandle_t xTimer )
1059:Source\bsw\FreeRTOS\src/mpu_wrappers.c **** 	{
ARM GAS  C:\Users\Reza\AppData\Local\Temp\cckOPwM0.s 			page 55


1060:Source\bsw\FreeRTOS\src/mpu_wrappers.c **** 	BaseType_t xRunningPrivileged = xPortRaisePrivilege();
1061:Source\bsw\FreeRTOS\src/mpu_wrappers.c **** 	UBaseType_t uxReturn;
1062:Source\bsw\FreeRTOS\src/mpu_wrappers.c **** 
1063:Source\bsw\FreeRTOS\src/mpu_wrappers.c **** 		uxReturn = uxTimerGetReloadMode( xTimer );
1064:Source\bsw\FreeRTOS\src/mpu_wrappers.c **** 		vPortResetPrivilege( xRunningPrivileged );
1065:Source\bsw\FreeRTOS\src/mpu_wrappers.c **** 		return uxReturn;
1066:Source\bsw\FreeRTOS\src/mpu_wrappers.c **** 	}
1067:Source\bsw\FreeRTOS\src/mpu_wrappers.c **** #endif
1068:Source\bsw\FreeRTOS\src/mpu_wrappers.c **** /*-----------------------------------------------------------*/
1069:Source\bsw\FreeRTOS\src/mpu_wrappers.c **** 
1070:Source\bsw\FreeRTOS\src/mpu_wrappers.c **** #if( configUSE_TIMERS == 1 )
1071:Source\bsw\FreeRTOS\src/mpu_wrappers.c **** 	const char * MPU_pcTimerGetName( TimerHandle_t xTimer ) /* FREERTOS_SYSTEM_CALL */
1072:Source\bsw\FreeRTOS\src/mpu_wrappers.c **** 	{
1073:Source\bsw\FreeRTOS\src/mpu_wrappers.c **** 	const char * pcReturn;
1074:Source\bsw\FreeRTOS\src/mpu_wrappers.c **** 	BaseType_t xRunningPrivileged = xPortRaisePrivilege();
1075:Source\bsw\FreeRTOS\src/mpu_wrappers.c **** 
1076:Source\bsw\FreeRTOS\src/mpu_wrappers.c **** 		pcReturn = pcTimerGetName( xTimer );
1077:Source\bsw\FreeRTOS\src/mpu_wrappers.c **** 		vPortResetPrivilege( xRunningPrivileged );
1078:Source\bsw\FreeRTOS\src/mpu_wrappers.c **** 
1079:Source\bsw\FreeRTOS\src/mpu_wrappers.c **** 		return pcReturn;
1080:Source\bsw\FreeRTOS\src/mpu_wrappers.c **** 	}
1081:Source\bsw\FreeRTOS\src/mpu_wrappers.c **** #endif
1082:Source\bsw\FreeRTOS\src/mpu_wrappers.c **** /*-----------------------------------------------------------*/
1083:Source\bsw\FreeRTOS\src/mpu_wrappers.c **** 
1084:Source\bsw\FreeRTOS\src/mpu_wrappers.c **** #if( configUSE_TIMERS == 1 )
1085:Source\bsw\FreeRTOS\src/mpu_wrappers.c **** 	TickType_t MPU_xTimerGetPeriod( TimerHandle_t xTimer ) /* FREERTOS_SYSTEM_CALL */
1086:Source\bsw\FreeRTOS\src/mpu_wrappers.c **** 	{
1087:Source\bsw\FreeRTOS\src/mpu_wrappers.c **** 	TickType_t xReturn;
1088:Source\bsw\FreeRTOS\src/mpu_wrappers.c **** 	BaseType_t xRunningPrivileged = xPortRaisePrivilege();
1089:Source\bsw\FreeRTOS\src/mpu_wrappers.c **** 
1090:Source\bsw\FreeRTOS\src/mpu_wrappers.c **** 		xReturn = xTimerGetPeriod( xTimer );
1091:Source\bsw\FreeRTOS\src/mpu_wrappers.c **** 		vPortResetPrivilege( xRunningPrivileged );
1092:Source\bsw\FreeRTOS\src/mpu_wrappers.c **** 
1093:Source\bsw\FreeRTOS\src/mpu_wrappers.c **** 		return xReturn;
1094:Source\bsw\FreeRTOS\src/mpu_wrappers.c **** 	}
1095:Source\bsw\FreeRTOS\src/mpu_wrappers.c **** #endif
1096:Source\bsw\FreeRTOS\src/mpu_wrappers.c **** /*-----------------------------------------------------------*/
1097:Source\bsw\FreeRTOS\src/mpu_wrappers.c **** 
1098:Source\bsw\FreeRTOS\src/mpu_wrappers.c **** #if( configUSE_TIMERS == 1 )
1099:Source\bsw\FreeRTOS\src/mpu_wrappers.c **** 	TickType_t MPU_xTimerGetExpiryTime( TimerHandle_t xTimer ) /* FREERTOS_SYSTEM_CALL */
1100:Source\bsw\FreeRTOS\src/mpu_wrappers.c **** 	{
1101:Source\bsw\FreeRTOS\src/mpu_wrappers.c **** 	TickType_t xReturn;
1102:Source\bsw\FreeRTOS\src/mpu_wrappers.c **** 	BaseType_t xRunningPrivileged = xPortRaisePrivilege();
1103:Source\bsw\FreeRTOS\src/mpu_wrappers.c **** 
1104:Source\bsw\FreeRTOS\src/mpu_wrappers.c **** 		xReturn = xTimerGetExpiryTime( xTimer );
1105:Source\bsw\FreeRTOS\src/mpu_wrappers.c **** 		vPortResetPrivilege( xRunningPrivileged );
1106:Source\bsw\FreeRTOS\src/mpu_wrappers.c **** 
1107:Source\bsw\FreeRTOS\src/mpu_wrappers.c **** 		return xReturn;
1108:Source\bsw\FreeRTOS\src/mpu_wrappers.c **** 	}
1109:Source\bsw\FreeRTOS\src/mpu_wrappers.c **** #endif
1110:Source\bsw\FreeRTOS\src/mpu_wrappers.c **** /*-----------------------------------------------------------*/
1111:Source\bsw\FreeRTOS\src/mpu_wrappers.c **** 
1112:Source\bsw\FreeRTOS\src/mpu_wrappers.c **** #if( configUSE_TIMERS == 1 )
1113:Source\bsw\FreeRTOS\src/mpu_wrappers.c **** 	BaseType_t MPU_xTimerGenericCommand( TimerHandle_t xTimer, const BaseType_t xCommandID, const Tick
1114:Source\bsw\FreeRTOS\src/mpu_wrappers.c **** 	{
1115:Source\bsw\FreeRTOS\src/mpu_wrappers.c **** 	BaseType_t xReturn;
1116:Source\bsw\FreeRTOS\src/mpu_wrappers.c **** 	BaseType_t xRunningPrivileged = xPortRaisePrivilege();
ARM GAS  C:\Users\Reza\AppData\Local\Temp\cckOPwM0.s 			page 56


1117:Source\bsw\FreeRTOS\src/mpu_wrappers.c **** 
1118:Source\bsw\FreeRTOS\src/mpu_wrappers.c **** 		xReturn = xTimerGenericCommand( xTimer, xCommandID, xOptionalValue, pxHigherPriorityTaskWoken, xT
1119:Source\bsw\FreeRTOS\src/mpu_wrappers.c **** 		vPortResetPrivilege( xRunningPrivileged );
1120:Source\bsw\FreeRTOS\src/mpu_wrappers.c **** 
1121:Source\bsw\FreeRTOS\src/mpu_wrappers.c **** 		return xReturn;
1122:Source\bsw\FreeRTOS\src/mpu_wrappers.c **** 	}
1123:Source\bsw\FreeRTOS\src/mpu_wrappers.c **** #endif
1124:Source\bsw\FreeRTOS\src/mpu_wrappers.c **** /*-----------------------------------------------------------*/
1125:Source\bsw\FreeRTOS\src/mpu_wrappers.c **** 
1126:Source\bsw\FreeRTOS\src/mpu_wrappers.c **** #if( configSUPPORT_DYNAMIC_ALLOCATION == 1 )
1127:Source\bsw\FreeRTOS\src/mpu_wrappers.c **** 	EventGroupHandle_t MPU_xEventGroupCreate( void ) /* FREERTOS_SYSTEM_CALL */
1128:Source\bsw\FreeRTOS\src/mpu_wrappers.c **** 	{
 2019              		.loc 1 1128 0
 2020              		.cfi_startproc
 2021              		@ args = 0, pretend = 0, frame = 0
 2022              		@ frame_needed = 0, uses_anonymous_args = 0
 2023 0000 38B5     		push	{r3, r4, r5, lr}
 2024              		.cfi_def_cfa_offset 16
 2025              		.cfi_offset 3, -16
 2026              		.cfi_offset 4, -12
 2027              		.cfi_offset 5, -8
 2028              		.cfi_offset 14, -4
1129:Source\bsw\FreeRTOS\src/mpu_wrappers.c **** 	EventGroupHandle_t xReturn;
1130:Source\bsw\FreeRTOS\src/mpu_wrappers.c **** 	BaseType_t xRunningPrivileged = xPortRaisePrivilege();
 2029              		.loc 1 1130 0
 2030 0002 FFF7FEFF 		bl	xPortRaisePrivilege
 2031              	.LVL325:
 2032 0006 0546     		mov	r5, r0
 2033              	.LVL326:
1131:Source\bsw\FreeRTOS\src/mpu_wrappers.c **** 
1132:Source\bsw\FreeRTOS\src/mpu_wrappers.c **** 		xReturn = xEventGroupCreate();
 2034              		.loc 1 1132 0
 2035 0008 FFF7FEFF 		bl	xEventGroupCreate
 2036              	.LVL327:
 2037 000c 0446     		mov	r4, r0
 2038              	.LVL328:
1133:Source\bsw\FreeRTOS\src/mpu_wrappers.c **** 		vPortResetPrivilege( xRunningPrivileged );
 2039              		.loc 1 1133 0
 2040 000e 2846     		mov	r0, r5
 2041              	.LVL329:
 2042 0010 FFF7FEFF 		bl	vPortResetPrivilege
 2043              	.LVL330:
1134:Source\bsw\FreeRTOS\src/mpu_wrappers.c **** 
1135:Source\bsw\FreeRTOS\src/mpu_wrappers.c **** 		return xReturn;
1136:Source\bsw\FreeRTOS\src/mpu_wrappers.c **** 	}
 2044              		.loc 1 1136 0
 2045 0014 2046     		mov	r0, r4
 2046 0016 38BD     		pop	{r3, r4, r5, pc}
 2047              		.cfi_endproc
 2048              	.LFE115:
 2049              		.size	MPU_xEventGroupCreate, .-MPU_xEventGroupCreate
 2050              		.section	.text.MPU_xEventGroupWaitBits,"ax",%progbits
 2051              		.align	2
 2052              		.global	MPU_xEventGroupWaitBits
 2053              		.thumb
 2054              		.thumb_func
 2055              		.type	MPU_xEventGroupWaitBits, %function
ARM GAS  C:\Users\Reza\AppData\Local\Temp\cckOPwM0.s 			page 57


 2056              	MPU_xEventGroupWaitBits:
 2057              	.LFB116:
1137:Source\bsw\FreeRTOS\src/mpu_wrappers.c **** #endif
1138:Source\bsw\FreeRTOS\src/mpu_wrappers.c **** /*-----------------------------------------------------------*/
1139:Source\bsw\FreeRTOS\src/mpu_wrappers.c **** 
1140:Source\bsw\FreeRTOS\src/mpu_wrappers.c **** #if( configSUPPORT_STATIC_ALLOCATION == 1 )
1141:Source\bsw\FreeRTOS\src/mpu_wrappers.c **** 	EventGroupHandle_t MPU_xEventGroupCreateStatic( StaticEventGroup_t *pxEventGroupBuffer ) /* FREERT
1142:Source\bsw\FreeRTOS\src/mpu_wrappers.c **** 	{
1143:Source\bsw\FreeRTOS\src/mpu_wrappers.c **** 	EventGroupHandle_t xReturn;
1144:Source\bsw\FreeRTOS\src/mpu_wrappers.c **** 	BaseType_t xRunningPrivileged = xPortRaisePrivilege();
1145:Source\bsw\FreeRTOS\src/mpu_wrappers.c **** 
1146:Source\bsw\FreeRTOS\src/mpu_wrappers.c **** 		xReturn = xEventGroupCreateStatic( pxEventGroupBuffer );
1147:Source\bsw\FreeRTOS\src/mpu_wrappers.c **** 		vPortResetPrivilege( xRunningPrivileged );
1148:Source\bsw\FreeRTOS\src/mpu_wrappers.c **** 
1149:Source\bsw\FreeRTOS\src/mpu_wrappers.c **** 		return xReturn;
1150:Source\bsw\FreeRTOS\src/mpu_wrappers.c **** 	}
1151:Source\bsw\FreeRTOS\src/mpu_wrappers.c **** #endif
1152:Source\bsw\FreeRTOS\src/mpu_wrappers.c **** /*-----------------------------------------------------------*/
1153:Source\bsw\FreeRTOS\src/mpu_wrappers.c **** 
1154:Source\bsw\FreeRTOS\src/mpu_wrappers.c **** EventBits_t MPU_xEventGroupWaitBits( EventGroupHandle_t xEventGroup, const EventBits_t uxBitsToWait
1155:Source\bsw\FreeRTOS\src/mpu_wrappers.c **** {
 2058              		.loc 1 1155 0
 2059              		.cfi_startproc
 2060              		@ args = 4, pretend = 0, frame = 0
 2061              		@ frame_needed = 0, uses_anonymous_args = 0
 2062              	.LVL331:
 2063 0000 2DE9F041 		push	{r4, r5, r6, r7, r8, lr}
 2064              		.cfi_def_cfa_offset 24
 2065              		.cfi_offset 4, -24
 2066              		.cfi_offset 5, -20
 2067              		.cfi_offset 6, -16
 2068              		.cfi_offset 7, -12
 2069              		.cfi_offset 8, -8
 2070              		.cfi_offset 14, -4
 2071 0004 82B0     		sub	sp, sp, #8
 2072              		.cfi_def_cfa_offset 32
 2073 0006 0446     		mov	r4, r0
 2074 0008 0E46     		mov	r6, r1
 2075 000a 1746     		mov	r7, r2
 2076 000c 9846     		mov	r8, r3
1156:Source\bsw\FreeRTOS\src/mpu_wrappers.c **** EventBits_t xReturn;
1157:Source\bsw\FreeRTOS\src/mpu_wrappers.c **** BaseType_t xRunningPrivileged = xPortRaisePrivilege();
 2077              		.loc 1 1157 0
 2078 000e FFF7FEFF 		bl	xPortRaisePrivilege
 2079              	.LVL332:
 2080 0012 0546     		mov	r5, r0
 2081              	.LVL333:
1158:Source\bsw\FreeRTOS\src/mpu_wrappers.c **** 
1159:Source\bsw\FreeRTOS\src/mpu_wrappers.c **** 	xReturn = xEventGroupWaitBits( xEventGroup, uxBitsToWaitFor, xClearOnExit, xWaitForAllBits, xTicks
 2082              		.loc 1 1159 0
 2083 0014 089B     		ldr	r3, [sp, #32]
 2084 0016 0093     		str	r3, [sp]
 2085 0018 4346     		mov	r3, r8
 2086 001a 3A46     		mov	r2, r7
 2087 001c 3146     		mov	r1, r6
 2088 001e 2046     		mov	r0, r4
 2089              	.LVL334:
ARM GAS  C:\Users\Reza\AppData\Local\Temp\cckOPwM0.s 			page 58


 2090 0020 FFF7FEFF 		bl	xEventGroupWaitBits
 2091              	.LVL335:
 2092 0024 0446     		mov	r4, r0
 2093              	.LVL336:
1160:Source\bsw\FreeRTOS\src/mpu_wrappers.c **** 	vPortResetPrivilege( xRunningPrivileged );
 2094              		.loc 1 1160 0
 2095 0026 2846     		mov	r0, r5
 2096              	.LVL337:
 2097 0028 FFF7FEFF 		bl	vPortResetPrivilege
 2098              	.LVL338:
1161:Source\bsw\FreeRTOS\src/mpu_wrappers.c **** 
1162:Source\bsw\FreeRTOS\src/mpu_wrappers.c **** 	return xReturn;
1163:Source\bsw\FreeRTOS\src/mpu_wrappers.c **** }
 2099              		.loc 1 1163 0
 2100 002c 2046     		mov	r0, r4
 2101 002e 02B0     		add	sp, sp, #8
 2102              		.cfi_def_cfa_offset 24
 2103              		@ sp needed
 2104 0030 BDE8F081 		pop	{r4, r5, r6, r7, r8, pc}
 2105              		.cfi_endproc
 2106              	.LFE116:
 2107              		.size	MPU_xEventGroupWaitBits, .-MPU_xEventGroupWaitBits
 2108              		.section	.text.MPU_xEventGroupClearBits,"ax",%progbits
 2109              		.align	2
 2110              		.global	MPU_xEventGroupClearBits
 2111              		.thumb
 2112              		.thumb_func
 2113              		.type	MPU_xEventGroupClearBits, %function
 2114              	MPU_xEventGroupClearBits:
 2115              	.LFB117:
1164:Source\bsw\FreeRTOS\src/mpu_wrappers.c **** /*-----------------------------------------------------------*/
1165:Source\bsw\FreeRTOS\src/mpu_wrappers.c **** 
1166:Source\bsw\FreeRTOS\src/mpu_wrappers.c **** EventBits_t MPU_xEventGroupClearBits( EventGroupHandle_t xEventGroup, const EventBits_t uxBitsToCle
1167:Source\bsw\FreeRTOS\src/mpu_wrappers.c **** {
 2116              		.loc 1 1167 0
 2117              		.cfi_startproc
 2118              		@ args = 0, pretend = 0, frame = 0
 2119              		@ frame_needed = 0, uses_anonymous_args = 0
 2120              	.LVL339:
 2121 0000 70B5     		push	{r4, r5, r6, lr}
 2122              		.cfi_def_cfa_offset 16
 2123              		.cfi_offset 4, -16
 2124              		.cfi_offset 5, -12
 2125              		.cfi_offset 6, -8
 2126              		.cfi_offset 14, -4
 2127 0002 0446     		mov	r4, r0
 2128 0004 0E46     		mov	r6, r1
1168:Source\bsw\FreeRTOS\src/mpu_wrappers.c **** EventBits_t xReturn;
1169:Source\bsw\FreeRTOS\src/mpu_wrappers.c **** BaseType_t xRunningPrivileged = xPortRaisePrivilege();
 2129              		.loc 1 1169 0
 2130 0006 FFF7FEFF 		bl	xPortRaisePrivilege
 2131              	.LVL340:
 2132 000a 0546     		mov	r5, r0
 2133              	.LVL341:
1170:Source\bsw\FreeRTOS\src/mpu_wrappers.c **** 
1171:Source\bsw\FreeRTOS\src/mpu_wrappers.c **** 	xReturn = xEventGroupClearBits( xEventGroup, uxBitsToClear );
 2134              		.loc 1 1171 0
ARM GAS  C:\Users\Reza\AppData\Local\Temp\cckOPwM0.s 			page 59


 2135 000c 3146     		mov	r1, r6
 2136 000e 2046     		mov	r0, r4
 2137              	.LVL342:
 2138 0010 FFF7FEFF 		bl	xEventGroupClearBits
 2139              	.LVL343:
 2140 0014 0446     		mov	r4, r0
 2141              	.LVL344:
1172:Source\bsw\FreeRTOS\src/mpu_wrappers.c **** 	vPortResetPrivilege( xRunningPrivileged );
 2142              		.loc 1 1172 0
 2143 0016 2846     		mov	r0, r5
 2144              	.LVL345:
 2145 0018 FFF7FEFF 		bl	vPortResetPrivilege
 2146              	.LVL346:
1173:Source\bsw\FreeRTOS\src/mpu_wrappers.c **** 
1174:Source\bsw\FreeRTOS\src/mpu_wrappers.c **** 	return xReturn;
1175:Source\bsw\FreeRTOS\src/mpu_wrappers.c **** }
 2147              		.loc 1 1175 0
 2148 001c 2046     		mov	r0, r4
 2149 001e 70BD     		pop	{r4, r5, r6, pc}
 2150              		.cfi_endproc
 2151              	.LFE117:
 2152              		.size	MPU_xEventGroupClearBits, .-MPU_xEventGroupClearBits
 2153              		.section	.text.MPU_xEventGroupSetBits,"ax",%progbits
 2154              		.align	2
 2155              		.global	MPU_xEventGroupSetBits
 2156              		.thumb
 2157              		.thumb_func
 2158              		.type	MPU_xEventGroupSetBits, %function
 2159              	MPU_xEventGroupSetBits:
 2160              	.LFB118:
1176:Source\bsw\FreeRTOS\src/mpu_wrappers.c **** /*-----------------------------------------------------------*/
1177:Source\bsw\FreeRTOS\src/mpu_wrappers.c **** 
1178:Source\bsw\FreeRTOS\src/mpu_wrappers.c **** EventBits_t MPU_xEventGroupSetBits( EventGroupHandle_t xEventGroup, const EventBits_t uxBitsToSet )
1179:Source\bsw\FreeRTOS\src/mpu_wrappers.c **** {
 2161              		.loc 1 1179 0
 2162              		.cfi_startproc
 2163              		@ args = 0, pretend = 0, frame = 0
 2164              		@ frame_needed = 0, uses_anonymous_args = 0
 2165              	.LVL347:
 2166 0000 70B5     		push	{r4, r5, r6, lr}
 2167              		.cfi_def_cfa_offset 16
 2168              		.cfi_offset 4, -16
 2169              		.cfi_offset 5, -12
 2170              		.cfi_offset 6, -8
 2171              		.cfi_offset 14, -4
 2172 0002 0446     		mov	r4, r0
 2173 0004 0E46     		mov	r6, r1
1180:Source\bsw\FreeRTOS\src/mpu_wrappers.c **** EventBits_t xReturn;
1181:Source\bsw\FreeRTOS\src/mpu_wrappers.c **** BaseType_t xRunningPrivileged = xPortRaisePrivilege();
 2174              		.loc 1 1181 0
 2175 0006 FFF7FEFF 		bl	xPortRaisePrivilege
 2176              	.LVL348:
 2177 000a 0546     		mov	r5, r0
 2178              	.LVL349:
1182:Source\bsw\FreeRTOS\src/mpu_wrappers.c **** 
1183:Source\bsw\FreeRTOS\src/mpu_wrappers.c **** 	xReturn = xEventGroupSetBits( xEventGroup, uxBitsToSet );
 2179              		.loc 1 1183 0
ARM GAS  C:\Users\Reza\AppData\Local\Temp\cckOPwM0.s 			page 60


 2180 000c 3146     		mov	r1, r6
 2181 000e 2046     		mov	r0, r4
 2182              	.LVL350:
 2183 0010 FFF7FEFF 		bl	xEventGroupSetBits
 2184              	.LVL351:
 2185 0014 0446     		mov	r4, r0
 2186              	.LVL352:
1184:Source\bsw\FreeRTOS\src/mpu_wrappers.c **** 	vPortResetPrivilege( xRunningPrivileged );
 2187              		.loc 1 1184 0
 2188 0016 2846     		mov	r0, r5
 2189              	.LVL353:
 2190 0018 FFF7FEFF 		bl	vPortResetPrivilege
 2191              	.LVL354:
1185:Source\bsw\FreeRTOS\src/mpu_wrappers.c **** 
1186:Source\bsw\FreeRTOS\src/mpu_wrappers.c **** 	return xReturn;
1187:Source\bsw\FreeRTOS\src/mpu_wrappers.c **** }
 2192              		.loc 1 1187 0
 2193 001c 2046     		mov	r0, r4
 2194 001e 70BD     		pop	{r4, r5, r6, pc}
 2195              		.cfi_endproc
 2196              	.LFE118:
 2197              		.size	MPU_xEventGroupSetBits, .-MPU_xEventGroupSetBits
 2198              		.section	.text.MPU_xEventGroupSync,"ax",%progbits
 2199              		.align	2
 2200              		.global	MPU_xEventGroupSync
 2201              		.thumb
 2202              		.thumb_func
 2203              		.type	MPU_xEventGroupSync, %function
 2204              	MPU_xEventGroupSync:
 2205              	.LFB119:
1188:Source\bsw\FreeRTOS\src/mpu_wrappers.c **** /*-----------------------------------------------------------*/
1189:Source\bsw\FreeRTOS\src/mpu_wrappers.c **** 
1190:Source\bsw\FreeRTOS\src/mpu_wrappers.c **** EventBits_t MPU_xEventGroupSync( EventGroupHandle_t xEventGroup, const EventBits_t uxBitsToSet, con
1191:Source\bsw\FreeRTOS\src/mpu_wrappers.c **** {
 2206              		.loc 1 1191 0
 2207              		.cfi_startproc
 2208              		@ args = 0, pretend = 0, frame = 0
 2209              		@ frame_needed = 0, uses_anonymous_args = 0
 2210              	.LVL355:
 2211 0000 2DE9F041 		push	{r4, r5, r6, r7, r8, lr}
 2212              		.cfi_def_cfa_offset 24
 2213              		.cfi_offset 4, -24
 2214              		.cfi_offset 5, -20
 2215              		.cfi_offset 6, -16
 2216              		.cfi_offset 7, -12
 2217              		.cfi_offset 8, -8
 2218              		.cfi_offset 14, -4
 2219 0004 0446     		mov	r4, r0
 2220 0006 0E46     		mov	r6, r1
 2221 0008 1746     		mov	r7, r2
 2222 000a 9846     		mov	r8, r3
1192:Source\bsw\FreeRTOS\src/mpu_wrappers.c **** EventBits_t xReturn;
1193:Source\bsw\FreeRTOS\src/mpu_wrappers.c **** BaseType_t xRunningPrivileged = xPortRaisePrivilege();
 2223              		.loc 1 1193 0
 2224 000c FFF7FEFF 		bl	xPortRaisePrivilege
 2225              	.LVL356:
 2226 0010 0546     		mov	r5, r0
ARM GAS  C:\Users\Reza\AppData\Local\Temp\cckOPwM0.s 			page 61


 2227              	.LVL357:
1194:Source\bsw\FreeRTOS\src/mpu_wrappers.c **** 
1195:Source\bsw\FreeRTOS\src/mpu_wrappers.c **** 	xReturn = xEventGroupSync( xEventGroup, uxBitsToSet, uxBitsToWaitFor, xTicksToWait );
 2228              		.loc 1 1195 0
 2229 0012 4346     		mov	r3, r8
 2230 0014 3A46     		mov	r2, r7
 2231 0016 3146     		mov	r1, r6
 2232 0018 2046     		mov	r0, r4
 2233              	.LVL358:
 2234 001a FFF7FEFF 		bl	xEventGroupSync
 2235              	.LVL359:
 2236 001e 0446     		mov	r4, r0
 2237              	.LVL360:
1196:Source\bsw\FreeRTOS\src/mpu_wrappers.c **** 	vPortResetPrivilege( xRunningPrivileged );
 2238              		.loc 1 1196 0
 2239 0020 2846     		mov	r0, r5
 2240              	.LVL361:
 2241 0022 FFF7FEFF 		bl	vPortResetPrivilege
 2242              	.LVL362:
1197:Source\bsw\FreeRTOS\src/mpu_wrappers.c **** 
1198:Source\bsw\FreeRTOS\src/mpu_wrappers.c **** 	return xReturn;
1199:Source\bsw\FreeRTOS\src/mpu_wrappers.c **** }
 2243              		.loc 1 1199 0
 2244 0026 2046     		mov	r0, r4
 2245 0028 BDE8F081 		pop	{r4, r5, r6, r7, r8, pc}
 2246              		.cfi_endproc
 2247              	.LFE119:
 2248              		.size	MPU_xEventGroupSync, .-MPU_xEventGroupSync
 2249              		.section	.text.MPU_vEventGroupDelete,"ax",%progbits
 2250              		.align	2
 2251              		.global	MPU_vEventGroupDelete
 2252              		.thumb
 2253              		.thumb_func
 2254              		.type	MPU_vEventGroupDelete, %function
 2255              	MPU_vEventGroupDelete:
 2256              	.LFB120:
1200:Source\bsw\FreeRTOS\src/mpu_wrappers.c **** /*-----------------------------------------------------------*/
1201:Source\bsw\FreeRTOS\src/mpu_wrappers.c **** 
1202:Source\bsw\FreeRTOS\src/mpu_wrappers.c **** void MPU_vEventGroupDelete( EventGroupHandle_t xEventGroup ) /* FREERTOS_SYSTEM_CALL */
1203:Source\bsw\FreeRTOS\src/mpu_wrappers.c **** {
 2257              		.loc 1 1203 0
 2258              		.cfi_startproc
 2259              		@ args = 0, pretend = 0, frame = 0
 2260              		@ frame_needed = 0, uses_anonymous_args = 0
 2261              	.LVL363:
 2262 0000 38B5     		push	{r3, r4, r5, lr}
 2263              		.cfi_def_cfa_offset 16
 2264              		.cfi_offset 3, -16
 2265              		.cfi_offset 4, -12
 2266              		.cfi_offset 5, -8
 2267              		.cfi_offset 14, -4
 2268 0002 0546     		mov	r5, r0
1204:Source\bsw\FreeRTOS\src/mpu_wrappers.c **** BaseType_t xRunningPrivileged = xPortRaisePrivilege();
 2269              		.loc 1 1204 0
 2270 0004 FFF7FEFF 		bl	xPortRaisePrivilege
 2271              	.LVL364:
 2272 0008 0446     		mov	r4, r0
ARM GAS  C:\Users\Reza\AppData\Local\Temp\cckOPwM0.s 			page 62


 2273              	.LVL365:
1205:Source\bsw\FreeRTOS\src/mpu_wrappers.c **** 
1206:Source\bsw\FreeRTOS\src/mpu_wrappers.c **** 	vEventGroupDelete( xEventGroup );
 2274              		.loc 1 1206 0
 2275 000a 2846     		mov	r0, r5
 2276              	.LVL366:
 2277 000c FFF7FEFF 		bl	vEventGroupDelete
 2278              	.LVL367:
1207:Source\bsw\FreeRTOS\src/mpu_wrappers.c **** 	vPortResetPrivilege( xRunningPrivileged );
 2279              		.loc 1 1207 0
 2280 0010 2046     		mov	r0, r4
 2281 0012 FFF7FEFF 		bl	vPortResetPrivilege
 2282              	.LVL368:
 2283 0016 38BD     		pop	{r3, r4, r5, pc}
 2284              		.cfi_endproc
 2285              	.LFE120:
 2286              		.size	MPU_vEventGroupDelete, .-MPU_vEventGroupDelete
 2287              		.section	.text.MPU_xStreamBufferSend,"ax",%progbits
 2288              		.align	2
 2289              		.global	MPU_xStreamBufferSend
 2290              		.thumb
 2291              		.thumb_func
 2292              		.type	MPU_xStreamBufferSend, %function
 2293              	MPU_xStreamBufferSend:
 2294              	.LFB121:
1208:Source\bsw\FreeRTOS\src/mpu_wrappers.c **** }
1209:Source\bsw\FreeRTOS\src/mpu_wrappers.c **** /*-----------------------------------------------------------*/
1210:Source\bsw\FreeRTOS\src/mpu_wrappers.c **** 
1211:Source\bsw\FreeRTOS\src/mpu_wrappers.c **** size_t MPU_xStreamBufferSend( StreamBufferHandle_t xStreamBuffer, const void *pvTxData, size_t xDat
1212:Source\bsw\FreeRTOS\src/mpu_wrappers.c **** {
 2295              		.loc 1 1212 0
 2296              		.cfi_startproc
 2297              		@ args = 0, pretend = 0, frame = 0
 2298              		@ frame_needed = 0, uses_anonymous_args = 0
 2299              	.LVL369:
 2300 0000 2DE9F041 		push	{r4, r5, r6, r7, r8, lr}
 2301              		.cfi_def_cfa_offset 24
 2302              		.cfi_offset 4, -24
 2303              		.cfi_offset 5, -20
 2304              		.cfi_offset 6, -16
 2305              		.cfi_offset 7, -12
 2306              		.cfi_offset 8, -8
 2307              		.cfi_offset 14, -4
 2308 0004 0446     		mov	r4, r0
 2309 0006 0E46     		mov	r6, r1
 2310 0008 1746     		mov	r7, r2
 2311 000a 9846     		mov	r8, r3
1213:Source\bsw\FreeRTOS\src/mpu_wrappers.c **** size_t xReturn;
1214:Source\bsw\FreeRTOS\src/mpu_wrappers.c **** BaseType_t xRunningPrivileged = xPortRaisePrivilege();
 2312              		.loc 1 1214 0
 2313 000c FFF7FEFF 		bl	xPortRaisePrivilege
 2314              	.LVL370:
 2315 0010 0546     		mov	r5, r0
 2316              	.LVL371:
1215:Source\bsw\FreeRTOS\src/mpu_wrappers.c **** 
1216:Source\bsw\FreeRTOS\src/mpu_wrappers.c **** 	xReturn = xStreamBufferSend( xStreamBuffer, pvTxData, xDataLengthBytes, xTicksToWait );
 2317              		.loc 1 1216 0
ARM GAS  C:\Users\Reza\AppData\Local\Temp\cckOPwM0.s 			page 63


 2318 0012 4346     		mov	r3, r8
 2319 0014 3A46     		mov	r2, r7
 2320 0016 3146     		mov	r1, r6
 2321 0018 2046     		mov	r0, r4
 2322              	.LVL372:
 2323 001a FFF7FEFF 		bl	xStreamBufferSend
 2324              	.LVL373:
 2325 001e 0446     		mov	r4, r0
 2326              	.LVL374:
1217:Source\bsw\FreeRTOS\src/mpu_wrappers.c **** 	vPortResetPrivilege( xRunningPrivileged );
 2327              		.loc 1 1217 0
 2328 0020 2846     		mov	r0, r5
 2329              	.LVL375:
 2330 0022 FFF7FEFF 		bl	vPortResetPrivilege
 2331              	.LVL376:
1218:Source\bsw\FreeRTOS\src/mpu_wrappers.c **** 
1219:Source\bsw\FreeRTOS\src/mpu_wrappers.c **** 	return xReturn;
1220:Source\bsw\FreeRTOS\src/mpu_wrappers.c **** }
 2332              		.loc 1 1220 0
 2333 0026 2046     		mov	r0, r4
 2334 0028 BDE8F081 		pop	{r4, r5, r6, r7, r8, pc}
 2335              		.cfi_endproc
 2336              	.LFE121:
 2337              		.size	MPU_xStreamBufferSend, .-MPU_xStreamBufferSend
 2338              		.section	.text.MPU_xStreamBufferNextMessageLengthBytes,"ax",%progbits
 2339              		.align	2
 2340              		.global	MPU_xStreamBufferNextMessageLengthBytes
 2341              		.thumb
 2342              		.thumb_func
 2343              		.type	MPU_xStreamBufferNextMessageLengthBytes, %function
 2344              	MPU_xStreamBufferNextMessageLengthBytes:
 2345              	.LFB122:
1221:Source\bsw\FreeRTOS\src/mpu_wrappers.c **** /*-----------------------------------------------------------*/
1222:Source\bsw\FreeRTOS\src/mpu_wrappers.c **** 
1223:Source\bsw\FreeRTOS\src/mpu_wrappers.c **** size_t MPU_xStreamBufferNextMessageLengthBytes( StreamBufferHandle_t xStreamBuffer ) /* FREERTOS_SY
1224:Source\bsw\FreeRTOS\src/mpu_wrappers.c **** {
 2346              		.loc 1 1224 0
 2347              		.cfi_startproc
 2348              		@ args = 0, pretend = 0, frame = 0
 2349              		@ frame_needed = 0, uses_anonymous_args = 0
 2350              	.LVL377:
 2351 0000 38B5     		push	{r3, r4, r5, lr}
 2352              		.cfi_def_cfa_offset 16
 2353              		.cfi_offset 3, -16
 2354              		.cfi_offset 4, -12
 2355              		.cfi_offset 5, -8
 2356              		.cfi_offset 14, -4
 2357 0002 0446     		mov	r4, r0
1225:Source\bsw\FreeRTOS\src/mpu_wrappers.c **** size_t xReturn;
1226:Source\bsw\FreeRTOS\src/mpu_wrappers.c **** BaseType_t xRunningPrivileged = xPortRaisePrivilege();
 2358              		.loc 1 1226 0
 2359 0004 FFF7FEFF 		bl	xPortRaisePrivilege
 2360              	.LVL378:
 2361 0008 0546     		mov	r5, r0
 2362              	.LVL379:
1227:Source\bsw\FreeRTOS\src/mpu_wrappers.c **** 
1228:Source\bsw\FreeRTOS\src/mpu_wrappers.c **** 	xReturn = xStreamBufferNextMessageLengthBytes( xStreamBuffer );
ARM GAS  C:\Users\Reza\AppData\Local\Temp\cckOPwM0.s 			page 64


 2363              		.loc 1 1228 0
 2364 000a 2046     		mov	r0, r4
 2365              	.LVL380:
 2366 000c FFF7FEFF 		bl	xStreamBufferNextMessageLengthBytes
 2367              	.LVL381:
 2368 0010 0446     		mov	r4, r0
 2369              	.LVL382:
1229:Source\bsw\FreeRTOS\src/mpu_wrappers.c **** 	vPortResetPrivilege( xRunningPrivileged );
 2370              		.loc 1 1229 0
 2371 0012 2846     		mov	r0, r5
 2372              	.LVL383:
 2373 0014 FFF7FEFF 		bl	vPortResetPrivilege
 2374              	.LVL384:
1230:Source\bsw\FreeRTOS\src/mpu_wrappers.c **** 
1231:Source\bsw\FreeRTOS\src/mpu_wrappers.c **** 	return xReturn;
1232:Source\bsw\FreeRTOS\src/mpu_wrappers.c **** }
 2375              		.loc 1 1232 0
 2376 0018 2046     		mov	r0, r4
 2377 001a 38BD     		pop	{r3, r4, r5, pc}
 2378              		.cfi_endproc
 2379              	.LFE122:
 2380              		.size	MPU_xStreamBufferNextMessageLengthBytes, .-MPU_xStreamBufferNextMessageLengthBytes
 2381              		.section	.text.MPU_xStreamBufferReceive,"ax",%progbits
 2382              		.align	2
 2383              		.global	MPU_xStreamBufferReceive
 2384              		.thumb
 2385              		.thumb_func
 2386              		.type	MPU_xStreamBufferReceive, %function
 2387              	MPU_xStreamBufferReceive:
 2388              	.LFB123:
1233:Source\bsw\FreeRTOS\src/mpu_wrappers.c **** /*-----------------------------------------------------------*/
1234:Source\bsw\FreeRTOS\src/mpu_wrappers.c **** 
1235:Source\bsw\FreeRTOS\src/mpu_wrappers.c **** size_t MPU_xStreamBufferReceive( StreamBufferHandle_t xStreamBuffer, void *pvRxData, size_t xBuffer
1236:Source\bsw\FreeRTOS\src/mpu_wrappers.c **** {
 2389              		.loc 1 1236 0
 2390              		.cfi_startproc
 2391              		@ args = 0, pretend = 0, frame = 0
 2392              		@ frame_needed = 0, uses_anonymous_args = 0
 2393              	.LVL385:
 2394 0000 2DE9F041 		push	{r4, r5, r6, r7, r8, lr}
 2395              		.cfi_def_cfa_offset 24
 2396              		.cfi_offset 4, -24
 2397              		.cfi_offset 5, -20
 2398              		.cfi_offset 6, -16
 2399              		.cfi_offset 7, -12
 2400              		.cfi_offset 8, -8
 2401              		.cfi_offset 14, -4
 2402 0004 0446     		mov	r4, r0
 2403 0006 0E46     		mov	r6, r1
 2404 0008 1746     		mov	r7, r2
 2405 000a 9846     		mov	r8, r3
1237:Source\bsw\FreeRTOS\src/mpu_wrappers.c **** size_t xReturn;
1238:Source\bsw\FreeRTOS\src/mpu_wrappers.c **** BaseType_t xRunningPrivileged = xPortRaisePrivilege();
 2406              		.loc 1 1238 0
 2407 000c FFF7FEFF 		bl	xPortRaisePrivilege
 2408              	.LVL386:
 2409 0010 0546     		mov	r5, r0
ARM GAS  C:\Users\Reza\AppData\Local\Temp\cckOPwM0.s 			page 65


 2410              	.LVL387:
1239:Source\bsw\FreeRTOS\src/mpu_wrappers.c **** 
1240:Source\bsw\FreeRTOS\src/mpu_wrappers.c **** 	xReturn = xStreamBufferReceive( xStreamBuffer, pvRxData, xBufferLengthBytes, xTicksToWait );
 2411              		.loc 1 1240 0
 2412 0012 4346     		mov	r3, r8
 2413 0014 3A46     		mov	r2, r7
 2414 0016 3146     		mov	r1, r6
 2415 0018 2046     		mov	r0, r4
 2416              	.LVL388:
 2417 001a FFF7FEFF 		bl	xStreamBufferReceive
 2418              	.LVL389:
 2419 001e 0446     		mov	r4, r0
 2420              	.LVL390:
1241:Source\bsw\FreeRTOS\src/mpu_wrappers.c **** 	vPortResetPrivilege( xRunningPrivileged );
 2421              		.loc 1 1241 0
 2422 0020 2846     		mov	r0, r5
 2423              	.LVL391:
 2424 0022 FFF7FEFF 		bl	vPortResetPrivilege
 2425              	.LVL392:
1242:Source\bsw\FreeRTOS\src/mpu_wrappers.c **** 
1243:Source\bsw\FreeRTOS\src/mpu_wrappers.c **** 	return xReturn;
1244:Source\bsw\FreeRTOS\src/mpu_wrappers.c **** }
 2426              		.loc 1 1244 0
 2427 0026 2046     		mov	r0, r4
 2428 0028 BDE8F081 		pop	{r4, r5, r6, r7, r8, pc}
 2429              		.cfi_endproc
 2430              	.LFE123:
 2431              		.size	MPU_xStreamBufferReceive, .-MPU_xStreamBufferReceive
 2432              		.section	.text.MPU_vStreamBufferDelete,"ax",%progbits
 2433              		.align	2
 2434              		.global	MPU_vStreamBufferDelete
 2435              		.thumb
 2436              		.thumb_func
 2437              		.type	MPU_vStreamBufferDelete, %function
 2438              	MPU_vStreamBufferDelete:
 2439              	.LFB124:
1245:Source\bsw\FreeRTOS\src/mpu_wrappers.c **** /*-----------------------------------------------------------*/
1246:Source\bsw\FreeRTOS\src/mpu_wrappers.c **** 
1247:Source\bsw\FreeRTOS\src/mpu_wrappers.c **** void MPU_vStreamBufferDelete( StreamBufferHandle_t xStreamBuffer ) /* FREERTOS_SYSTEM_CALL */
1248:Source\bsw\FreeRTOS\src/mpu_wrappers.c **** {
 2440              		.loc 1 1248 0
 2441              		.cfi_startproc
 2442              		@ args = 0, pretend = 0, frame = 0
 2443              		@ frame_needed = 0, uses_anonymous_args = 0
 2444              	.LVL393:
 2445 0000 38B5     		push	{r3, r4, r5, lr}
 2446              		.cfi_def_cfa_offset 16
 2447              		.cfi_offset 3, -16
 2448              		.cfi_offset 4, -12
 2449              		.cfi_offset 5, -8
 2450              		.cfi_offset 14, -4
 2451 0002 0546     		mov	r5, r0
1249:Source\bsw\FreeRTOS\src/mpu_wrappers.c **** BaseType_t xRunningPrivileged = xPortRaisePrivilege();
 2452              		.loc 1 1249 0
 2453 0004 FFF7FEFF 		bl	xPortRaisePrivilege
 2454              	.LVL394:
 2455 0008 0446     		mov	r4, r0
ARM GAS  C:\Users\Reza\AppData\Local\Temp\cckOPwM0.s 			page 66


 2456              	.LVL395:
1250:Source\bsw\FreeRTOS\src/mpu_wrappers.c **** 
1251:Source\bsw\FreeRTOS\src/mpu_wrappers.c **** 	vStreamBufferDelete( xStreamBuffer );
 2457              		.loc 1 1251 0
 2458 000a 2846     		mov	r0, r5
 2459              	.LVL396:
 2460 000c FFF7FEFF 		bl	vStreamBufferDelete
 2461              	.LVL397:
1252:Source\bsw\FreeRTOS\src/mpu_wrappers.c **** 	vPortResetPrivilege( xRunningPrivileged );
 2462              		.loc 1 1252 0
 2463 0010 2046     		mov	r0, r4
 2464 0012 FFF7FEFF 		bl	vPortResetPrivilege
 2465              	.LVL398:
 2466 0016 38BD     		pop	{r3, r4, r5, pc}
 2467              		.cfi_endproc
 2468              	.LFE124:
 2469              		.size	MPU_vStreamBufferDelete, .-MPU_vStreamBufferDelete
 2470              		.section	.text.MPU_xStreamBufferIsFull,"ax",%progbits
 2471              		.align	2
 2472              		.global	MPU_xStreamBufferIsFull
 2473              		.thumb
 2474              		.thumb_func
 2475              		.type	MPU_xStreamBufferIsFull, %function
 2476              	MPU_xStreamBufferIsFull:
 2477              	.LFB125:
1253:Source\bsw\FreeRTOS\src/mpu_wrappers.c **** }
1254:Source\bsw\FreeRTOS\src/mpu_wrappers.c **** /*-----------------------------------------------------------*/
1255:Source\bsw\FreeRTOS\src/mpu_wrappers.c **** 
1256:Source\bsw\FreeRTOS\src/mpu_wrappers.c **** BaseType_t MPU_xStreamBufferIsFull( StreamBufferHandle_t xStreamBuffer ) /* FREERTOS_SYSTEM_CALL */
1257:Source\bsw\FreeRTOS\src/mpu_wrappers.c **** {
 2478              		.loc 1 1257 0
 2479              		.cfi_startproc
 2480              		@ args = 0, pretend = 0, frame = 0
 2481              		@ frame_needed = 0, uses_anonymous_args = 0
 2482              	.LVL399:
 2483 0000 38B5     		push	{r3, r4, r5, lr}
 2484              		.cfi_def_cfa_offset 16
 2485              		.cfi_offset 3, -16
 2486              		.cfi_offset 4, -12
 2487              		.cfi_offset 5, -8
 2488              		.cfi_offset 14, -4
 2489 0002 0446     		mov	r4, r0
1258:Source\bsw\FreeRTOS\src/mpu_wrappers.c **** BaseType_t xReturn;
1259:Source\bsw\FreeRTOS\src/mpu_wrappers.c **** BaseType_t xRunningPrivileged = xPortRaisePrivilege();
 2490              		.loc 1 1259 0
 2491 0004 FFF7FEFF 		bl	xPortRaisePrivilege
 2492              	.LVL400:
 2493 0008 0546     		mov	r5, r0
 2494              	.LVL401:
1260:Source\bsw\FreeRTOS\src/mpu_wrappers.c **** 
1261:Source\bsw\FreeRTOS\src/mpu_wrappers.c **** 	xReturn = xStreamBufferIsFull( xStreamBuffer );
 2495              		.loc 1 1261 0
 2496 000a 2046     		mov	r0, r4
 2497              	.LVL402:
 2498 000c FFF7FEFF 		bl	xStreamBufferIsFull
 2499              	.LVL403:
 2500 0010 0446     		mov	r4, r0
ARM GAS  C:\Users\Reza\AppData\Local\Temp\cckOPwM0.s 			page 67


 2501              	.LVL404:
1262:Source\bsw\FreeRTOS\src/mpu_wrappers.c **** 	vPortResetPrivilege( xRunningPrivileged );
 2502              		.loc 1 1262 0
 2503 0012 2846     		mov	r0, r5
 2504              	.LVL405:
 2505 0014 FFF7FEFF 		bl	vPortResetPrivilege
 2506              	.LVL406:
1263:Source\bsw\FreeRTOS\src/mpu_wrappers.c **** 
1264:Source\bsw\FreeRTOS\src/mpu_wrappers.c **** 	return xReturn;
1265:Source\bsw\FreeRTOS\src/mpu_wrappers.c **** }
 2507              		.loc 1 1265 0
 2508 0018 2046     		mov	r0, r4
 2509 001a 38BD     		pop	{r3, r4, r5, pc}
 2510              		.cfi_endproc
 2511              	.LFE125:
 2512              		.size	MPU_xStreamBufferIsFull, .-MPU_xStreamBufferIsFull
 2513              		.section	.text.MPU_xStreamBufferIsEmpty,"ax",%progbits
 2514              		.align	2
 2515              		.global	MPU_xStreamBufferIsEmpty
 2516              		.thumb
 2517              		.thumb_func
 2518              		.type	MPU_xStreamBufferIsEmpty, %function
 2519              	MPU_xStreamBufferIsEmpty:
 2520              	.LFB126:
1266:Source\bsw\FreeRTOS\src/mpu_wrappers.c **** /*-----------------------------------------------------------*/
1267:Source\bsw\FreeRTOS\src/mpu_wrappers.c **** 
1268:Source\bsw\FreeRTOS\src/mpu_wrappers.c **** BaseType_t MPU_xStreamBufferIsEmpty( StreamBufferHandle_t xStreamBuffer ) /* FREERTOS_SYSTEM_CALL *
1269:Source\bsw\FreeRTOS\src/mpu_wrappers.c **** {
 2521              		.loc 1 1269 0
 2522              		.cfi_startproc
 2523              		@ args = 0, pretend = 0, frame = 0
 2524              		@ frame_needed = 0, uses_anonymous_args = 0
 2525              	.LVL407:
 2526 0000 38B5     		push	{r3, r4, r5, lr}
 2527              		.cfi_def_cfa_offset 16
 2528              		.cfi_offset 3, -16
 2529              		.cfi_offset 4, -12
 2530              		.cfi_offset 5, -8
 2531              		.cfi_offset 14, -4
 2532 0002 0446     		mov	r4, r0
1270:Source\bsw\FreeRTOS\src/mpu_wrappers.c **** BaseType_t xReturn;
1271:Source\bsw\FreeRTOS\src/mpu_wrappers.c **** BaseType_t xRunningPrivileged = xPortRaisePrivilege();
 2533              		.loc 1 1271 0
 2534 0004 FFF7FEFF 		bl	xPortRaisePrivilege
 2535              	.LVL408:
 2536 0008 0546     		mov	r5, r0
 2537              	.LVL409:
1272:Source\bsw\FreeRTOS\src/mpu_wrappers.c **** 
1273:Source\bsw\FreeRTOS\src/mpu_wrappers.c **** 	xReturn = xStreamBufferIsEmpty( xStreamBuffer );
 2538              		.loc 1 1273 0
 2539 000a 2046     		mov	r0, r4
 2540              	.LVL410:
 2541 000c FFF7FEFF 		bl	xStreamBufferIsEmpty
 2542              	.LVL411:
 2543 0010 0446     		mov	r4, r0
 2544              	.LVL412:
1274:Source\bsw\FreeRTOS\src/mpu_wrappers.c **** 	vPortResetPrivilege( xRunningPrivileged );
ARM GAS  C:\Users\Reza\AppData\Local\Temp\cckOPwM0.s 			page 68


 2545              		.loc 1 1274 0
 2546 0012 2846     		mov	r0, r5
 2547              	.LVL413:
 2548 0014 FFF7FEFF 		bl	vPortResetPrivilege
 2549              	.LVL414:
1275:Source\bsw\FreeRTOS\src/mpu_wrappers.c **** 
1276:Source\bsw\FreeRTOS\src/mpu_wrappers.c **** 	return xReturn;
1277:Source\bsw\FreeRTOS\src/mpu_wrappers.c **** }
 2550              		.loc 1 1277 0
 2551 0018 2046     		mov	r0, r4
 2552 001a 38BD     		pop	{r3, r4, r5, pc}
 2553              		.cfi_endproc
 2554              	.LFE126:
 2555              		.size	MPU_xStreamBufferIsEmpty, .-MPU_xStreamBufferIsEmpty
 2556              		.section	.text.MPU_xStreamBufferReset,"ax",%progbits
 2557              		.align	2
 2558              		.global	MPU_xStreamBufferReset
 2559              		.thumb
 2560              		.thumb_func
 2561              		.type	MPU_xStreamBufferReset, %function
 2562              	MPU_xStreamBufferReset:
 2563              	.LFB127:
1278:Source\bsw\FreeRTOS\src/mpu_wrappers.c **** /*-----------------------------------------------------------*/
1279:Source\bsw\FreeRTOS\src/mpu_wrappers.c **** 
1280:Source\bsw\FreeRTOS\src/mpu_wrappers.c **** BaseType_t MPU_xStreamBufferReset( StreamBufferHandle_t xStreamBuffer ) /* FREERTOS_SYSTEM_CALL */
1281:Source\bsw\FreeRTOS\src/mpu_wrappers.c **** {
 2564              		.loc 1 1281 0
 2565              		.cfi_startproc
 2566              		@ args = 0, pretend = 0, frame = 0
 2567              		@ frame_needed = 0, uses_anonymous_args = 0
 2568              	.LVL415:
 2569 0000 38B5     		push	{r3, r4, r5, lr}
 2570              		.cfi_def_cfa_offset 16
 2571              		.cfi_offset 3, -16
 2572              		.cfi_offset 4, -12
 2573              		.cfi_offset 5, -8
 2574              		.cfi_offset 14, -4
 2575 0002 0446     		mov	r4, r0
1282:Source\bsw\FreeRTOS\src/mpu_wrappers.c **** BaseType_t xReturn;
1283:Source\bsw\FreeRTOS\src/mpu_wrappers.c **** BaseType_t xRunningPrivileged = xPortRaisePrivilege();
 2576              		.loc 1 1283 0
 2577 0004 FFF7FEFF 		bl	xPortRaisePrivilege
 2578              	.LVL416:
 2579 0008 0546     		mov	r5, r0
 2580              	.LVL417:
1284:Source\bsw\FreeRTOS\src/mpu_wrappers.c **** 
1285:Source\bsw\FreeRTOS\src/mpu_wrappers.c **** 	xReturn = xStreamBufferReset( xStreamBuffer );
 2581              		.loc 1 1285 0
 2582 000a 2046     		mov	r0, r4
 2583              	.LVL418:
 2584 000c FFF7FEFF 		bl	xStreamBufferReset
 2585              	.LVL419:
 2586 0010 0446     		mov	r4, r0
 2587              	.LVL420:
1286:Source\bsw\FreeRTOS\src/mpu_wrappers.c **** 	vPortResetPrivilege( xRunningPrivileged );
 2588              		.loc 1 1286 0
 2589 0012 2846     		mov	r0, r5
ARM GAS  C:\Users\Reza\AppData\Local\Temp\cckOPwM0.s 			page 69


 2590              	.LVL421:
 2591 0014 FFF7FEFF 		bl	vPortResetPrivilege
 2592              	.LVL422:
1287:Source\bsw\FreeRTOS\src/mpu_wrappers.c **** 
1288:Source\bsw\FreeRTOS\src/mpu_wrappers.c **** 	return xReturn;
1289:Source\bsw\FreeRTOS\src/mpu_wrappers.c **** }
 2593              		.loc 1 1289 0
 2594 0018 2046     		mov	r0, r4
 2595 001a 38BD     		pop	{r3, r4, r5, pc}
 2596              		.cfi_endproc
 2597              	.LFE127:
 2598              		.size	MPU_xStreamBufferReset, .-MPU_xStreamBufferReset
 2599              		.section	.text.MPU_xStreamBufferSpacesAvailable,"ax",%progbits
 2600              		.align	2
 2601              		.global	MPU_xStreamBufferSpacesAvailable
 2602              		.thumb
 2603              		.thumb_func
 2604              		.type	MPU_xStreamBufferSpacesAvailable, %function
 2605              	MPU_xStreamBufferSpacesAvailable:
 2606              	.LFB128:
1290:Source\bsw\FreeRTOS\src/mpu_wrappers.c **** /*-----------------------------------------------------------*/
1291:Source\bsw\FreeRTOS\src/mpu_wrappers.c **** 
1292:Source\bsw\FreeRTOS\src/mpu_wrappers.c **** size_t MPU_xStreamBufferSpacesAvailable( StreamBufferHandle_t xStreamBuffer ) /* FREERTOS_SYSTEM_CA
1293:Source\bsw\FreeRTOS\src/mpu_wrappers.c **** {
 2607              		.loc 1 1293 0
 2608              		.cfi_startproc
 2609              		@ args = 0, pretend = 0, frame = 0
 2610              		@ frame_needed = 0, uses_anonymous_args = 0
 2611              	.LVL423:
 2612 0000 38B5     		push	{r3, r4, r5, lr}
 2613              		.cfi_def_cfa_offset 16
 2614              		.cfi_offset 3, -16
 2615              		.cfi_offset 4, -12
 2616              		.cfi_offset 5, -8
 2617              		.cfi_offset 14, -4
 2618 0002 0446     		mov	r4, r0
1294:Source\bsw\FreeRTOS\src/mpu_wrappers.c **** size_t xReturn;
1295:Source\bsw\FreeRTOS\src/mpu_wrappers.c **** BaseType_t xRunningPrivileged = xPortRaisePrivilege();
 2619              		.loc 1 1295 0
 2620 0004 FFF7FEFF 		bl	xPortRaisePrivilege
 2621              	.LVL424:
 2622 0008 0546     		mov	r5, r0
 2623              	.LVL425:
1296:Source\bsw\FreeRTOS\src/mpu_wrappers.c **** 
1297:Source\bsw\FreeRTOS\src/mpu_wrappers.c **** 	xReturn = xStreamBufferSpacesAvailable( xStreamBuffer );
 2624              		.loc 1 1297 0
 2625 000a 2046     		mov	r0, r4
 2626              	.LVL426:
 2627 000c FFF7FEFF 		bl	xStreamBufferSpacesAvailable
 2628              	.LVL427:
 2629 0010 0446     		mov	r4, r0
 2630              	.LVL428:
1298:Source\bsw\FreeRTOS\src/mpu_wrappers.c **** 	vPortResetPrivilege( xRunningPrivileged );
 2631              		.loc 1 1298 0
 2632 0012 2846     		mov	r0, r5
 2633              	.LVL429:
 2634 0014 FFF7FEFF 		bl	vPortResetPrivilege
ARM GAS  C:\Users\Reza\AppData\Local\Temp\cckOPwM0.s 			page 70


 2635              	.LVL430:
1299:Source\bsw\FreeRTOS\src/mpu_wrappers.c **** 
1300:Source\bsw\FreeRTOS\src/mpu_wrappers.c **** 	return xReturn;
1301:Source\bsw\FreeRTOS\src/mpu_wrappers.c **** }
 2636              		.loc 1 1301 0
 2637 0018 2046     		mov	r0, r4
 2638 001a 38BD     		pop	{r3, r4, r5, pc}
 2639              		.cfi_endproc
 2640              	.LFE128:
 2641              		.size	MPU_xStreamBufferSpacesAvailable, .-MPU_xStreamBufferSpacesAvailable
 2642              		.section	.text.MPU_xStreamBufferBytesAvailable,"ax",%progbits
 2643              		.align	2
 2644              		.global	MPU_xStreamBufferBytesAvailable
 2645              		.thumb
 2646              		.thumb_func
 2647              		.type	MPU_xStreamBufferBytesAvailable, %function
 2648              	MPU_xStreamBufferBytesAvailable:
 2649              	.LFB129:
1302:Source\bsw\FreeRTOS\src/mpu_wrappers.c **** /*-----------------------------------------------------------*/
1303:Source\bsw\FreeRTOS\src/mpu_wrappers.c **** 
1304:Source\bsw\FreeRTOS\src/mpu_wrappers.c **** size_t MPU_xStreamBufferBytesAvailable( StreamBufferHandle_t xStreamBuffer ) /* FREERTOS_SYSTEM_CAL
1305:Source\bsw\FreeRTOS\src/mpu_wrappers.c **** {
 2650              		.loc 1 1305 0
 2651              		.cfi_startproc
 2652              		@ args = 0, pretend = 0, frame = 0
 2653              		@ frame_needed = 0, uses_anonymous_args = 0
 2654              	.LVL431:
 2655 0000 38B5     		push	{r3, r4, r5, lr}
 2656              		.cfi_def_cfa_offset 16
 2657              		.cfi_offset 3, -16
 2658              		.cfi_offset 4, -12
 2659              		.cfi_offset 5, -8
 2660              		.cfi_offset 14, -4
 2661 0002 0446     		mov	r4, r0
1306:Source\bsw\FreeRTOS\src/mpu_wrappers.c **** size_t xReturn;
1307:Source\bsw\FreeRTOS\src/mpu_wrappers.c **** BaseType_t xRunningPrivileged = xPortRaisePrivilege();
 2662              		.loc 1 1307 0
 2663 0004 FFF7FEFF 		bl	xPortRaisePrivilege
 2664              	.LVL432:
 2665 0008 0546     		mov	r5, r0
 2666              	.LVL433:
1308:Source\bsw\FreeRTOS\src/mpu_wrappers.c **** 
1309:Source\bsw\FreeRTOS\src/mpu_wrappers.c **** 	xReturn = xStreamBufferBytesAvailable( xStreamBuffer );
 2667              		.loc 1 1309 0
 2668 000a 2046     		mov	r0, r4
 2669              	.LVL434:
 2670 000c FFF7FEFF 		bl	xStreamBufferBytesAvailable
 2671              	.LVL435:
 2672 0010 0446     		mov	r4, r0
 2673              	.LVL436:
1310:Source\bsw\FreeRTOS\src/mpu_wrappers.c **** 	vPortResetPrivilege( xRunningPrivileged );
 2674              		.loc 1 1310 0
 2675 0012 2846     		mov	r0, r5
 2676              	.LVL437:
 2677 0014 FFF7FEFF 		bl	vPortResetPrivilege
 2678              	.LVL438:
1311:Source\bsw\FreeRTOS\src/mpu_wrappers.c **** 
ARM GAS  C:\Users\Reza\AppData\Local\Temp\cckOPwM0.s 			page 71


1312:Source\bsw\FreeRTOS\src/mpu_wrappers.c **** 	return xReturn;
1313:Source\bsw\FreeRTOS\src/mpu_wrappers.c **** }
 2679              		.loc 1 1313 0
 2680 0018 2046     		mov	r0, r4
 2681 001a 38BD     		pop	{r3, r4, r5, pc}
 2682              		.cfi_endproc
 2683              	.LFE129:
 2684              		.size	MPU_xStreamBufferBytesAvailable, .-MPU_xStreamBufferBytesAvailable
 2685              		.section	.text.MPU_xStreamBufferSetTriggerLevel,"ax",%progbits
 2686              		.align	2
 2687              		.global	MPU_xStreamBufferSetTriggerLevel
 2688              		.thumb
 2689              		.thumb_func
 2690              		.type	MPU_xStreamBufferSetTriggerLevel, %function
 2691              	MPU_xStreamBufferSetTriggerLevel:
 2692              	.LFB130:
1314:Source\bsw\FreeRTOS\src/mpu_wrappers.c **** /*-----------------------------------------------------------*/
1315:Source\bsw\FreeRTOS\src/mpu_wrappers.c **** 
1316:Source\bsw\FreeRTOS\src/mpu_wrappers.c **** BaseType_t MPU_xStreamBufferSetTriggerLevel( StreamBufferHandle_t xStreamBuffer, size_t xTriggerLev
1317:Source\bsw\FreeRTOS\src/mpu_wrappers.c **** {
 2693              		.loc 1 1317 0
 2694              		.cfi_startproc
 2695              		@ args = 0, pretend = 0, frame = 0
 2696              		@ frame_needed = 0, uses_anonymous_args = 0
 2697              	.LVL439:
 2698 0000 70B5     		push	{r4, r5, r6, lr}
 2699              		.cfi_def_cfa_offset 16
 2700              		.cfi_offset 4, -16
 2701              		.cfi_offset 5, -12
 2702              		.cfi_offset 6, -8
 2703              		.cfi_offset 14, -4
 2704 0002 0446     		mov	r4, r0
 2705 0004 0E46     		mov	r6, r1
1318:Source\bsw\FreeRTOS\src/mpu_wrappers.c **** BaseType_t xReturn;
1319:Source\bsw\FreeRTOS\src/mpu_wrappers.c **** BaseType_t xRunningPrivileged = xPortRaisePrivilege();
 2706              		.loc 1 1319 0
 2707 0006 FFF7FEFF 		bl	xPortRaisePrivilege
 2708              	.LVL440:
 2709 000a 0546     		mov	r5, r0
 2710              	.LVL441:
1320:Source\bsw\FreeRTOS\src/mpu_wrappers.c **** 
1321:Source\bsw\FreeRTOS\src/mpu_wrappers.c **** 	xReturn = xStreamBufferSetTriggerLevel( xStreamBuffer, xTriggerLevel );
 2711              		.loc 1 1321 0
 2712 000c 3146     		mov	r1, r6
 2713 000e 2046     		mov	r0, r4
 2714              	.LVL442:
 2715 0010 FFF7FEFF 		bl	xStreamBufferSetTriggerLevel
 2716              	.LVL443:
 2717 0014 0446     		mov	r4, r0
 2718              	.LVL444:
1322:Source\bsw\FreeRTOS\src/mpu_wrappers.c **** 	vPortResetPrivilege( xRunningPrivileged );
 2719              		.loc 1 1322 0
 2720 0016 2846     		mov	r0, r5
 2721              	.LVL445:
 2722 0018 FFF7FEFF 		bl	vPortResetPrivilege
 2723              	.LVL446:
1323:Source\bsw\FreeRTOS\src/mpu_wrappers.c **** 
ARM GAS  C:\Users\Reza\AppData\Local\Temp\cckOPwM0.s 			page 72


1324:Source\bsw\FreeRTOS\src/mpu_wrappers.c **** 	return xReturn;
1325:Source\bsw\FreeRTOS\src/mpu_wrappers.c **** }
 2724              		.loc 1 1325 0
 2725 001c 2046     		mov	r0, r4
 2726 001e 70BD     		pop	{r4, r5, r6, pc}
 2727              		.cfi_endproc
 2728              	.LFE130:
 2729              		.size	MPU_xStreamBufferSetTriggerLevel, .-MPU_xStreamBufferSetTriggerLevel
 2730              		.section	.text.MPU_xStreamBufferGenericCreate,"ax",%progbits
 2731              		.align	2
 2732              		.global	MPU_xStreamBufferGenericCreate
 2733              		.thumb
 2734              		.thumb_func
 2735              		.type	MPU_xStreamBufferGenericCreate, %function
 2736              	MPU_xStreamBufferGenericCreate:
 2737              	.LFB131:
1326:Source\bsw\FreeRTOS\src/mpu_wrappers.c **** /*-----------------------------------------------------------*/
1327:Source\bsw\FreeRTOS\src/mpu_wrappers.c **** 
1328:Source\bsw\FreeRTOS\src/mpu_wrappers.c **** #if( configSUPPORT_DYNAMIC_ALLOCATION == 1 )
1329:Source\bsw\FreeRTOS\src/mpu_wrappers.c **** 	StreamBufferHandle_t MPU_xStreamBufferGenericCreate( size_t xBufferSizeBytes, size_t xTriggerLevel
1330:Source\bsw\FreeRTOS\src/mpu_wrappers.c **** 	{
 2738              		.loc 1 1330 0
 2739              		.cfi_startproc
 2740              		@ args = 0, pretend = 0, frame = 0
 2741              		@ frame_needed = 0, uses_anonymous_args = 0
 2742              	.LVL447:
 2743 0000 F8B5     		push	{r3, r4, r5, r6, r7, lr}
 2744              		.cfi_def_cfa_offset 24
 2745              		.cfi_offset 3, -24
 2746              		.cfi_offset 4, -20
 2747              		.cfi_offset 5, -16
 2748              		.cfi_offset 6, -12
 2749              		.cfi_offset 7, -8
 2750              		.cfi_offset 14, -4
 2751 0002 0446     		mov	r4, r0
 2752 0004 0E46     		mov	r6, r1
 2753 0006 1746     		mov	r7, r2
1331:Source\bsw\FreeRTOS\src/mpu_wrappers.c **** 	StreamBufferHandle_t xReturn;
1332:Source\bsw\FreeRTOS\src/mpu_wrappers.c **** 	BaseType_t xRunningPrivileged = xPortRaisePrivilege();
 2754              		.loc 1 1332 0
 2755 0008 FFF7FEFF 		bl	xPortRaisePrivilege
 2756              	.LVL448:
 2757 000c 0546     		mov	r5, r0
 2758              	.LVL449:
1333:Source\bsw\FreeRTOS\src/mpu_wrappers.c **** 
1334:Source\bsw\FreeRTOS\src/mpu_wrappers.c **** 		xReturn = xStreamBufferGenericCreate( xBufferSizeBytes, xTriggerLevelBytes, xIsMessageBuffer );
 2759              		.loc 1 1334 0
 2760 000e 3A46     		mov	r2, r7
 2761 0010 3146     		mov	r1, r6
 2762 0012 2046     		mov	r0, r4
 2763              	.LVL450:
 2764 0014 FFF7FEFF 		bl	xStreamBufferGenericCreate
 2765              	.LVL451:
 2766 0018 0446     		mov	r4, r0
 2767              	.LVL452:
1335:Source\bsw\FreeRTOS\src/mpu_wrappers.c **** 		vPortResetPrivilege( xRunningPrivileged );
 2768              		.loc 1 1335 0
ARM GAS  C:\Users\Reza\AppData\Local\Temp\cckOPwM0.s 			page 73


 2769 001a 2846     		mov	r0, r5
 2770              	.LVL453:
 2771 001c FFF7FEFF 		bl	vPortResetPrivilege
 2772              	.LVL454:
1336:Source\bsw\FreeRTOS\src/mpu_wrappers.c **** 
1337:Source\bsw\FreeRTOS\src/mpu_wrappers.c **** 		return xReturn;
1338:Source\bsw\FreeRTOS\src/mpu_wrappers.c **** 	}
 2773              		.loc 1 1338 0
 2774 0020 2046     		mov	r0, r4
 2775 0022 F8BD     		pop	{r3, r4, r5, r6, r7, pc}
 2776              		.cfi_endproc
 2777              	.LFE131:
 2778              		.size	MPU_xStreamBufferGenericCreate, .-MPU_xStreamBufferGenericCreate
 2779              		.text
 2780              	.Letext0:
 2781              		.file 2 "c:\\program files (x86)\\cypress\\psoc creator\\4.2\\psoc creator\\import\\gnu\\arm\\5.4.
 2782              		.file 3 "c:\\program files (x86)\\cypress\\psoc creator\\4.2\\psoc creator\\import\\gnu\\arm\\5.4.
 2783              		.file 4 "c:\\program files (x86)\\cypress\\psoc creator\\4.2\\psoc creator\\import\\gnu\\arm\\5.4.
 2784              		.file 5 ".\\Source\\bsw\\FreeRTOS\\include/projdefs.h"
 2785              		.file 6 ".\\Source\\bsw\\FreeRTOS\\include/portmacro.h"
 2786              		.file 7 ".\\Source\\bsw\\FreeRTOS\\include/task.h"
 2787              		.file 8 ".\\Source\\bsw\\FreeRTOS\\include/queue.h"
 2788              		.file 9 ".\\Source\\bsw\\FreeRTOS\\include/event_groups.h"
 2789              		.file 10 ".\\Source\\bsw\\FreeRTOS\\include/stream_buffer.h"
 2790              		.file 11 ".\\Source\\bsw\\FreeRTOS\\include/portable.h"
 2791              		.file 12 "Generated_Source\\PSoC5/core_cm3.h"