ARM GAS  C:\Users\Reza\AppData\Local\Temp\cckPBuH8.s 			page 1


   1              		.syntax unified
   2              		.cpu cortex-m3
   3              		.fpu softvfp
   4              		.eabi_attribute 20, 1
   5              		.eabi_attribute 21, 1
   6              		.eabi_attribute 23, 3
   7              		.eabi_attribute 24, 1
   8              		.eabi_attribute 25, 1
   9              		.eabi_attribute 26, 1
  10              		.eabi_attribute 30, 1
  11              		.eabi_attribute 34, 1
  12              		.eabi_attribute 18, 4
  13              		.thumb
  14              		.syntax unified
  15              		.file	"CAN_Tx_INT.c"
  16              		.text
  17              	.Ltext0:
  18              		.cfi_sections	.debug_frame
  19              		.section	.text.CAN_Tx_BusOffIsr,"ax",%progbits
  20              		.align	2
  21              		.global	CAN_Tx_BusOffIsr
  22              		.thumb
  23              		.thumb_func
  24              		.type	CAN_Tx_BusOffIsr, %function
  25              	CAN_Tx_BusOffIsr:
  26              	.LFB68:
  27              		.file 1 "Generated_Source\\PSoC5\\CAN_Tx_INT.c"
   1:Generated_Source\PSoC5/CAN_Tx_INT.c **** /*******************************************************************************
   2:Generated_Source\PSoC5/CAN_Tx_INT.c **** * File Name: CAN_Tx_INT.c
   3:Generated_Source\PSoC5/CAN_Tx_INT.c **** * Version 3.0
   4:Generated_Source\PSoC5/CAN_Tx_INT.c **** *
   5:Generated_Source\PSoC5/CAN_Tx_INT.c **** * Description:
   6:Generated_Source\PSoC5/CAN_Tx_INT.c **** *  This file contains Interrupt Service Routine (ISR) for CAN Component.
   7:Generated_Source\PSoC5/CAN_Tx_INT.c **** *  The Interrupt handlers functions are generated accordingly to the PSoC
   8:Generated_Source\PSoC5/CAN_Tx_INT.c **** *  Creator Customizer inputs.
   9:Generated_Source\PSoC5/CAN_Tx_INT.c **** *
  10:Generated_Source\PSoC5/CAN_Tx_INT.c **** * Note:
  11:Generated_Source\PSoC5/CAN_Tx_INT.c **** *  None
  12:Generated_Source\PSoC5/CAN_Tx_INT.c **** *
  13:Generated_Source\PSoC5/CAN_Tx_INT.c **** ********************************************************************************
  14:Generated_Source\PSoC5/CAN_Tx_INT.c **** * Copyright 2008-2015, Cypress Semiconductor Corporation.  All rights reserved.
  15:Generated_Source\PSoC5/CAN_Tx_INT.c **** * You may use this file only in accordance with the license, terms, conditions,
  16:Generated_Source\PSoC5/CAN_Tx_INT.c **** * disclaimers, and limitations in the end user license agreement accompanying
  17:Generated_Source\PSoC5/CAN_Tx_INT.c **** * the software package with which this file was provided.
  18:Generated_Source\PSoC5/CAN_Tx_INT.c **** *******************************************************************************/
  19:Generated_Source\PSoC5/CAN_Tx_INT.c **** 
  20:Generated_Source\PSoC5/CAN_Tx_INT.c **** #include "CAN_Tx.h"
  21:Generated_Source\PSoC5/CAN_Tx_INT.c **** #include "FreeRTOS.h"
  22:Generated_Source\PSoC5/CAN_Tx_INT.c **** #include "semphr.h"
  23:Generated_Source\PSoC5/CAN_Tx_INT.c **** #include "portmacro.h"
  24:Generated_Source\PSoC5/CAN_Tx_INT.c **** #include "UART_LOG.h"
  25:Generated_Source\PSoC5/CAN_Tx_INT.c **** #include "global.h"
  26:Generated_Source\PSoC5/CAN_Tx_INT.c **** #include "Red_Led.h"
  27:Generated_Source\PSoC5/CAN_Tx_INT.c **** 
  28:Generated_Source\PSoC5/CAN_Tx_INT.c **** /* `#START CAN_INT_C_CODE_DEFINITION` */
  29:Generated_Source\PSoC5/CAN_Tx_INT.c **** extern xSemaphoreHandle TxGiver;
  30:Generated_Source\PSoC5/CAN_Tx_INT.c **** /* `#END` */
ARM GAS  C:\Users\Reza\AppData\Local\Temp\cckPBuH8.s 			page 2


  31:Generated_Source\PSoC5/CAN_Tx_INT.c **** 
  32:Generated_Source\PSoC5/CAN_Tx_INT.c **** #if (CAN_Tx_ARB_LOST)
  33:Generated_Source\PSoC5/CAN_Tx_INT.c ****     /*******************************************************************************
  34:Generated_Source\PSoC5/CAN_Tx_INT.c ****     * FUNCTION NAME:   CAN_Tx_ArbLostIsr
  35:Generated_Source\PSoC5/CAN_Tx_INT.c ****     ********************************************************************************
  36:Generated_Source\PSoC5/CAN_Tx_INT.c ****     *
  37:Generated_Source\PSoC5/CAN_Tx_INT.c ****     * Summary:
  38:Generated_Source\PSoC5/CAN_Tx_INT.c ****     *  This function is entry point to Arbitration Lost Interrupt. Clears
  39:Generated_Source\PSoC5/CAN_Tx_INT.c ****     *  Arbitration Lost interrupt flag. Only generated if Arbitration Lost
  40:Generated_Source\PSoC5/CAN_Tx_INT.c ****     *  Interrupt enable in Customizer.
  41:Generated_Source\PSoC5/CAN_Tx_INT.c ****     *
  42:Generated_Source\PSoC5/CAN_Tx_INT.c ****     * Parameters:
  43:Generated_Source\PSoC5/CAN_Tx_INT.c ****     *  None.
  44:Generated_Source\PSoC5/CAN_Tx_INT.c ****     *
  45:Generated_Source\PSoC5/CAN_Tx_INT.c ****     * Return:
  46:Generated_Source\PSoC5/CAN_Tx_INT.c ****     *  None.
  47:Generated_Source\PSoC5/CAN_Tx_INT.c ****     *
  48:Generated_Source\PSoC5/CAN_Tx_INT.c ****     * Reentrant:
  49:Generated_Source\PSoC5/CAN_Tx_INT.c ****     *  Depends on Customer code.
  50:Generated_Source\PSoC5/CAN_Tx_INT.c ****     *
  51:Generated_Source\PSoC5/CAN_Tx_INT.c ****     *******************************************************************************/
  52:Generated_Source\PSoC5/CAN_Tx_INT.c ****     void CAN_Tx_ArbLostIsr(void) 
  53:Generated_Source\PSoC5/CAN_Tx_INT.c ****     {
  54:Generated_Source\PSoC5/CAN_Tx_INT.c ****         /* Clear Arbitration Lost flag */
  55:Generated_Source\PSoC5/CAN_Tx_INT.c ****         CAN_Tx_INT_SR_REG.byte[0u] = CAN_Tx_ARBITRATION_LOST_MASK;
  56:Generated_Source\PSoC5/CAN_Tx_INT.c **** 
  57:Generated_Source\PSoC5/CAN_Tx_INT.c ****         /* `#START ARBITRATION_LOST_ISR` */
  58:Generated_Source\PSoC5/CAN_Tx_INT.c **** 
  59:Generated_Source\PSoC5/CAN_Tx_INT.c ****         /* `#END` */
  60:Generated_Source\PSoC5/CAN_Tx_INT.c **** 
  61:Generated_Source\PSoC5/CAN_Tx_INT.c ****         #ifdef CAN_Tx_ARB_LOST_ISR_CALLBACK
  62:Generated_Source\PSoC5/CAN_Tx_INT.c ****             CAN_Tx_ArbLostIsr_Callback();
  63:Generated_Source\PSoC5/CAN_Tx_INT.c ****         #endif /* CAN_Tx_ARB_LOST_ISR_CALLBACK */
  64:Generated_Source\PSoC5/CAN_Tx_INT.c ****     }
  65:Generated_Source\PSoC5/CAN_Tx_INT.c **** #endif /* CAN_Tx_ARB_LOST */
  66:Generated_Source\PSoC5/CAN_Tx_INT.c **** 
  67:Generated_Source\PSoC5/CAN_Tx_INT.c **** 
  68:Generated_Source\PSoC5/CAN_Tx_INT.c **** #if (CAN_Tx_OVERLOAD)
  69:Generated_Source\PSoC5/CAN_Tx_INT.c ****     /*******************************************************************************
  70:Generated_Source\PSoC5/CAN_Tx_INT.c ****     * FUNCTION NAME:   CAN_Tx_OvrLdErrorIsr
  71:Generated_Source\PSoC5/CAN_Tx_INT.c ****     ********************************************************************************
  72:Generated_Source\PSoC5/CAN_Tx_INT.c ****     *
  73:Generated_Source\PSoC5/CAN_Tx_INT.c ****     * Summary:
  74:Generated_Source\PSoC5/CAN_Tx_INT.c ****     *  This function is entry point to Overload Error Interrupt. Clears Overload
  75:Generated_Source\PSoC5/CAN_Tx_INT.c ****     *  Error interrupt flag. Only generated if Overload Error Interrupt enable
  76:Generated_Source\PSoC5/CAN_Tx_INT.c ****     *  in Customizer.
  77:Generated_Source\PSoC5/CAN_Tx_INT.c ****     *
  78:Generated_Source\PSoC5/CAN_Tx_INT.c ****     * Parameters:
  79:Generated_Source\PSoC5/CAN_Tx_INT.c ****     *  None.
  80:Generated_Source\PSoC5/CAN_Tx_INT.c ****     *
  81:Generated_Source\PSoC5/CAN_Tx_INT.c ****     * Return:
  82:Generated_Source\PSoC5/CAN_Tx_INT.c ****     *  None.
  83:Generated_Source\PSoC5/CAN_Tx_INT.c ****     *
  84:Generated_Source\PSoC5/CAN_Tx_INT.c ****     * Reentrant:
  85:Generated_Source\PSoC5/CAN_Tx_INT.c ****     *  Depends on Customer code.
  86:Generated_Source\PSoC5/CAN_Tx_INT.c ****     *
  87:Generated_Source\PSoC5/CAN_Tx_INT.c ****     *******************************************************************************/
ARM GAS  C:\Users\Reza\AppData\Local\Temp\cckPBuH8.s 			page 3


  88:Generated_Source\PSoC5/CAN_Tx_INT.c ****     void CAN_Tx_OvrLdErrorIsr(void) 
  89:Generated_Source\PSoC5/CAN_Tx_INT.c ****     {
  90:Generated_Source\PSoC5/CAN_Tx_INT.c ****         /* Clear Overload Error flag */
  91:Generated_Source\PSoC5/CAN_Tx_INT.c ****         CAN_Tx_INT_SR_REG.byte[0u] = CAN_Tx_OVERLOAD_ERROR_MASK;
  92:Generated_Source\PSoC5/CAN_Tx_INT.c **** 
  93:Generated_Source\PSoC5/CAN_Tx_INT.c ****         /* `#START OVER_LOAD_ERROR_ISR` */
  94:Generated_Source\PSoC5/CAN_Tx_INT.c **** 
  95:Generated_Source\PSoC5/CAN_Tx_INT.c ****         /* `#END` */
  96:Generated_Source\PSoC5/CAN_Tx_INT.c **** 
  97:Generated_Source\PSoC5/CAN_Tx_INT.c ****         #ifdef CAN_Tx_OVR_LD_ERROR_ISR_CALLBACK
  98:Generated_Source\PSoC5/CAN_Tx_INT.c ****             CAN_Tx_OvrLdErrorIsr_Callback();
  99:Generated_Source\PSoC5/CAN_Tx_INT.c ****         #endif /* CAN_Tx_OVR_LD_ERROR_ISR_CALLBACK */
 100:Generated_Source\PSoC5/CAN_Tx_INT.c ****     }
 101:Generated_Source\PSoC5/CAN_Tx_INT.c **** #endif /* CAN_Tx_OVERLOAD */
 102:Generated_Source\PSoC5/CAN_Tx_INT.c **** 
 103:Generated_Source\PSoC5/CAN_Tx_INT.c **** 
 104:Generated_Source\PSoC5/CAN_Tx_INT.c **** #if (CAN_Tx_BIT_ERR)
 105:Generated_Source\PSoC5/CAN_Tx_INT.c ****     /*******************************************************************************
 106:Generated_Source\PSoC5/CAN_Tx_INT.c ****     * FUNCTION NAME:   CAN_Tx_BitErrorIsr
 107:Generated_Source\PSoC5/CAN_Tx_INT.c ****     ********************************************************************************
 108:Generated_Source\PSoC5/CAN_Tx_INT.c ****     *
 109:Generated_Source\PSoC5/CAN_Tx_INT.c ****     * Summary:
 110:Generated_Source\PSoC5/CAN_Tx_INT.c ****     *  This function is entry point to Bit Error Interrupt. Clears Bit Error
 111:Generated_Source\PSoC5/CAN_Tx_INT.c ****     *  interrupt flag. Only generated if Bit Error Interrupt enable in Customizer.
 112:Generated_Source\PSoC5/CAN_Tx_INT.c ****     *
 113:Generated_Source\PSoC5/CAN_Tx_INT.c ****     * Parameters:
 114:Generated_Source\PSoC5/CAN_Tx_INT.c ****     *  None.
 115:Generated_Source\PSoC5/CAN_Tx_INT.c ****     *
 116:Generated_Source\PSoC5/CAN_Tx_INT.c ****     * Return:
 117:Generated_Source\PSoC5/CAN_Tx_INT.c ****     *  None.
 118:Generated_Source\PSoC5/CAN_Tx_INT.c ****     *
 119:Generated_Source\PSoC5/CAN_Tx_INT.c ****     * Reentrant:
 120:Generated_Source\PSoC5/CAN_Tx_INT.c ****     *  Depends on Customer code.
 121:Generated_Source\PSoC5/CAN_Tx_INT.c ****     *
 122:Generated_Source\PSoC5/CAN_Tx_INT.c ****     *******************************************************************************/
 123:Generated_Source\PSoC5/CAN_Tx_INT.c ****     void CAN_Tx_BitErrorIsr(void) 
 124:Generated_Source\PSoC5/CAN_Tx_INT.c ****     {
 125:Generated_Source\PSoC5/CAN_Tx_INT.c ****         /* Clear Bit Error flag */
 126:Generated_Source\PSoC5/CAN_Tx_INT.c ****         CAN_Tx_INT_SR_REG.byte[0u] = CAN_Tx_BIT_ERROR_MASK;
 127:Generated_Source\PSoC5/CAN_Tx_INT.c **** 
 128:Generated_Source\PSoC5/CAN_Tx_INT.c ****         /* `#START BIT_ERROR_ISR` */
 129:Generated_Source\PSoC5/CAN_Tx_INT.c **** 
 130:Generated_Source\PSoC5/CAN_Tx_INT.c ****         /* `#END` */
 131:Generated_Source\PSoC5/CAN_Tx_INT.c **** 
 132:Generated_Source\PSoC5/CAN_Tx_INT.c ****         #ifdef CAN_Tx_BIT_ERROR_ISR_CALLBACK
 133:Generated_Source\PSoC5/CAN_Tx_INT.c ****             CAN_Tx_BitErrorIsr_Callback();
 134:Generated_Source\PSoC5/CAN_Tx_INT.c ****         #endif /* CAN_Tx_BIT_ERROR_ISR_CALLBACK */
 135:Generated_Source\PSoC5/CAN_Tx_INT.c ****     }
 136:Generated_Source\PSoC5/CAN_Tx_INT.c **** #endif /* CAN_Tx_BIT_ERR */
 137:Generated_Source\PSoC5/CAN_Tx_INT.c **** 
 138:Generated_Source\PSoC5/CAN_Tx_INT.c **** 
 139:Generated_Source\PSoC5/CAN_Tx_INT.c **** #if (CAN_Tx_STUFF_ERR)
 140:Generated_Source\PSoC5/CAN_Tx_INT.c ****     /*******************************************************************************
 141:Generated_Source\PSoC5/CAN_Tx_INT.c ****     * FUNCTION NAME:   CAN_Tx_BitStuffErrorIsr
 142:Generated_Source\PSoC5/CAN_Tx_INT.c ****     ********************************************************************************
 143:Generated_Source\PSoC5/CAN_Tx_INT.c ****     *
 144:Generated_Source\PSoC5/CAN_Tx_INT.c ****     * Summary:
ARM GAS  C:\Users\Reza\AppData\Local\Temp\cckPBuH8.s 			page 4


 145:Generated_Source\PSoC5/CAN_Tx_INT.c ****     *  This function is entry point to Bit Stuff Error Interrupt. Clears Bit Stuff
 146:Generated_Source\PSoC5/CAN_Tx_INT.c ****     *  Error interrupt flag. Only generated if Bit Stuff Error Interrupt enable
 147:Generated_Source\PSoC5/CAN_Tx_INT.c ****     *  in Customizer.
 148:Generated_Source\PSoC5/CAN_Tx_INT.c ****     *
 149:Generated_Source\PSoC5/CAN_Tx_INT.c ****     * Parameters:
 150:Generated_Source\PSoC5/CAN_Tx_INT.c ****     *  None.
 151:Generated_Source\PSoC5/CAN_Tx_INT.c ****     *
 152:Generated_Source\PSoC5/CAN_Tx_INT.c ****     * Return:
 153:Generated_Source\PSoC5/CAN_Tx_INT.c ****     *  None.
 154:Generated_Source\PSoC5/CAN_Tx_INT.c ****     *
 155:Generated_Source\PSoC5/CAN_Tx_INT.c ****     * Reentrant:
 156:Generated_Source\PSoC5/CAN_Tx_INT.c ****     *  Depends on Customer code.
 157:Generated_Source\PSoC5/CAN_Tx_INT.c ****     *
 158:Generated_Source\PSoC5/CAN_Tx_INT.c ****     *******************************************************************************/
 159:Generated_Source\PSoC5/CAN_Tx_INT.c ****     void CAN_Tx_BitStuffErrorIsr(void) 
 160:Generated_Source\PSoC5/CAN_Tx_INT.c ****     {
 161:Generated_Source\PSoC5/CAN_Tx_INT.c ****         /* Clear Stuff Error flag */
 162:Generated_Source\PSoC5/CAN_Tx_INT.c ****         CAN_Tx_INT_SR_REG.byte[0u] = CAN_Tx_STUFF_ERROR_MASK;
 163:Generated_Source\PSoC5/CAN_Tx_INT.c **** 
 164:Generated_Source\PSoC5/CAN_Tx_INT.c ****         /* `#START BIT_STUFF_ERROR_ISR` */
 165:Generated_Source\PSoC5/CAN_Tx_INT.c **** 
 166:Generated_Source\PSoC5/CAN_Tx_INT.c ****         /* `#END` */
 167:Generated_Source\PSoC5/CAN_Tx_INT.c **** 
 168:Generated_Source\PSoC5/CAN_Tx_INT.c ****         #ifdef CAN_Tx_BIT_STUFF_ERROR_ISR_CALLBACK
 169:Generated_Source\PSoC5/CAN_Tx_INT.c ****             CAN_Tx_BitStuffErrorIsr_Callback();
 170:Generated_Source\PSoC5/CAN_Tx_INT.c ****         #endif /* CAN_Tx_BIT_STUFF_ERROR_ISR_CALLBACK */
 171:Generated_Source\PSoC5/CAN_Tx_INT.c ****     }
 172:Generated_Source\PSoC5/CAN_Tx_INT.c **** #endif /* CAN_Tx_STUFF_ERR */
 173:Generated_Source\PSoC5/CAN_Tx_INT.c **** 
 174:Generated_Source\PSoC5/CAN_Tx_INT.c **** 
 175:Generated_Source\PSoC5/CAN_Tx_INT.c **** #if (CAN_Tx_ACK_ERR)
 176:Generated_Source\PSoC5/CAN_Tx_INT.c ****     /*******************************************************************************
 177:Generated_Source\PSoC5/CAN_Tx_INT.c ****     * FUNCTION NAME:   CAN_Tx_AckErrorIsr
 178:Generated_Source\PSoC5/CAN_Tx_INT.c ****     ********************************************************************************
 179:Generated_Source\PSoC5/CAN_Tx_INT.c ****     *
 180:Generated_Source\PSoC5/CAN_Tx_INT.c ****     * Summary:
 181:Generated_Source\PSoC5/CAN_Tx_INT.c ****     *  This function is entry point to Acknowledge Error Interrupt. Clears
 182:Generated_Source\PSoC5/CAN_Tx_INT.c ****     *  Acknowledge Error interrupt flag. Only generated if Acknowledge Error
 183:Generated_Source\PSoC5/CAN_Tx_INT.c ****     *  Interrupt enable in Customizer.
 184:Generated_Source\PSoC5/CAN_Tx_INT.c ****     *
 185:Generated_Source\PSoC5/CAN_Tx_INT.c ****     * Parameters:
 186:Generated_Source\PSoC5/CAN_Tx_INT.c ****     *  None.
 187:Generated_Source\PSoC5/CAN_Tx_INT.c ****     *
 188:Generated_Source\PSoC5/CAN_Tx_INT.c ****     * Return:
 189:Generated_Source\PSoC5/CAN_Tx_INT.c ****     *  None.
 190:Generated_Source\PSoC5/CAN_Tx_INT.c ****     *
 191:Generated_Source\PSoC5/CAN_Tx_INT.c ****     * Reentrant:
 192:Generated_Source\PSoC5/CAN_Tx_INT.c ****     *  Depends on Customer code.
 193:Generated_Source\PSoC5/CAN_Tx_INT.c ****     *
 194:Generated_Source\PSoC5/CAN_Tx_INT.c ****     *******************************************************************************/
 195:Generated_Source\PSoC5/CAN_Tx_INT.c ****     void CAN_Tx_AckErrorIsr(void) 
 196:Generated_Source\PSoC5/CAN_Tx_INT.c ****     {
 197:Generated_Source\PSoC5/CAN_Tx_INT.c ****         /* Clear Acknoledge Error flag */
 198:Generated_Source\PSoC5/CAN_Tx_INT.c ****         CAN_Tx_INT_SR_REG.byte[0u] = CAN_Tx_ACK_ERROR_MASK;
 199:Generated_Source\PSoC5/CAN_Tx_INT.c **** 
 200:Generated_Source\PSoC5/CAN_Tx_INT.c ****         /* `#START ACKNOWLEDGE_ERROR_ISR` */
 201:Generated_Source\PSoC5/CAN_Tx_INT.c **** 
ARM GAS  C:\Users\Reza\AppData\Local\Temp\cckPBuH8.s 			page 5


 202:Generated_Source\PSoC5/CAN_Tx_INT.c ****         /* `#END` */
 203:Generated_Source\PSoC5/CAN_Tx_INT.c **** 
 204:Generated_Source\PSoC5/CAN_Tx_INT.c ****         #ifdef CAN_Tx_ACK_ERROR_ISR_CALLBACK
 205:Generated_Source\PSoC5/CAN_Tx_INT.c ****             CAN_Tx_AckErrorIsr_Callback();
 206:Generated_Source\PSoC5/CAN_Tx_INT.c ****         #endif /* CAN_Tx_ACK_ERROR_ISR_CALLBACK */
 207:Generated_Source\PSoC5/CAN_Tx_INT.c ****     }
 208:Generated_Source\PSoC5/CAN_Tx_INT.c **** #endif /* CAN_Tx_ACK_ERR */
 209:Generated_Source\PSoC5/CAN_Tx_INT.c **** 
 210:Generated_Source\PSoC5/CAN_Tx_INT.c **** 
 211:Generated_Source\PSoC5/CAN_Tx_INT.c **** #if (CAN_Tx_FORM_ERR)
 212:Generated_Source\PSoC5/CAN_Tx_INT.c ****     /*******************************************************************************
 213:Generated_Source\PSoC5/CAN_Tx_INT.c ****     * FUNCTION NAME:   CAN_Tx_MsgErrorIsr
 214:Generated_Source\PSoC5/CAN_Tx_INT.c ****     ********************************************************************************
 215:Generated_Source\PSoC5/CAN_Tx_INT.c ****     *
 216:Generated_Source\PSoC5/CAN_Tx_INT.c ****     * Summary:
 217:Generated_Source\PSoC5/CAN_Tx_INT.c ****     *  This function is entry point to Form Error Interrupt. Clears Form Error
 218:Generated_Source\PSoC5/CAN_Tx_INT.c ****     *  interrupt flag. Only generated if Form Error Interrupt enable in Customizer.
 219:Generated_Source\PSoC5/CAN_Tx_INT.c ****     *
 220:Generated_Source\PSoC5/CAN_Tx_INT.c ****     * Parameters:
 221:Generated_Source\PSoC5/CAN_Tx_INT.c ****     *  None.
 222:Generated_Source\PSoC5/CAN_Tx_INT.c ****     *
 223:Generated_Source\PSoC5/CAN_Tx_INT.c ****     * Return:
 224:Generated_Source\PSoC5/CAN_Tx_INT.c ****     *  None.
 225:Generated_Source\PSoC5/CAN_Tx_INT.c ****     *
 226:Generated_Source\PSoC5/CAN_Tx_INT.c ****     * Reentrant:
 227:Generated_Source\PSoC5/CAN_Tx_INT.c ****     *  Depends on Customer code.
 228:Generated_Source\PSoC5/CAN_Tx_INT.c ****     *
 229:Generated_Source\PSoC5/CAN_Tx_INT.c ****     *******************************************************************************/
 230:Generated_Source\PSoC5/CAN_Tx_INT.c ****     void CAN_Tx_MsgErrorIsr(void) 
 231:Generated_Source\PSoC5/CAN_Tx_INT.c ****     {
 232:Generated_Source\PSoC5/CAN_Tx_INT.c ****         /* Clear Form Error flag */
 233:Generated_Source\PSoC5/CAN_Tx_INT.c ****         CAN_Tx_INT_SR_REG.byte[0u] = CAN_Tx_FORM_ERROR_MASK;
 234:Generated_Source\PSoC5/CAN_Tx_INT.c **** 
 235:Generated_Source\PSoC5/CAN_Tx_INT.c ****         /* `#START MESSAGE_ERROR_ISR` */
 236:Generated_Source\PSoC5/CAN_Tx_INT.c **** 
 237:Generated_Source\PSoC5/CAN_Tx_INT.c ****         /* `#END` */
 238:Generated_Source\PSoC5/CAN_Tx_INT.c **** 
 239:Generated_Source\PSoC5/CAN_Tx_INT.c ****         #ifdef CAN_Tx_MSG_ERROR_ISR_CALLBACK
 240:Generated_Source\PSoC5/CAN_Tx_INT.c ****             CAN_Tx_MsgErrorIsr_Callback();
 241:Generated_Source\PSoC5/CAN_Tx_INT.c ****         #endif /* CAN_Tx_MSG_ERROR_ISR_CALLBACK */
 242:Generated_Source\PSoC5/CAN_Tx_INT.c ****     }
 243:Generated_Source\PSoC5/CAN_Tx_INT.c **** #endif /* CAN_Tx_FORM_ERR */
 244:Generated_Source\PSoC5/CAN_Tx_INT.c **** 
 245:Generated_Source\PSoC5/CAN_Tx_INT.c **** 
 246:Generated_Source\PSoC5/CAN_Tx_INT.c **** #if (CAN_Tx_CRC_ERR)
 247:Generated_Source\PSoC5/CAN_Tx_INT.c ****     /*******************************************************************************
 248:Generated_Source\PSoC5/CAN_Tx_INT.c ****     * FUNCTION NAME:   CAN_Tx_CrcErrorIsr
 249:Generated_Source\PSoC5/CAN_Tx_INT.c ****     ********************************************************************************
 250:Generated_Source\PSoC5/CAN_Tx_INT.c ****     *
 251:Generated_Source\PSoC5/CAN_Tx_INT.c ****     * Summary:
 252:Generated_Source\PSoC5/CAN_Tx_INT.c ****     *  This function is entry point to CRC Error Interrupt. Clears CRC Error
 253:Generated_Source\PSoC5/CAN_Tx_INT.c ****     *  interrupt flag. Only generated if CRC Error Interrupt enable in Customizer.
 254:Generated_Source\PSoC5/CAN_Tx_INT.c ****     *
 255:Generated_Source\PSoC5/CAN_Tx_INT.c ****     * Parameters:
 256:Generated_Source\PSoC5/CAN_Tx_INT.c ****     *  None.
 257:Generated_Source\PSoC5/CAN_Tx_INT.c ****     *
 258:Generated_Source\PSoC5/CAN_Tx_INT.c ****     * Return:
ARM GAS  C:\Users\Reza\AppData\Local\Temp\cckPBuH8.s 			page 6


 259:Generated_Source\PSoC5/CAN_Tx_INT.c ****     *  None.
 260:Generated_Source\PSoC5/CAN_Tx_INT.c ****     *
 261:Generated_Source\PSoC5/CAN_Tx_INT.c ****     * Reentrant:
 262:Generated_Source\PSoC5/CAN_Tx_INT.c ****     *  Depends on Customer code.
 263:Generated_Source\PSoC5/CAN_Tx_INT.c ****     *
 264:Generated_Source\PSoC5/CAN_Tx_INT.c ****     *******************************************************************************/
 265:Generated_Source\PSoC5/CAN_Tx_INT.c ****     void CAN_Tx_CrcErrorIsr(void) 
 266:Generated_Source\PSoC5/CAN_Tx_INT.c ****     {
 267:Generated_Source\PSoC5/CAN_Tx_INT.c ****         /* Clear CRC Error flag */
 268:Generated_Source\PSoC5/CAN_Tx_INT.c ****         CAN_Tx_INT_SR_REG.byte[1u] = CAN_Tx_CRC_ERROR_MASK;
 269:Generated_Source\PSoC5/CAN_Tx_INT.c **** 
 270:Generated_Source\PSoC5/CAN_Tx_INT.c ****         /* `#START CRC_ERROR_ISR` */
 271:Generated_Source\PSoC5/CAN_Tx_INT.c **** 
 272:Generated_Source\PSoC5/CAN_Tx_INT.c ****         /* `#END` */
 273:Generated_Source\PSoC5/CAN_Tx_INT.c **** 
 274:Generated_Source\PSoC5/CAN_Tx_INT.c ****         #ifdef CAN_Tx_CRC_ERROR_ISR_CALLBACK
 275:Generated_Source\PSoC5/CAN_Tx_INT.c ****             CAN_Tx_CrcErrorIsr_Callback();
 276:Generated_Source\PSoC5/CAN_Tx_INT.c ****         #endif /* CAN_Tx_CRC_ERROR_ISR_CALLBACK */
 277:Generated_Source\PSoC5/CAN_Tx_INT.c ****     }
 278:Generated_Source\PSoC5/CAN_Tx_INT.c **** #endif /* CAN_Tx_CRC_ERR */
 279:Generated_Source\PSoC5/CAN_Tx_INT.c **** 
 280:Generated_Source\PSoC5/CAN_Tx_INT.c **** 
 281:Generated_Source\PSoC5/CAN_Tx_INT.c **** #if (CAN_Tx_BUS_OFF)
 282:Generated_Source\PSoC5/CAN_Tx_INT.c ****     /*******************************************************************************
 283:Generated_Source\PSoC5/CAN_Tx_INT.c ****     * FUNCTION NAME:   CAN_Tx_BusOffIsr
 284:Generated_Source\PSoC5/CAN_Tx_INT.c ****     ********************************************************************************
 285:Generated_Source\PSoC5/CAN_Tx_INT.c ****     *
 286:Generated_Source\PSoC5/CAN_Tx_INT.c ****     * Summary:
 287:Generated_Source\PSoC5/CAN_Tx_INT.c ****     *  This function is entry point to Bus Off Interrupt. Places CAN Component
 288:Generated_Source\PSoC5/CAN_Tx_INT.c ****     *  to Stop mode. Only generated if Bus Off Interrupt enable in Customizer.
 289:Generated_Source\PSoC5/CAN_Tx_INT.c ****     *  Recommended setting to enable this interrupt.
 290:Generated_Source\PSoC5/CAN_Tx_INT.c ****     *
 291:Generated_Source\PSoC5/CAN_Tx_INT.c ****     * Parameters:
 292:Generated_Source\PSoC5/CAN_Tx_INT.c ****     *  None.
 293:Generated_Source\PSoC5/CAN_Tx_INT.c ****     *
 294:Generated_Source\PSoC5/CAN_Tx_INT.c ****     * Return:
 295:Generated_Source\PSoC5/CAN_Tx_INT.c ****     *  None.
 296:Generated_Source\PSoC5/CAN_Tx_INT.c ****     *
 297:Generated_Source\PSoC5/CAN_Tx_INT.c ****     * Side Effects:
 298:Generated_Source\PSoC5/CAN_Tx_INT.c ****     *  Stops CAN component operation.
 299:Generated_Source\PSoC5/CAN_Tx_INT.c ****     *
 300:Generated_Source\PSoC5/CAN_Tx_INT.c ****     *******************************************************************************/
 301:Generated_Source\PSoC5/CAN_Tx_INT.c ****     void CAN_Tx_BusOffIsr(void) 
 302:Generated_Source\PSoC5/CAN_Tx_INT.c ****     {
  28              		.loc 1 302 0
  29              		.cfi_startproc
  30              		@ args = 0, pretend = 0, frame = 0
  31              		@ frame_needed = 0, uses_anonymous_args = 0
  32 0000 08B5     		push	{r3, lr}
  33              		.cfi_def_cfa_offset 8
  34              		.cfi_offset 3, -8
  35              		.cfi_offset 14, -4
 303:Generated_Source\PSoC5/CAN_Tx_INT.c ****         /* Clear Bus Off flag */
 304:Generated_Source\PSoC5/CAN_Tx_INT.c ****         CAN_Tx_INT_SR_REG.byte[1u] = CAN_Tx_BUS_OFF_MASK;
  36              		.loc 1 304 0
  37 0002 0222     		movs	r2, #2
  38 0004 034B     		ldr	r3, .L3
ARM GAS  C:\Users\Reza\AppData\Local\Temp\cckPBuH8.s 			page 7


  39 0006 5A70     		strb	r2, [r3, #1]
 305:Generated_Source\PSoC5/CAN_Tx_INT.c ****         (void) CAN_Tx_GlobalIntDisable();
  40              		.loc 1 305 0
  41 0008 FFF7FEFF 		bl	CAN_Tx_GlobalIntDisable
  42              	.LVL0:
 306:Generated_Source\PSoC5/CAN_Tx_INT.c **** 
 307:Generated_Source\PSoC5/CAN_Tx_INT.c ****         /* `#START BUS_OFF_ISR` */
 308:Generated_Source\PSoC5/CAN_Tx_INT.c **** 
 309:Generated_Source\PSoC5/CAN_Tx_INT.c ****         /* `#END` */
 310:Generated_Source\PSoC5/CAN_Tx_INT.c **** 
 311:Generated_Source\PSoC5/CAN_Tx_INT.c ****         #ifdef CAN_Tx_BUS_OFF_ISR_CALLBACK
 312:Generated_Source\PSoC5/CAN_Tx_INT.c ****             CAN_Tx_BusOffIsr_Callback();
 313:Generated_Source\PSoC5/CAN_Tx_INT.c ****         #endif /* CAN_Tx_BUS_OFF_ISR_CALLBACK */
 314:Generated_Source\PSoC5/CAN_Tx_INT.c **** 
 315:Generated_Source\PSoC5/CAN_Tx_INT.c ****         (void) CAN_Tx_Stop();
  43              		.loc 1 315 0
  44 000c FFF7FEFF 		bl	CAN_Tx_Stop
  45              	.LVL1:
  46 0010 08BD     		pop	{r3, pc}
  47              	.L4:
  48 0012 00BF     		.align	2
  49              	.L3:
  50 0014 00A00040 		.word	1073782784
  51              		.cfi_endproc
  52              	.LFE68:
  53              		.size	CAN_Tx_BusOffIsr, .-CAN_Tx_BusOffIsr
  54              		.section	.text.CAN_Tx_MsgTXIsr,"ax",%progbits
  55              		.align	2
  56              		.global	CAN_Tx_MsgTXIsr
  57              		.thumb
  58              		.thumb_func
  59              		.type	CAN_Tx_MsgTXIsr, %function
  60              	CAN_Tx_MsgTXIsr:
  61              	.LFB69:
 316:Generated_Source\PSoC5/CAN_Tx_INT.c ****     }
 317:Generated_Source\PSoC5/CAN_Tx_INT.c **** #endif /* CAN_Tx_BUS_OFF */
 318:Generated_Source\PSoC5/CAN_Tx_INT.c **** 
 319:Generated_Source\PSoC5/CAN_Tx_INT.c **** 
 320:Generated_Source\PSoC5/CAN_Tx_INT.c **** #if (CAN_Tx_RX_MSG_LOST)
 321:Generated_Source\PSoC5/CAN_Tx_INT.c ****     /*******************************************************************************
 322:Generated_Source\PSoC5/CAN_Tx_INT.c ****     * FUNCTION NAME:   CAN_Tx_MsgLostIsr
 323:Generated_Source\PSoC5/CAN_Tx_INT.c ****     ********************************************************************************
 324:Generated_Source\PSoC5/CAN_Tx_INT.c ****     *
 325:Generated_Source\PSoC5/CAN_Tx_INT.c ****     * Summary:
 326:Generated_Source\PSoC5/CAN_Tx_INT.c ****     *  This function is entry point to Message Lost Interrupt. Clears Message Lost
 327:Generated_Source\PSoC5/CAN_Tx_INT.c ****     *  interrupt flag. Only generated if Message Lost Interrupt enable in Customizer
 328:Generated_Source\PSoC5/CAN_Tx_INT.c ****     *
 329:Generated_Source\PSoC5/CAN_Tx_INT.c ****     * Parameters:
 330:Generated_Source\PSoC5/CAN_Tx_INT.c ****     *  None.
 331:Generated_Source\PSoC5/CAN_Tx_INT.c ****     *
 332:Generated_Source\PSoC5/CAN_Tx_INT.c ****     * Return:
 333:Generated_Source\PSoC5/CAN_Tx_INT.c ****     *  None.
 334:Generated_Source\PSoC5/CAN_Tx_INT.c ****     *
 335:Generated_Source\PSoC5/CAN_Tx_INT.c ****     * Reentrant:
 336:Generated_Source\PSoC5/CAN_Tx_INT.c ****     *  Depends on Customer code.
 337:Generated_Source\PSoC5/CAN_Tx_INT.c ****     *
 338:Generated_Source\PSoC5/CAN_Tx_INT.c ****     *******************************************************************************/
ARM GAS  C:\Users\Reza\AppData\Local\Temp\cckPBuH8.s 			page 8


 339:Generated_Source\PSoC5/CAN_Tx_INT.c ****     void CAN_Tx_MsgLostIsr(void) 
 340:Generated_Source\PSoC5/CAN_Tx_INT.c ****     {
 341:Generated_Source\PSoC5/CAN_Tx_INT.c ****         /* Clear Receive Message Lost flag */
 342:Generated_Source\PSoC5/CAN_Tx_INT.c ****         CAN_Tx_INT_SR_REG.byte[1u] = CAN_Tx_RX_MSG_LOST_MASK;
 343:Generated_Source\PSoC5/CAN_Tx_INT.c **** 
 344:Generated_Source\PSoC5/CAN_Tx_INT.c ****         /* `#START MESSAGE_LOST_ISR` */
 345:Generated_Source\PSoC5/CAN_Tx_INT.c **** 
 346:Generated_Source\PSoC5/CAN_Tx_INT.c ****         /* `#END` */
 347:Generated_Source\PSoC5/CAN_Tx_INT.c **** 
 348:Generated_Source\PSoC5/CAN_Tx_INT.c ****         #ifdef CAN_Tx_MSG_LOST_ISR_CALLBACK
 349:Generated_Source\PSoC5/CAN_Tx_INT.c ****             CAN_Tx_MsgLostIsr_Callback();
 350:Generated_Source\PSoC5/CAN_Tx_INT.c ****         #endif /* CAN_Tx_MSG_LOST_ISR_CALLBACK */
 351:Generated_Source\PSoC5/CAN_Tx_INT.c ****     }
 352:Generated_Source\PSoC5/CAN_Tx_INT.c **** #endif /* CAN_Tx_RX_MSG_LOST */
 353:Generated_Source\PSoC5/CAN_Tx_INT.c **** 
 354:Generated_Source\PSoC5/CAN_Tx_INT.c **** 
 355:Generated_Source\PSoC5/CAN_Tx_INT.c **** #if (CAN_Tx_TX_MESSAGE)
 356:Generated_Source\PSoC5/CAN_Tx_INT.c ****     /*******************************************************************************
 357:Generated_Source\PSoC5/CAN_Tx_INT.c ****     * FUNCTION NAME:   CAN_Tx_MsgTXIsr
 358:Generated_Source\PSoC5/CAN_Tx_INT.c ****     ********************************************************************************
 359:Generated_Source\PSoC5/CAN_Tx_INT.c ****     *
 360:Generated_Source\PSoC5/CAN_Tx_INT.c ****     * Summary:
 361:Generated_Source\PSoC5/CAN_Tx_INT.c ****     *  This function is entry point to Transmit Message Interrupt. Clears Transmit
 362:Generated_Source\PSoC5/CAN_Tx_INT.c ****     *  Message interrupt flag. Only generated if Transmit Message Interrupt enable
 363:Generated_Source\PSoC5/CAN_Tx_INT.c ****     *  in Customizer.
 364:Generated_Source\PSoC5/CAN_Tx_INT.c ****     *
 365:Generated_Source\PSoC5/CAN_Tx_INT.c ****     * Parameters:
 366:Generated_Source\PSoC5/CAN_Tx_INT.c ****     *  None.
 367:Generated_Source\PSoC5/CAN_Tx_INT.c ****     *
 368:Generated_Source\PSoC5/CAN_Tx_INT.c ****     * Return:
 369:Generated_Source\PSoC5/CAN_Tx_INT.c ****     *  None.
 370:Generated_Source\PSoC5/CAN_Tx_INT.c ****     *
 371:Generated_Source\PSoC5/CAN_Tx_INT.c ****     * Reentrant:
 372:Generated_Source\PSoC5/CAN_Tx_INT.c ****     *  Depends on Customer code.
 373:Generated_Source\PSoC5/CAN_Tx_INT.c ****     *
 374:Generated_Source\PSoC5/CAN_Tx_INT.c ****     *******************************************************************************/
 375:Generated_Source\PSoC5/CAN_Tx_INT.c ****     void CAN_Tx_MsgTXIsr(void) 
 376:Generated_Source\PSoC5/CAN_Tx_INT.c ****     {
  62              		.loc 1 376 0
  63              		.cfi_startproc
  64              		@ args = 0, pretend = 0, frame = 0
  65              		@ frame_needed = 0, uses_anonymous_args = 0
  66              		@ link register save eliminated.
 377:Generated_Source\PSoC5/CAN_Tx_INT.c ****         /* Clear Transmit Message flag */
 378:Generated_Source\PSoC5/CAN_Tx_INT.c ****         CAN_Tx_INT_SR_REG.byte[1u] = CAN_Tx_TX_MESSAGE_MASK;
  67              		.loc 1 378 0
  68 0000 0822     		movs	r2, #8
  69 0002 014B     		ldr	r3, .L6
  70 0004 5A70     		strb	r2, [r3, #1]
  71 0006 7047     		bx	lr
  72              	.L7:
  73              		.align	2
  74              	.L6:
  75 0008 00A00040 		.word	1073782784
  76              		.cfi_endproc
  77              	.LFE69:
  78              		.size	CAN_Tx_MsgTXIsr, .-CAN_Tx_MsgTXIsr
ARM GAS  C:\Users\Reza\AppData\Local\Temp\cckPBuH8.s 			page 9


  79              		.section	.text.CAN_Tx_MsgRXIsr,"ax",%progbits
  80              		.align	2
  81              		.global	CAN_Tx_MsgRXIsr
  82              		.thumb
  83              		.thumb_func
  84              		.type	CAN_Tx_MsgRXIsr, %function
  85              	CAN_Tx_MsgRXIsr:
  86              	.LFB70:
 379:Generated_Source\PSoC5/CAN_Tx_INT.c **** 
 380:Generated_Source\PSoC5/CAN_Tx_INT.c ****         /* `#START MESSAGE_TRANSMITTED_ISR` */
 381:Generated_Source\PSoC5/CAN_Tx_INT.c **** 
 382:Generated_Source\PSoC5/CAN_Tx_INT.c ****         /* `#END` */
 383:Generated_Source\PSoC5/CAN_Tx_INT.c **** 
 384:Generated_Source\PSoC5/CAN_Tx_INT.c ****         #ifdef CAN_Tx_MSG_TX_ISR_CALLBACK
 385:Generated_Source\PSoC5/CAN_Tx_INT.c ****             CAN_Tx_MsgTXIsr_Callback();
 386:Generated_Source\PSoC5/CAN_Tx_INT.c ****         #endif /* CAN_Tx_MSG_TX_ISR_CALLBACK */
 387:Generated_Source\PSoC5/CAN_Tx_INT.c ****     }
 388:Generated_Source\PSoC5/CAN_Tx_INT.c **** #endif /* CAN_Tx_TX_MESSAGE */
 389:Generated_Source\PSoC5/CAN_Tx_INT.c **** 
 390:Generated_Source\PSoC5/CAN_Tx_INT.c **** 
 391:Generated_Source\PSoC5/CAN_Tx_INT.c **** #if (CAN_Tx_RX_MESSAGE)
 392:Generated_Source\PSoC5/CAN_Tx_INT.c ****     /*******************************************************************************
 393:Generated_Source\PSoC5/CAN_Tx_INT.c ****     * FUNCTION NAME:   CAN_Tx_MsgRXIsr
 394:Generated_Source\PSoC5/CAN_Tx_INT.c ****     ********************************************************************************
 395:Generated_Source\PSoC5/CAN_Tx_INT.c ****     *
 396:Generated_Source\PSoC5/CAN_Tx_INT.c ****     * Summary:
 397:Generated_Source\PSoC5/CAN_Tx_INT.c ****     *  This function is entry point to Receive Message Interrupt. Clears Receive
 398:Generated_Source\PSoC5/CAN_Tx_INT.c ****     *  Message interrupt flag and call appropriate handlers for Basic and Full
 399:Generated_Source\PSoC5/CAN_Tx_INT.c ****     *  interrupt based mailboxes. Only generated if Receive Message Interrupt
 400:Generated_Source\PSoC5/CAN_Tx_INT.c ****     *  enable in Customizer. Recommended setting to enable this interrupt.
 401:Generated_Source\PSoC5/CAN_Tx_INT.c ****     *
 402:Generated_Source\PSoC5/CAN_Tx_INT.c ****     * Parameters:
 403:Generated_Source\PSoC5/CAN_Tx_INT.c ****     *  None.
 404:Generated_Source\PSoC5/CAN_Tx_INT.c ****     *
 405:Generated_Source\PSoC5/CAN_Tx_INT.c ****     * Return:
 406:Generated_Source\PSoC5/CAN_Tx_INT.c ****     *  None.
 407:Generated_Source\PSoC5/CAN_Tx_INT.c ****     *
 408:Generated_Source\PSoC5/CAN_Tx_INT.c ****     *******************************************************************************/
 409:Generated_Source\PSoC5/CAN_Tx_INT.c ****     void CAN_Tx_MsgRXIsr(void) 
 410:Generated_Source\PSoC5/CAN_Tx_INT.c ****     {
  87              		.loc 1 410 0
  88              		.cfi_startproc
  89              		@ args = 0, pretend = 0, frame = 0
  90              		@ frame_needed = 0, uses_anonymous_args = 0
  91 0000 38B5     		push	{r3, r4, r5, lr}
  92              		.cfi_def_cfa_offset 16
  93              		.cfi_offset 3, -16
  94              		.cfi_offset 4, -12
  95              		.cfi_offset 5, -8
  96              		.cfi_offset 14, -4
  97              	.LVL2:
 411:Generated_Source\PSoC5/CAN_Tx_INT.c ****         uint8 mailboxNumber;
 412:Generated_Source\PSoC5/CAN_Tx_INT.c ****         uint16 shift = 0x01u;
 413:Generated_Source\PSoC5/CAN_Tx_INT.c **** 
 414:Generated_Source\PSoC5/CAN_Tx_INT.c ****         /* Clear Receive Message flag */
 415:Generated_Source\PSoC5/CAN_Tx_INT.c ****         CAN_Tx_INT_SR_REG.byte[1u] = CAN_Tx_RX_MESSAGE_MASK;
  98              		.loc 1 415 0
ARM GAS  C:\Users\Reza\AppData\Local\Temp\cckPBuH8.s 			page 10


  99 0002 1022     		movs	r2, #16
 100 0004 124B     		ldr	r3, .L16
 101 0006 5A70     		strb	r2, [r3, #1]
 102              	.LVL3:
 412:Generated_Source\PSoC5/CAN_Tx_INT.c **** 
 103              		.loc 1 412 0
 104 0008 0125     		movs	r5, #1
 416:Generated_Source\PSoC5/CAN_Tx_INT.c **** 
 417:Generated_Source\PSoC5/CAN_Tx_INT.c ****         /* `#START MESSAGE_RECEIVE_ISR` */
 418:Generated_Source\PSoC5/CAN_Tx_INT.c **** 
 419:Generated_Source\PSoC5/CAN_Tx_INT.c ****         /* `#END` */
 420:Generated_Source\PSoC5/CAN_Tx_INT.c **** 
 421:Generated_Source\PSoC5/CAN_Tx_INT.c ****         #ifdef CAN_Tx_MSG_RX_ISR_CALLBACK
 422:Generated_Source\PSoC5/CAN_Tx_INT.c ****             CAN_Tx_MsgRXIsr_Callback();
 423:Generated_Source\PSoC5/CAN_Tx_INT.c ****         #endif /* CAN_Tx_MSG_RX_ISR_CALLBACK */
 424:Generated_Source\PSoC5/CAN_Tx_INT.c **** 
 425:Generated_Source\PSoC5/CAN_Tx_INT.c ****         for (mailboxNumber = 0u; mailboxNumber < CAN_Tx_NUMBER_OF_RX_MAILBOXES; mailboxNumber++)
 105              		.loc 1 425 0
 106 000a 0024     		movs	r4, #0
 107 000c 1DE0     		b	.L9
 108              	.LVL4:
 109              	.L14:
 426:Generated_Source\PSoC5/CAN_Tx_INT.c ****         {
 427:Generated_Source\PSoC5/CAN_Tx_INT.c ****             if ((CY_GET_REG16((reg16 *) &CAN_Tx_BUF_SR_REG.byte[0u]) & shift) != 0u)
 110              		.loc 1 427 0
 111 000e 114B     		ldr	r3, .L16+4
 112 0010 1B88     		ldrh	r3, [r3]
 113 0012 1D42     		tst	r5, r3
 114 0014 15D0     		beq	.L10
 428:Generated_Source\PSoC5/CAN_Tx_INT.c ****             {
 429:Generated_Source\PSoC5/CAN_Tx_INT.c ****                 if ((CAN_Tx_RX[mailboxNumber].rxcmd.byte[0u] & CAN_Tx_RX_INT_ENABLE_MASK) != 0u)
 115              		.loc 1 429 0
 116 0016 6301     		lsls	r3, r4, #5
 117 0018 0F4A     		ldr	r2, .L16+8
 118 001a 9B5C     		ldrb	r3, [r3, r2]	@ zero_extendqisi2
 119 001c 13F0200F 		tst	r3, #32
 120 0020 0FD0     		beq	.L10
 430:Generated_Source\PSoC5/CAN_Tx_INT.c ****                 {
 431:Generated_Source\PSoC5/CAN_Tx_INT.c ****                     if ((CAN_Tx_RX_MAILBOX_TYPE & shift) != 0u)
 121              		.loc 1 431 0
 122 0022 15F0030F 		tst	r5, #3
 123 0026 09D0     		beq	.L11
 432:Generated_Source\PSoC5/CAN_Tx_INT.c ****                     {
 433:Generated_Source\PSoC5/CAN_Tx_INT.c ****                         /* RX Full mailboxes handler */
 434:Generated_Source\PSoC5/CAN_Tx_INT.c ****                         switch(mailboxNumber)
 124              		.loc 1 434 0
 125 0028 14B1     		cbz	r4, .L12
 126 002a 012C     		cmp	r4, #1
 127 002c 03D0     		beq	.L13
 128 002e 08E0     		b	.L10
 129              	.L12:
 435:Generated_Source\PSoC5/CAN_Tx_INT.c ****                         {
 436:Generated_Source\PSoC5/CAN_Tx_INT.c ****                             case 0u : CAN_Tx_ReceiveMsg0();
 130              		.loc 1 436 0
 131 0030 FFF7FEFF 		bl	CAN_Tx_ReceiveMsg0
 132              	.LVL5:
 437:Generated_Source\PSoC5/CAN_Tx_INT.c ****                             break;
ARM GAS  C:\Users\Reza\AppData\Local\Temp\cckPBuH8.s 			page 11


 133              		.loc 1 437 0
 134 0034 05E0     		b	.L10
 135              	.L13:
 438:Generated_Source\PSoC5/CAN_Tx_INT.c ****                             case 1u : CAN_Tx_ReceiveMsgRx_message();
 136              		.loc 1 438 0
 137 0036 FFF7FEFF 		bl	CAN_Tx_ReceiveMsgRx_message
 138              	.LVL6:
 439:Generated_Source\PSoC5/CAN_Tx_INT.c ****                             break;
 139              		.loc 1 439 0
 140 003a 02E0     		b	.L10
 141              	.L11:
 440:Generated_Source\PSoC5/CAN_Tx_INT.c ****                             default:
 441:Generated_Source\PSoC5/CAN_Tx_INT.c ****                             break;
 442:Generated_Source\PSoC5/CAN_Tx_INT.c ****                         }
 443:Generated_Source\PSoC5/CAN_Tx_INT.c ****                     }
 444:Generated_Source\PSoC5/CAN_Tx_INT.c ****                     else
 445:Generated_Source\PSoC5/CAN_Tx_INT.c ****                     {
 446:Generated_Source\PSoC5/CAN_Tx_INT.c ****                         /* RX Basic mailbox handler */
 447:Generated_Source\PSoC5/CAN_Tx_INT.c ****                         CAN_Tx_ReceiveMsg(mailboxNumber);
 142              		.loc 1 447 0
 143 003c 2046     		mov	r0, r4
 144 003e FFF7FEFF 		bl	CAN_Tx_ReceiveMsg
 145              	.LVL7:
 146              	.L10:
 448:Generated_Source\PSoC5/CAN_Tx_INT.c ****                     }
 449:Generated_Source\PSoC5/CAN_Tx_INT.c ****                 }
 450:Generated_Source\PSoC5/CAN_Tx_INT.c ****             }
 451:Generated_Source\PSoC5/CAN_Tx_INT.c ****             shift <<= 1u;
 147              		.loc 1 451 0 discriminator 2
 148 0042 6D00     		lsls	r5, r5, #1
 149              	.LVL8:
 150 0044 ADB2     		uxth	r5, r5
 151              	.LVL9:
 425:Generated_Source\PSoC5/CAN_Tx_INT.c ****         {
 152              		.loc 1 425 0 discriminator 2
 153 0046 0134     		adds	r4, r4, #1
 154              	.LVL10:
 155 0048 E4B2     		uxtb	r4, r4
 156              	.LVL11:
 157              	.L9:
 425:Generated_Source\PSoC5/CAN_Tx_INT.c ****         {
 158              		.loc 1 425 0 is_stmt 0 discriminator 1
 159 004a 0F2C     		cmp	r4, #15
 160 004c DFD9     		bls	.L14
 452:Generated_Source\PSoC5/CAN_Tx_INT.c ****         }
 453:Generated_Source\PSoC5/CAN_Tx_INT.c ****     }
 161              		.loc 1 453 0 is_stmt 1
 162 004e 38BD     		pop	{r3, r4, r5, pc}
 163              	.LVL12:
 164              	.L17:
 165              		.align	2
 166              	.L16:
 167 0050 00A00040 		.word	1073782784
 168 0054 08A00040 		.word	1073782792
 169 0058 A0A00040 		.word	1073782944
 170              		.cfi_endproc
 171              	.LFE70:
ARM GAS  C:\Users\Reza\AppData\Local\Temp\cckPBuH8.s 			page 12


 172              		.size	CAN_Tx_MsgRXIsr, .-CAN_Tx_MsgRXIsr
 173              		.section	.text.CAN_Tx_ISR,"ax",%progbits
 174              		.align	2
 175              		.global	CAN_Tx_ISR
 176              		.thumb
 177              		.thumb_func
 178              		.type	CAN_Tx_ISR, %function
 179              	CAN_Tx_ISR:
 180              	.LFB71:
 454:Generated_Source\PSoC5/CAN_Tx_INT.c **** #endif /* CAN_Tx_RX_MESSAGE */
 455:Generated_Source\PSoC5/CAN_Tx_INT.c **** 
 456:Generated_Source\PSoC5/CAN_Tx_INT.c **** 
 457:Generated_Source\PSoC5/CAN_Tx_INT.c **** /*******************************************************************************
 458:Generated_Source\PSoC5/CAN_Tx_INT.c **** * Function Name: CAN_Tx_ISR
 459:Generated_Source\PSoC5/CAN_Tx_INT.c **** ********************************************************************************
 460:Generated_Source\PSoC5/CAN_Tx_INT.c **** *
 461:Generated_Source\PSoC5/CAN_Tx_INT.c **** * Summary:
 462:Generated_Source\PSoC5/CAN_Tx_INT.c **** *  This ISR is executed when CAN Core generates and interrupt on one of events:
 463:Generated_Source\PSoC5/CAN_Tx_INT.c **** *  Arb_lost, Overload, Bit_err, Stuff_err, Ack_err, Form_err, Crc_err,
 464:Generated_Source\PSoC5/CAN_Tx_INT.c **** *  Buss_off, Rx_msg_lost, Tx_msg or Rx_msg. The interrupt sources depends
 465:Generated_Source\PSoC5/CAN_Tx_INT.c **** *  on the Customizer inputs.
 466:Generated_Source\PSoC5/CAN_Tx_INT.c **** *
 467:Generated_Source\PSoC5/CAN_Tx_INT.c **** * Parameters:
 468:Generated_Source\PSoC5/CAN_Tx_INT.c **** *  None.
 469:Generated_Source\PSoC5/CAN_Tx_INT.c **** *
 470:Generated_Source\PSoC5/CAN_Tx_INT.c **** * Return:
 471:Generated_Source\PSoC5/CAN_Tx_INT.c **** *  None.
 472:Generated_Source\PSoC5/CAN_Tx_INT.c **** *
 473:Generated_Source\PSoC5/CAN_Tx_INT.c **** *******************************************************************************/
 474:Generated_Source\PSoC5/CAN_Tx_INT.c **** CY_ISR(CAN_Tx_ISR)
 475:Generated_Source\PSoC5/CAN_Tx_INT.c **** {
 181              		.loc 1 475 0
 182              		.cfi_startproc
 183              		@ args = 0, pretend = 0, frame = 0
 184              		@ frame_needed = 0, uses_anonymous_args = 0
 185 0000 08B5     		push	{r3, lr}
 186              		.cfi_def_cfa_offset 8
 187              		.cfi_offset 3, -8
 188              		.cfi_offset 14, -4
 476:Generated_Source\PSoC5/CAN_Tx_INT.c ****     #ifdef CAN_Tx_ISR_INTERRUPT_CALLBACK
 477:Generated_Source\PSoC5/CAN_Tx_INT.c ****         CAN_Tx_ISR_InterruptCallback();
 478:Generated_Source\PSoC5/CAN_Tx_INT.c ****     #endif /* CAN_Tx_ISR_INTERRUPT_CALLBACK */
 479:Generated_Source\PSoC5/CAN_Tx_INT.c ****     
 480:Generated_Source\PSoC5/CAN_Tx_INT.c ****     /* Place your Interrupt code here. */
 481:Generated_Source\PSoC5/CAN_Tx_INT.c ****     /* `#START CAN_ISR` */
 482:Generated_Source\PSoC5/CAN_Tx_INT.c ****     
 483:Generated_Source\PSoC5/CAN_Tx_INT.c **** 
 484:Generated_Source\PSoC5/CAN_Tx_INT.c ****     /* `#END` */
 485:Generated_Source\PSoC5/CAN_Tx_INT.c ****     
 486:Generated_Source\PSoC5/CAN_Tx_INT.c ****     /* Arbitration */
 487:Generated_Source\PSoC5/CAN_Tx_INT.c ****     #if (CAN_Tx_ARB_LOST && (CAN_Tx_ARB_LOST_USE_HELPER || \
 488:Generated_Source\PSoC5/CAN_Tx_INT.c ****         (!CAN_Tx_ADVANCED_INTERRUPT_CFG)))
 489:Generated_Source\PSoC5/CAN_Tx_INT.c ****         if ((CAN_Tx_INT_SR_REG.byte[0u] & CAN_Tx_ARBITRATION_LOST_MASK) != 0u)
 490:Generated_Source\PSoC5/CAN_Tx_INT.c ****         {
 491:Generated_Source\PSoC5/CAN_Tx_INT.c ****             CAN_Tx_ArbLostIsr();
 492:Generated_Source\PSoC5/CAN_Tx_INT.c ****         }
 493:Generated_Source\PSoC5/CAN_Tx_INT.c ****     #endif /* CAN_Tx_ARB_LOST && CAN_Tx_ARB_LOST_USE_HELPER */
ARM GAS  C:\Users\Reza\AppData\Local\Temp\cckPBuH8.s 			page 13


 494:Generated_Source\PSoC5/CAN_Tx_INT.c **** 
 495:Generated_Source\PSoC5/CAN_Tx_INT.c ****     /* Overload Error */
 496:Generated_Source\PSoC5/CAN_Tx_INT.c ****     #if (CAN_Tx_OVERLOAD && (CAN_Tx_OVERLOAD_USE_HELPER || \
 497:Generated_Source\PSoC5/CAN_Tx_INT.c ****         (!CAN_Tx_ADVANCED_INTERRUPT_CFG)))
 498:Generated_Source\PSoC5/CAN_Tx_INT.c ****         if ((CAN_Tx_INT_SR_REG.byte[0u] & CAN_Tx_OVERLOAD_ERROR_MASK) != 0u)
 499:Generated_Source\PSoC5/CAN_Tx_INT.c ****         {
 500:Generated_Source\PSoC5/CAN_Tx_INT.c ****             CAN_Tx_OvrLdErrorIsr();
 501:Generated_Source\PSoC5/CAN_Tx_INT.c ****         }
 502:Generated_Source\PSoC5/CAN_Tx_INT.c ****     #endif /* CAN_Tx_OVERLOAD && CAN_Tx_OVERLOAD_USE_HELPER */
 503:Generated_Source\PSoC5/CAN_Tx_INT.c **** 
 504:Generated_Source\PSoC5/CAN_Tx_INT.c ****     /* Bit Error */
 505:Generated_Source\PSoC5/CAN_Tx_INT.c ****     #if (CAN_Tx_BIT_ERR && (CAN_Tx_BIT_ERR_USE_HELPER || \
 506:Generated_Source\PSoC5/CAN_Tx_INT.c ****         (!CAN_Tx_ADVANCED_INTERRUPT_CFG)))
 507:Generated_Source\PSoC5/CAN_Tx_INT.c ****         if ((CAN_Tx_INT_SR_REG.byte[0u] & CAN_Tx_BIT_ERROR_MASK) != 0u)
 508:Generated_Source\PSoC5/CAN_Tx_INT.c ****         {
 509:Generated_Source\PSoC5/CAN_Tx_INT.c ****             CAN_Tx_BitErrorIsr();
 510:Generated_Source\PSoC5/CAN_Tx_INT.c ****         }
 511:Generated_Source\PSoC5/CAN_Tx_INT.c ****     #endif /* CAN_Tx_BIT_ERR && CAN_Tx_BIT_ERR_USE_HELPER */
 512:Generated_Source\PSoC5/CAN_Tx_INT.c **** 
 513:Generated_Source\PSoC5/CAN_Tx_INT.c ****     /* Bit Staff Error */
 514:Generated_Source\PSoC5/CAN_Tx_INT.c ****     #if (CAN_Tx_STUFF_ERR && (CAN_Tx_STUFF_ERR_USE_HELPER || \
 515:Generated_Source\PSoC5/CAN_Tx_INT.c ****         (!CAN_Tx_ADVANCED_INTERRUPT_CFG)))
 516:Generated_Source\PSoC5/CAN_Tx_INT.c ****         if ((CAN_Tx_INT_SR_REG.byte[0u] & CAN_Tx_STUFF_ERROR_MASK) != 0u)
 517:Generated_Source\PSoC5/CAN_Tx_INT.c ****         {
 518:Generated_Source\PSoC5/CAN_Tx_INT.c ****             CAN_Tx_BitStuffErrorIsr();
 519:Generated_Source\PSoC5/CAN_Tx_INT.c ****         }
 520:Generated_Source\PSoC5/CAN_Tx_INT.c ****     #endif /* CAN_Tx_STUFF_ERR && CAN_Tx_STUFF_ERR_USE_HELPER */
 521:Generated_Source\PSoC5/CAN_Tx_INT.c **** 
 522:Generated_Source\PSoC5/CAN_Tx_INT.c ****     /* ACK Error */
 523:Generated_Source\PSoC5/CAN_Tx_INT.c ****     #if (CAN_Tx_ACK_ERR && (CAN_Tx_ACK_ERR_USE_HELPER || \
 524:Generated_Source\PSoC5/CAN_Tx_INT.c ****         (!CAN_Tx_ADVANCED_INTERRUPT_CFG)))
 525:Generated_Source\PSoC5/CAN_Tx_INT.c ****         if ((CAN_Tx_INT_SR_REG.byte[0u] & CAN_Tx_ACK_ERROR_MASK) != 0u)
 526:Generated_Source\PSoC5/CAN_Tx_INT.c ****         {
 527:Generated_Source\PSoC5/CAN_Tx_INT.c ****             CAN_Tx_AckErrorIsr();
 528:Generated_Source\PSoC5/CAN_Tx_INT.c ****         }
 529:Generated_Source\PSoC5/CAN_Tx_INT.c ****     #endif /* CAN_Tx_ACK_ERR && CAN_Tx_ACK_ERR_USE_HELPER */
 530:Generated_Source\PSoC5/CAN_Tx_INT.c **** 
 531:Generated_Source\PSoC5/CAN_Tx_INT.c ****     /* Form(msg) Error */
 532:Generated_Source\PSoC5/CAN_Tx_INT.c ****     #if (CAN_Tx_FORM_ERR && (CAN_Tx_FORM_ERR_USE_HELPER || \
 533:Generated_Source\PSoC5/CAN_Tx_INT.c ****         (!CAN_Tx_ADVANCED_INTERRUPT_CFG)))
 534:Generated_Source\PSoC5/CAN_Tx_INT.c ****         if ((CAN_Tx_INT_SR_REG.byte[0u] & CAN_Tx_FORM_ERROR_MASK) != 0u)
 535:Generated_Source\PSoC5/CAN_Tx_INT.c ****         {
 536:Generated_Source\PSoC5/CAN_Tx_INT.c ****             CAN_Tx_MsgErrorIsr();
 537:Generated_Source\PSoC5/CAN_Tx_INT.c ****         }
 538:Generated_Source\PSoC5/CAN_Tx_INT.c ****     #endif /* CAN_Tx_FORM_ERR && CAN_Tx_FORM_ERR_USE_HELPER */
 539:Generated_Source\PSoC5/CAN_Tx_INT.c **** 
 540:Generated_Source\PSoC5/CAN_Tx_INT.c ****     /* CRC Error */
 541:Generated_Source\PSoC5/CAN_Tx_INT.c ****     #if (CAN_Tx_CRC_ERR && (CAN_Tx_CRC_ERR_USE_HELPER || \
 542:Generated_Source\PSoC5/CAN_Tx_INT.c ****         (!CAN_Tx_ADVANCED_INTERRUPT_CFG)))
 543:Generated_Source\PSoC5/CAN_Tx_INT.c ****         if ((CAN_Tx_INT_SR_REG.byte[1u] & CAN_Tx_CRC_ERROR_MASK) != 0u)
 544:Generated_Source\PSoC5/CAN_Tx_INT.c ****         {
 545:Generated_Source\PSoC5/CAN_Tx_INT.c ****             CAN_Tx_CrcErrorIsr();
 546:Generated_Source\PSoC5/CAN_Tx_INT.c ****         }
 547:Generated_Source\PSoC5/CAN_Tx_INT.c ****     #endif /* CAN_Tx_CRC_ERR && CAN_Tx_CRC_ERR_USE_HELPER */
 548:Generated_Source\PSoC5/CAN_Tx_INT.c **** 
 549:Generated_Source\PSoC5/CAN_Tx_INT.c ****     /* Bus Off state */
 550:Generated_Source\PSoC5/CAN_Tx_INT.c ****     #if (CAN_Tx_BUS_OFF && (CAN_Tx_BUS_OFF_USE_HELPER || \
ARM GAS  C:\Users\Reza\AppData\Local\Temp\cckPBuH8.s 			page 14


 551:Generated_Source\PSoC5/CAN_Tx_INT.c ****         (!CAN_Tx_ADVANCED_INTERRUPT_CFG)))
 552:Generated_Source\PSoC5/CAN_Tx_INT.c ****         if ((CAN_Tx_INT_SR_REG.byte[1u] & CAN_Tx_BUS_OFF_MASK) != 0u)
 189              		.loc 1 552 0
 190 0002 0B4B     		ldr	r3, .L23
 191 0004 5B78     		ldrb	r3, [r3, #1]	@ zero_extendqisi2
 192 0006 13F0020F 		tst	r3, #2
 193 000a 01D0     		beq	.L19
 553:Generated_Source\PSoC5/CAN_Tx_INT.c ****         {
 554:Generated_Source\PSoC5/CAN_Tx_INT.c ****             CAN_Tx_BusOffIsr();
 194              		.loc 1 554 0
 195 000c FFF7FEFF 		bl	CAN_Tx_BusOffIsr
 196              	.LVL13:
 197              	.L19:
 555:Generated_Source\PSoC5/CAN_Tx_INT.c ****         }
 556:Generated_Source\PSoC5/CAN_Tx_INT.c ****     #endif /* CAN_Tx_BUS_OFF && CAN_Tx_BUS_OFF_USE_HELPER */
 557:Generated_Source\PSoC5/CAN_Tx_INT.c **** 
 558:Generated_Source\PSoC5/CAN_Tx_INT.c ****     /* Message Lost */
 559:Generated_Source\PSoC5/CAN_Tx_INT.c ****     #if (CAN_Tx_RX_MSG_LOST && (CAN_Tx_RX_MSG_LOST_USE_HELPER || \
 560:Generated_Source\PSoC5/CAN_Tx_INT.c ****         (!CAN_Tx_ADVANCED_INTERRUPT_CFG)))
 561:Generated_Source\PSoC5/CAN_Tx_INT.c ****         if ((CAN_Tx_INT_SR_REG.byte[1u] & CAN_Tx_RX_MSG_LOST_MASK) != 0u)
 562:Generated_Source\PSoC5/CAN_Tx_INT.c ****         {
 563:Generated_Source\PSoC5/CAN_Tx_INT.c ****             CAN_Tx_MsgLostIsr();
 564:Generated_Source\PSoC5/CAN_Tx_INT.c ****         }
 565:Generated_Source\PSoC5/CAN_Tx_INT.c ****     #endif /* CAN_Tx_RX_MSG_LOST && CAN_Tx_RX_MSG_LOST_USE_HELPER */
 566:Generated_Source\PSoC5/CAN_Tx_INT.c **** 
 567:Generated_Source\PSoC5/CAN_Tx_INT.c ****     /* TX Message Send */
 568:Generated_Source\PSoC5/CAN_Tx_INT.c ****     #if (CAN_Tx_TX_MESSAGE && (CAN_Tx_TX_MESSAGE_USE_HELPER || \
 569:Generated_Source\PSoC5/CAN_Tx_INT.c ****         (!CAN_Tx_ADVANCED_INTERRUPT_CFG)))
 570:Generated_Source\PSoC5/CAN_Tx_INT.c ****         if ((CAN_Tx_INT_SR_REG.byte[1u] & CAN_Tx_TX_MESSAGE_MASK) != 0u)
 198              		.loc 1 570 0
 199 0010 074B     		ldr	r3, .L23
 200 0012 5B78     		ldrb	r3, [r3, #1]	@ zero_extendqisi2
 201 0014 13F0080F 		tst	r3, #8
 202 0018 01D0     		beq	.L20
 571:Generated_Source\PSoC5/CAN_Tx_INT.c ****         {
 572:Generated_Source\PSoC5/CAN_Tx_INT.c ****             CAN_Tx_MsgTXIsr();
 203              		.loc 1 572 0
 204 001a FFF7FEFF 		bl	CAN_Tx_MsgTXIsr
 205              	.LVL14:
 206              	.L20:
 573:Generated_Source\PSoC5/CAN_Tx_INT.c ****         }
 574:Generated_Source\PSoC5/CAN_Tx_INT.c ****     #endif /* CAN_Tx_TX_MESSAGE && CAN_Tx_TX_MESSAGE_USE_HELPER */
 575:Generated_Source\PSoC5/CAN_Tx_INT.c **** 
 576:Generated_Source\PSoC5/CAN_Tx_INT.c ****     /* RX Message Available */
 577:Generated_Source\PSoC5/CAN_Tx_INT.c ****     #if (CAN_Tx_RX_MESSAGE && (CAN_Tx_RX_MESSAGE_USE_HELPER || \
 578:Generated_Source\PSoC5/CAN_Tx_INT.c ****         (!CAN_Tx_ADVANCED_INTERRUPT_CFG)))
 579:Generated_Source\PSoC5/CAN_Tx_INT.c ****         if ((CAN_Tx_INT_SR_REG.byte[1u] & CAN_Tx_RX_MESSAGE_MASK) != 0u)
 207              		.loc 1 579 0
 208 001e 044B     		ldr	r3, .L23
 209 0020 5B78     		ldrb	r3, [r3, #1]	@ zero_extendqisi2
 210 0022 13F0100F 		tst	r3, #16
 211 0026 01D0     		beq	.L18
 580:Generated_Source\PSoC5/CAN_Tx_INT.c ****         {
 581:Generated_Source\PSoC5/CAN_Tx_INT.c ****             CAN_Tx_MsgRXIsr();
 212              		.loc 1 581 0
 213 0028 FFF7FEFF 		bl	CAN_Tx_MsgRXIsr
 214              	.LVL15:
ARM GAS  C:\Users\Reza\AppData\Local\Temp\cckPBuH8.s 			page 15


 215              	.L18:
 216 002c 08BD     		pop	{r3, pc}
 217              	.L24:
 218 002e 00BF     		.align	2
 219              	.L23:
 220 0030 00A00040 		.word	1073782784
 221              		.cfi_endproc
 222              	.LFE71:
 223              		.size	CAN_Tx_ISR, .-CAN_Tx_ISR
 224              		.text
 225              	.Letext0:
 226              		.file 2 "c:\\program files (x86)\\cypress\\psoc creator\\4.2\\psoc creator\\import\\gnu\\arm\\5.4.
 227              		.file 3 "c:\\program files (x86)\\cypress\\psoc creator\\4.2\\psoc creator\\import\\gnu\\arm\\5.4.
 228              		.file 4 "Generated_Source\\PSoC5\\cytypes.h"
 229              		.file 5 "Generated_Source\\PSoC5\\CAN_Tx.h"
 230              		.file 6 "Generated_Source\\PSoC5/core_cm3.h"