ARM GAS  C:\Users\Reza\AppData\Local\Temp\ccXaA36W.s 			page 1


   1              		.syntax unified
   2              		.cpu cortex-m3
   3              		.fpu softvfp
   4              		.eabi_attribute 20, 1
   5              		.eabi_attribute 21, 1
   6              		.eabi_attribute 23, 3
   7              		.eabi_attribute 24, 1
   8              		.eabi_attribute 25, 1
   9              		.eabi_attribute 26, 1
  10              		.eabi_attribute 30, 1
  11              		.eabi_attribute 34, 1
  12              		.eabi_attribute 18, 4
  13              		.thumb
  14              		.syntax unified
  15              		.file	"ugui_st7735.c"
  16              		.text
  17              	.Ltext0:
  18              		.cfi_sections	.debug_frame
  19              		.section	.text.Display_Reset,"ax",%progbits
  20              		.align	2
  21              		.global	Display_Reset
  22              		.thumb
  23              		.thumb_func
  24              		.type	Display_Reset, %function
  25              	Display_Reset:
  26              	.LFB64:
  27              		.file 1 "Source\\bsw\\LCD_Driver\\ugui_st7735.c"
   1:Source\bsw\LCD_Driver/ugui_st7735.c **** /*******************************************************************************
   2:Source\bsw\LCD_Driver/ugui_st7735.c **** * File Name: ugui_st7735.c
   3:Source\bsw\LCD_Driver/ugui_st7735.c **** *
   4:Source\bsw\LCD_Driver/ugui_st7735.c **** * Description:
   5:Source\bsw\LCD_Driver/ugui_st7735.c **** *  This is a driver for the uGui graphical library developed by 
   6:Source\bsw\LCD_Driver/ugui_st7735.c **** *  Achim Döbler.
   7:Source\bsw\LCD_Driver/ugui_st7735.c **** *  It is for ST7735 graphic controller found in a lot of low cost graphics 
   8:Source\bsw\LCD_Driver/ugui_st7735.c **** *  chinese displays an to be used with PSoC microcontrollers from Cypress.
   9:Source\bsw\LCD_Driver/ugui_st7735.c **** *  At the time of writting this, developing and testing with PSoC 4 micros.
  10:Source\bsw\LCD_Driver/ugui_st7735.c **** *  Will test it with other PSoC micros as soon as i can.
  11:Source\bsw\LCD_Driver/ugui_st7735.c **** *
  12:Source\bsw\LCD_Driver/ugui_st7735.c **** * Note:
  13:Source\bsw\LCD_Driver/ugui_st7735.c **** *  For more information about uGui...
  14:Source\bsw\LCD_Driver/ugui_st7735.c **** *  Website: http://www.embeddedlightning.com/ugui/
  15:Source\bsw\LCD_Driver/ugui_st7735.c **** *  Git: https://github.com/achimdoebler/UGUI
  16:Source\bsw\LCD_Driver/ugui_st7735.c **** *  Forum: http://www.embeddedlightning.com/forum/
  17:Source\bsw\LCD_Driver/ugui_st7735.c **** *  PDF Reference manual (excellent): http://www.embeddedlightning.com/download/reference-guide/?wpd
  18:Source\bsw\LCD_Driver/ugui_st7735.c **** *
  19:Source\bsw\LCD_Driver/ugui_st7735.c **** *  Thanks to Achim Döbler for such a god job.
  20:Source\bsw\LCD_Driver/ugui_st7735.c **** *
  21:Source\bsw\LCD_Driver/ugui_st7735.c **** * Log version:
  22:Source\bsw\LCD_Driver/ugui_st7735.c **** *  1.0 - April, 2016.       First version.
  23:Source\bsw\LCD_Driver/ugui_st7735.c **** *
  24:Source\bsw\LCD_Driver/ugui_st7735.c **** ********************************************************************************
  25:Source\bsw\LCD_Driver/ugui_st7735.c **** * Copyright (c) 2015 Jesús Rodríguez Cacabelos
  26:Source\bsw\LCD_Driver/ugui_st7735.c **** * This driver follows the same license than the uGui library.
  27:Source\bsw\LCD_Driver/ugui_st7735.c **** * http:
  28:Source\bsw\LCD_Driver/ugui_st7735.c **** *******************************************************************************/
  29:Source\bsw\LCD_Driver/ugui_st7735.c **** 
  30:Source\bsw\LCD_Driver/ugui_st7735.c **** //#include "ugui_config.h"
ARM GAS  C:\Users\Reza\AppData\Local\Temp\ccXaA36W.s 			page 2


  31:Source\bsw\LCD_Driver/ugui_st7735.c **** #include <project.h>
  32:Source\bsw\LCD_Driver/ugui_st7735.c **** #include "ugui.h"
  33:Source\bsw\LCD_Driver/ugui_st7735.c **** #include "ugui_st7735.h"
  34:Source\bsw\LCD_Driver/ugui_st7735.c **** 
  35:Source\bsw\LCD_Driver/ugui_st7735.c **** /* *** Function prototypes. *** */
  36:Source\bsw\LCD_Driver/ugui_st7735.c **** void Display_Reset();
  37:Source\bsw\LCD_Driver/ugui_st7735.c **** void Display_WriteCommand(uint8 command);
  38:Source\bsw\LCD_Driver/ugui_st7735.c **** void Display_WriteData(uint8 data[], uint8 length);
  39:Source\bsw\LCD_Driver/ugui_st7735.c **** 
  40:Source\bsw\LCD_Driver/ugui_st7735.c **** void Display_Init()
  41:Source\bsw\LCD_Driver/ugui_st7735.c **** {
  42:Source\bsw\LCD_Driver/ugui_st7735.c ****     uint8 loop;
  43:Source\bsw\LCD_Driver/ugui_st7735.c ****     
  44:Source\bsw\LCD_Driver/ugui_st7735.c ****     // { command, datalength, ... data ..., delay }
  45:Source\bsw\LCD_Driver/ugui_st7735.c ****     uint8 configdata[19][20] = {
  46:Source\bsw\LCD_Driver/ugui_st7735.c ****         {0x11, 0, 120},
  47:Source\bsw\LCD_Driver/ugui_st7735.c ****         {0xB1, 3, 0x01, 0x2C, 0x2D, 0},
  48:Source\bsw\LCD_Driver/ugui_st7735.c ****         {0xB2, 3, 0x01, 0x2C, 0x2D, 0},
  49:Source\bsw\LCD_Driver/ugui_st7735.c ****         {0xB3, 6, 0x01, 0x2C, 0x2D, 0x01, 0x2C, 0x2D, 0},
  50:Source\bsw\LCD_Driver/ugui_st7735.c ****         {0xB4, 1, 0x07, 0},
  51:Source\bsw\LCD_Driver/ugui_st7735.c ****         {0xB6, 2, 0xB4, 0xF0, 0},
  52:Source\bsw\LCD_Driver/ugui_st7735.c ****         {0xC0, 3, 0xA2, 0x02,  0x04, 0},
  53:Source\bsw\LCD_Driver/ugui_st7735.c ****         {0xC1, 1, 0xC5, 0},
  54:Source\bsw\LCD_Driver/ugui_st7735.c ****         {0xC2, 2, 0x0A, 0x00, 0},
  55:Source\bsw\LCD_Driver/ugui_st7735.c ****         {0xC3, 2, 0x8A, 0x2A},
  56:Source\bsw\LCD_Driver/ugui_st7735.c ****         {0xC4, 2, 0x8A, 0xEE}, 
  57:Source\bsw\LCD_Driver/ugui_st7735.c ****         {0xC5, 1, 0x04, 0},
  58:Source\bsw\LCD_Driver/ugui_st7735.c ****         {0x36, 1, 0xC8, 0},
  59:Source\bsw\LCD_Driver/ugui_st7735.c ****         {0xE0, 17, 0x0f, 0x1A, 0x0f, 0x18, 0x2f, 0x28, 0x20, 0x22, 0x1f,
  60:Source\bsw\LCD_Driver/ugui_st7735.c ****                    0x1b, 0x23, 0x37, 0x00, 0x07, 0x02, 0x10, 0},
  61:Source\bsw\LCD_Driver/ugui_st7735.c ****         {0xE1, 16, 0x0f, 0x1b, 0x0f, 0x17, 0x33, 0x2c, 0x29, 0x2e, 0x30,
  62:Source\bsw\LCD_Driver/ugui_st7735.c ****                    0x30, 0x39, 0x3f, 0x00, 0x07, 0x03, 0x10, 0},
  63:Source\bsw\LCD_Driver/ugui_st7735.c ****         {0x2A, 4, 0x00, 0x02, 0x00, 0x81, 0},
  64:Source\bsw\LCD_Driver/ugui_st7735.c ****         {0x2B, 4, 0x00, 0x01, 0x00, 0xa0, 0},
  65:Source\bsw\LCD_Driver/ugui_st7735.c **** #if defined USE_COLOR_RGB565        
  66:Source\bsw\LCD_Driver/ugui_st7735.c ****         {0x3A, 1, 0x05, 0},
  67:Source\bsw\LCD_Driver/ugui_st7735.c **** #endif
  68:Source\bsw\LCD_Driver/ugui_st7735.c **** #if defined USE_COLOR_RGB888        
  69:Source\bsw\LCD_Driver/ugui_st7735.c ****         {0x3A, 1, 0x06, 0},
  70:Source\bsw\LCD_Driver/ugui_st7735.c **** #endif
  71:Source\bsw\LCD_Driver/ugui_st7735.c ****         {0x29, 0, 0}};
  72:Source\bsw\LCD_Driver/ugui_st7735.c ****     
  73:Source\bsw\LCD_Driver/ugui_st7735.c ****     /* *** Initialize hardware. **** */
  74:Source\bsw\LCD_Driver/ugui_st7735.c ****     RST_Write(1);                    // DISP_RESET is active low. So initialize it to high level.
  75:Source\bsw\LCD_Driver/ugui_st7735.c ****     RS_Write(1);                       // DISP_CD. Ready for data mode, the most
  76:Source\bsw\LCD_Driver/ugui_st7735.c ****                                             //          common mode.
  77:Source\bsw\LCD_Driver/ugui_st7735.c ****     
  78:Source\bsw\LCD_Driver/ugui_st7735.c ****     SPIM_Start();                            // Initialize SPI bus.
  79:Source\bsw\LCD_Driver/ugui_st7735.c ****         
  80:Source\bsw\LCD_Driver/ugui_st7735.c ****     /* *** Initialize display. *** */
  81:Source\bsw\LCD_Driver/ugui_st7735.c ****     Display_Reset();
  82:Source\bsw\LCD_Driver/ugui_st7735.c ****     
  83:Source\bsw\LCD_Driver/ugui_st7735.c ****     for (loop = 0; loop < 19; loop++)
  84:Source\bsw\LCD_Driver/ugui_st7735.c ****     {
  85:Source\bsw\LCD_Driver/ugui_st7735.c ****         Display_WriteCommand(configdata[loop][0]);
  86:Source\bsw\LCD_Driver/ugui_st7735.c ****         Display_WriteData(&configdata[loop][2], configdata[loop][1]);
  87:Source\bsw\LCD_Driver/ugui_st7735.c ****         
ARM GAS  C:\Users\Reza\AppData\Local\Temp\ccXaA36W.s 			page 3


  88:Source\bsw\LCD_Driver/ugui_st7735.c ****         if (configdata[loop][configdata[loop][1] + 2] != 0)
  89:Source\bsw\LCD_Driver/ugui_st7735.c ****             CyDelay(configdata[loop][configdata[loop][1] + 2]);
  90:Source\bsw\LCD_Driver/ugui_st7735.c ****     }
  91:Source\bsw\LCD_Driver/ugui_st7735.c ****    
  92:Source\bsw\LCD_Driver/ugui_st7735.c ****     // Initialize global structure and set PSET to this.PSET. 
  93:Source\bsw\LCD_Driver/ugui_st7735.c ****     UG_Init(&gui7735, Display_PSet, DISPLAY_WIDTH, DISPLAY_HEIGHT); 
  94:Source\bsw\LCD_Driver/ugui_st7735.c ****     
  95:Source\bsw\LCD_Driver/ugui_st7735.c ****     // Register acceleratos.
  96:Source\bsw\LCD_Driver/ugui_st7735.c ****     UG_DriverRegister(DRIVER_FILL_FRAME, (void*)HW_FillFrame);
  97:Source\bsw\LCD_Driver/ugui_st7735.c ****     UG_DriverRegister(DRIVER_DRAW_LINE, (void*)HW_DrawLine);
  98:Source\bsw\LCD_Driver/ugui_st7735.c **** }
  99:Source\bsw\LCD_Driver/ugui_st7735.c **** 
 100:Source\bsw\LCD_Driver/ugui_st7735.c **** void Display_Reset()
 101:Source\bsw\LCD_Driver/ugui_st7735.c **** {
  28              		.loc 1 101 0
  29              		.cfi_startproc
  30              		@ args = 0, pretend = 0, frame = 0
  31              		@ frame_needed = 0, uses_anonymous_args = 0
  32 0000 08B5     		push	{r3, lr}
  33              		.cfi_def_cfa_offset 8
  34              		.cfi_offset 3, -8
  35              		.cfi_offset 14, -4
 102:Source\bsw\LCD_Driver/ugui_st7735.c ****     RST_Write(0); CyDelay(50);
  36              		.loc 1 102 0
  37 0002 0020     		movs	r0, #0
  38 0004 FFF7FEFF 		bl	RST_Write
  39              	.LVL0:
  40 0008 3220     		movs	r0, #50
  41 000a FFF7FEFF 		bl	CyDelay
  42              	.LVL1:
 103:Source\bsw\LCD_Driver/ugui_st7735.c ****     RST_Write(1); CyDelay(120);
  43              		.loc 1 103 0
  44 000e 0120     		movs	r0, #1
  45 0010 FFF7FEFF 		bl	RST_Write
  46              	.LVL2:
  47 0014 7820     		movs	r0, #120
  48 0016 FFF7FEFF 		bl	CyDelay
  49              	.LVL3:
  50 001a 08BD     		pop	{r3, pc}
  51              		.cfi_endproc
  52              	.LFE64:
  53              		.size	Display_Reset, .-Display_Reset
  54              		.section	.text.Display_WriteCommand,"ax",%progbits
  55              		.align	2
  56              		.global	Display_WriteCommand
  57              		.thumb
  58              		.thumb_func
  59              		.type	Display_WriteCommand, %function
  60              	Display_WriteCommand:
  61              	.LFB65:
 104:Source\bsw\LCD_Driver/ugui_st7735.c **** }
 105:Source\bsw\LCD_Driver/ugui_st7735.c **** 
 106:Source\bsw\LCD_Driver/ugui_st7735.c **** void Display_WriteCommand(uint8 command)
 107:Source\bsw\LCD_Driver/ugui_st7735.c **** {
  62              		.loc 1 107 0
  63              		.cfi_startproc
  64              		@ args = 0, pretend = 0, frame = 0
ARM GAS  C:\Users\Reza\AppData\Local\Temp\ccXaA36W.s 			page 4


  65              		@ frame_needed = 0, uses_anonymous_args = 0
  66              	.LVL4:
  67 0000 10B5     		push	{r4, lr}
  68              		.cfi_def_cfa_offset 8
  69              		.cfi_offset 4, -8
  70              		.cfi_offset 14, -4
  71 0002 0446     		mov	r4, r0
 108:Source\bsw\LCD_Driver/ugui_st7735.c ****     /* *** Clear CD line for command mode. *** */
 109:Source\bsw\LCD_Driver/ugui_st7735.c ****     RS_Write(0);
  72              		.loc 1 109 0
  73 0004 0020     		movs	r0, #0
  74              	.LVL5:
  75 0006 FFF7FEFF 		bl	RS_Write
  76              	.LVL6:
 110:Source\bsw\LCD_Driver/ugui_st7735.c **** 
 111:Source\bsw\LCD_Driver/ugui_st7735.c ****     SPIM_WriteTxData(command);
  77              		.loc 1 111 0
  78 000a 2046     		mov	r0, r4
  79 000c FFF7FEFF 		bl	SPIM_WriteTxData
  80              	.LVL7:
  81 0010 10BD     		pop	{r4, pc}
  82              		.cfi_endproc
  83              	.LFE65:
  84              		.size	Display_WriteCommand, .-Display_WriteCommand
  85 0012 00BF     		.section	.text.Display_WriteData,"ax",%progbits
  86              		.align	2
  87              		.global	Display_WriteData
  88              		.thumb
  89              		.thumb_func
  90              		.type	Display_WriteData, %function
  91              	Display_WriteData:
  92              	.LFB66:
 112:Source\bsw\LCD_Driver/ugui_st7735.c ****     
 113:Source\bsw\LCD_Driver/ugui_st7735.c ****     // White until all data in TX buffer has been sent.
 114:Source\bsw\LCD_Driver/ugui_st7735.c ****     // Microcontroller is faster than SPI data rate. We have to 
 115:Source\bsw\LCD_Driver/ugui_st7735.c ****     // wait to avoid changing state of CD line before all data has
 116:Source\bsw\LCD_Driver/ugui_st7735.c ****     // been sent.
 117:Source\bsw\LCD_Driver/ugui_st7735.c ****    // while (mmSPI_SpiUartGetTxBufferSize() > 0) {};
 118:Source\bsw\LCD_Driver/ugui_st7735.c ****     
 119:Source\bsw\LCD_Driver/ugui_st7735.c ****     /* *** Let CD line ready for data mode. *** */
 120:Source\bsw\LCD_Driver/ugui_st7735.c ****     //mmDisplayCD_Write(1);
 121:Source\bsw\LCD_Driver/ugui_st7735.c **** }
 122:Source\bsw\LCD_Driver/ugui_st7735.c **** 
 123:Source\bsw\LCD_Driver/ugui_st7735.c **** void Display_WriteData(uint8 data[], uint8 length)
 124:Source\bsw\LCD_Driver/ugui_st7735.c **** {
  93              		.loc 1 124 0
  94              		.cfi_startproc
  95              		@ args = 0, pretend = 0, frame = 0
  96              		@ frame_needed = 0, uses_anonymous_args = 0
  97              	.LVL8:
  98 0000 38B5     		push	{r3, r4, r5, lr}
  99              		.cfi_def_cfa_offset 16
 100              		.cfi_offset 3, -16
 101              		.cfi_offset 4, -12
 102              		.cfi_offset 5, -8
 103              		.cfi_offset 14, -4
 104 0002 0446     		mov	r4, r0
ARM GAS  C:\Users\Reza\AppData\Local\Temp\ccXaA36W.s 			page 5


 105 0004 0D46     		mov	r5, r1
 125:Source\bsw\LCD_Driver/ugui_st7735.c ****     /* *** CD line is managed in Display_WriteCommand function.
 126:Source\bsw\LCD_Driver/ugui_st7735.c ****            This way we make this funtion faster. *** */
 127:Source\bsw\LCD_Driver/ugui_st7735.c ****     //mmDisplayCD_Write(1);
 128:Source\bsw\LCD_Driver/ugui_st7735.c ****     RS_Write(1);
 106              		.loc 1 128 0
 107 0006 0120     		movs	r0, #1
 108              	.LVL9:
 109 0008 FFF7FEFF 		bl	RS_Write
 110              	.LVL10:
 129:Source\bsw\LCD_Driver/ugui_st7735.c **** 
 130:Source\bsw\LCD_Driver/ugui_st7735.c ****     // If there is some pending data in TX buffer, wait.
 131:Source\bsw\LCD_Driver/ugui_st7735.c ****     //while (mmSPI_SpiUartGetTxBufferSize() > 0) {};
 132:Source\bsw\LCD_Driver/ugui_st7735.c **** 
 133:Source\bsw\LCD_Driver/ugui_st7735.c ****     SPIM_PutArray(data, length);
 111              		.loc 1 133 0
 112 000c 2946     		mov	r1, r5
 113 000e 2046     		mov	r0, r4
 114 0010 FFF7FEFF 		bl	SPIM_PutArray
 115              	.LVL11:
 116 0014 38BD     		pop	{r3, r4, r5, pc}
 117              		.cfi_endproc
 118              	.LFE66:
 119              		.size	Display_WriteData, .-Display_WriteData
 120 0016 00BF     		.section	.text.Display_Init,"ax",%progbits
 121              		.align	2
 122              		.global	Display_Init
 123              		.thumb
 124              		.thumb_func
 125              		.type	Display_Init, %function
 126              	Display_Init:
 127              	.LFB63:
  41:Source\bsw\LCD_Driver/ugui_st7735.c ****     uint8 loop;
 128              		.loc 1 41 0
 129              		.cfi_startproc
 130              		@ args = 0, pretend = 0, frame = 384
 131              		@ frame_needed = 0, uses_anonymous_args = 0
 132 0000 2DE9F041 		push	{r4, r5, r6, r7, r8, lr}
 133              		.cfi_def_cfa_offset 24
 134              		.cfi_offset 4, -24
 135              		.cfi_offset 5, -20
 136              		.cfi_offset 6, -16
 137              		.cfi_offset 7, -12
 138              		.cfi_offset 8, -8
 139              		.cfi_offset 14, -4
 140 0004 E0B0     		sub	sp, sp, #384
 141              		.cfi_def_cfa_offset 408
  45:Source\bsw\LCD_Driver/ugui_st7735.c ****         {0x11, 0, 120},
 142              		.loc 1 45 0
 143 0006 4FF4BE72 		mov	r2, #380
 144 000a 0021     		movs	r1, #0
 145 000c 01A8     		add	r0, sp, #4
 146 000e FFF7FEFF 		bl	memset
 147              	.LVL12:
 148 0012 1125     		movs	r5, #17
 149 0014 8DF80450 		strb	r5, [sp, #4]
 150 0018 7823     		movs	r3, #120
ARM GAS  C:\Users\Reza\AppData\Local\Temp\ccXaA36W.s 			page 6


 151 001a 8DF80630 		strb	r3, [sp, #6]
 152 001e B123     		movs	r3, #177
 153 0020 8DF81830 		strb	r3, [sp, #24]
 154 0024 0320     		movs	r0, #3
 155 0026 8DF81900 		strb	r0, [sp, #25]
 156 002a 0124     		movs	r4, #1
 157 002c 8DF81A40 		strb	r4, [sp, #26]
 158 0030 2C22     		movs	r2, #44
 159 0032 8DF81B20 		strb	r2, [sp, #27]
 160 0036 2D23     		movs	r3, #45
 161 0038 8DF81C30 		strb	r3, [sp, #28]
 162 003c B221     		movs	r1, #178
 163 003e 8DF82C10 		strb	r1, [sp, #44]
 164 0042 8DF82D00 		strb	r0, [sp, #45]
 165 0046 8DF82E40 		strb	r4, [sp, #46]
 166 004a 8DF82F20 		strb	r2, [sp, #47]
 167 004e 8DF83030 		strb	r3, [sp, #48]
 168 0052 B321     		movs	r1, #179
 169 0054 8DF84010 		strb	r1, [sp, #64]
 170 0058 0621     		movs	r1, #6
 171 005a 8DF84110 		strb	r1, [sp, #65]
 172 005e 8DF84240 		strb	r4, [sp, #66]
 173 0062 8DF84320 		strb	r2, [sp, #67]
 174 0066 8DF84430 		strb	r3, [sp, #68]
 175 006a 8DF84540 		strb	r4, [sp, #69]
 176 006e 8DF84620 		strb	r2, [sp, #70]
 177 0072 8DF84730 		strb	r3, [sp, #71]
 178 0076 B421     		movs	r1, #180
 179 0078 8DF85410 		strb	r1, [sp, #84]
 180 007c 8DF85540 		strb	r4, [sp, #85]
 181 0080 0727     		movs	r7, #7
 182 0082 8DF85670 		strb	r7, [sp, #86]
 183 0086 B623     		movs	r3, #182
 184 0088 8DF86830 		strb	r3, [sp, #104]
 185 008c 0223     		movs	r3, #2
 186 008e 8DF86930 		strb	r3, [sp, #105]
 187 0092 8DF86A10 		strb	r1, [sp, #106]
 188 0096 F021     		movs	r1, #240
 189 0098 8DF86B10 		strb	r1, [sp, #107]
 190 009c C021     		movs	r1, #192
 191 009e 8DF87C10 		strb	r1, [sp, #124]
 192 00a2 8DF87D00 		strb	r0, [sp, #125]
 193 00a6 A221     		movs	r1, #162
 194 00a8 8DF87E10 		strb	r1, [sp, #126]
 195 00ac 8DF87F30 		strb	r3, [sp, #127]
 196 00b0 0421     		movs	r1, #4
 197 00b2 8DF88010 		strb	r1, [sp, #128]
 198 00b6 C126     		movs	r6, #193
 199 00b8 8DF89060 		strb	r6, [sp, #144]
 200 00bc 8DF89140 		strb	r4, [sp, #145]
 201 00c0 C526     		movs	r6, #197
 202 00c2 8DF89260 		strb	r6, [sp, #146]
 203 00c6 4FF0C20E 		mov	lr, #194
 204 00ca 8DF8A4E0 		strb	lr, [sp, #164]
 205 00ce 8DF8A530 		strb	r3, [sp, #165]
 206 00d2 4FF00A0E 		mov	lr, #10
 207 00d6 8DF8A6E0 		strb	lr, [sp, #166]
ARM GAS  C:\Users\Reza\AppData\Local\Temp\ccXaA36W.s 			page 7


 208 00da 4FF0C30E 		mov	lr, #195
 209 00de 8DF8B8E0 		strb	lr, [sp, #184]
 210 00e2 8DF8B930 		strb	r3, [sp, #185]
 211 00e6 4FF08A0C 		mov	ip, #138
 212 00ea 8DF8BAC0 		strb	ip, [sp, #186]
 213 00ee 4FF02A0E 		mov	lr, #42
 214 00f2 8DF8BBE0 		strb	lr, [sp, #187]
 215 00f6 4FF0C408 		mov	r8, #196
 216 00fa 8DF8CC80 		strb	r8, [sp, #204]
 217 00fe 8DF8CD30 		strb	r3, [sp, #205]
 218 0102 8DF8CEC0 		strb	ip, [sp, #206]
 219 0106 4FF0EE0C 		mov	ip, #238
 220 010a 8DF8CFC0 		strb	ip, [sp, #207]
 221 010e 8DF8E060 		strb	r6, [sp, #224]
 222 0112 8DF8E140 		strb	r4, [sp, #225]
 223 0116 8DF8E210 		strb	r1, [sp, #226]
 224 011a 3626     		movs	r6, #54
 225 011c 8DF8F460 		strb	r6, [sp, #244]
 226 0120 8DF8F540 		strb	r4, [sp, #245]
 227 0124 C826     		movs	r6, #200
 228 0126 8DF8F660 		strb	r6, [sp, #246]
 229 012a E026     		movs	r6, #224
 230 012c 8DF80861 		strb	r6, [sp, #264]
 231 0130 8DF80951 		strb	r5, [sp, #265]
 232 0134 0F25     		movs	r5, #15
 233 0136 8DF80A51 		strb	r5, [sp, #266]
 234 013a 1A26     		movs	r6, #26
 235 013c 8DF80B61 		strb	r6, [sp, #267]
 236 0140 8DF80C51 		strb	r5, [sp, #268]
 237 0144 1826     		movs	r6, #24
 238 0146 8DF80D61 		strb	r6, [sp, #269]
 239 014a 2F26     		movs	r6, #47
 240 014c 8DF80E61 		strb	r6, [sp, #270]
 241 0150 2826     		movs	r6, #40
 242 0152 8DF80F61 		strb	r6, [sp, #271]
 243 0156 2026     		movs	r6, #32
 244 0158 8DF81061 		strb	r6, [sp, #272]
 245 015c 2226     		movs	r6, #34
 246 015e 8DF81161 		strb	r6, [sp, #273]
 247 0162 1F26     		movs	r6, #31
 248 0164 8DF81261 		strb	r6, [sp, #274]
 249 0168 4FF01B0C 		mov	ip, #27
 250 016c 8DF813C1 		strb	ip, [sp, #275]
 251 0170 2326     		movs	r6, #35
 252 0172 8DF81461 		strb	r6, [sp, #276]
 253 0176 3726     		movs	r6, #55
 254 0178 8DF81561 		strb	r6, [sp, #277]
 255 017c 8DF81771 		strb	r7, [sp, #279]
 256 0180 8DF81831 		strb	r3, [sp, #280]
 257 0184 1026     		movs	r6, #16
 258 0186 8DF81961 		strb	r6, [sp, #281]
 259 018a 4FF0E108 		mov	r8, #225
 260 018e 8DF81C81 		strb	r8, [sp, #284]
 261 0192 8DF81D61 		strb	r6, [sp, #285]
 262 0196 8DF81E51 		strb	r5, [sp, #286]
 263 019a 8DF81FC1 		strb	ip, [sp, #287]
 264 019e 8DF82051 		strb	r5, [sp, #288]
ARM GAS  C:\Users\Reza\AppData\Local\Temp\ccXaA36W.s 			page 8


 265 01a2 1725     		movs	r5, #23
 266 01a4 8DF82151 		strb	r5, [sp, #289]
 267 01a8 3325     		movs	r5, #51
 268 01aa 8DF82251 		strb	r5, [sp, #290]
 269 01ae 8DF82321 		strb	r2, [sp, #291]
 270 01b2 2922     		movs	r2, #41
 271 01b4 8DF82421 		strb	r2, [sp, #292]
 272 01b8 2E25     		movs	r5, #46
 273 01ba 8DF82551 		strb	r5, [sp, #293]
 274 01be 3025     		movs	r5, #48
 275 01c0 8DF82651 		strb	r5, [sp, #294]
 276 01c4 8DF82751 		strb	r5, [sp, #295]
 277 01c8 3925     		movs	r5, #57
 278 01ca 8DF82851 		strb	r5, [sp, #296]
 279 01ce 3F25     		movs	r5, #63
 280 01d0 8DF82951 		strb	r5, [sp, #297]
 281 01d4 8DF82B71 		strb	r7, [sp, #299]
 282 01d8 8DF82C01 		strb	r0, [sp, #300]
 283 01dc 8DF82D61 		strb	r6, [sp, #301]
 284 01e0 8DF830E1 		strb	lr, [sp, #304]
 285 01e4 8DF83111 		strb	r1, [sp, #305]
 286 01e8 8DF83331 		strb	r3, [sp, #307]
 287 01ec 8123     		movs	r3, #129
 288 01ee 8DF83531 		strb	r3, [sp, #309]
 289 01f2 2B23     		movs	r3, #43
 290 01f4 8DF84431 		strb	r3, [sp, #324]
 291 01f8 8DF84511 		strb	r1, [sp, #325]
 292 01fc 8DF84741 		strb	r4, [sp, #327]
 293 0200 A023     		movs	r3, #160
 294 0202 8DF84931 		strb	r3, [sp, #329]
 295 0206 3A23     		movs	r3, #58
 296 0208 8DF85831 		strb	r3, [sp, #344]
 297 020c 8DF85941 		strb	r4, [sp, #345]
 298 0210 0523     		movs	r3, #5
 299 0212 8DF85A31 		strb	r3, [sp, #346]
 300 0216 8DF86C21 		strb	r2, [sp, #364]
  74:Source\bsw\LCD_Driver/ugui_st7735.c ****     RS_Write(1);                       // DISP_CD. Ready for data mode, the most
 301              		.loc 1 74 0
 302 021a 2046     		mov	r0, r4
 303 021c FFF7FEFF 		bl	RST_Write
 304              	.LVL13:
  75:Source\bsw\LCD_Driver/ugui_st7735.c ****                                             //          common mode.
 305              		.loc 1 75 0
 306 0220 2046     		mov	r0, r4
 307 0222 FFF7FEFF 		bl	RS_Write
 308              	.LVL14:
  78:Source\bsw\LCD_Driver/ugui_st7735.c ****         
 309              		.loc 1 78 0
 310 0226 FFF7FEFF 		bl	SPIM_Start
 311              	.LVL15:
  81:Source\bsw\LCD_Driver/ugui_st7735.c ****     
 312              		.loc 1 81 0
 313 022a FFF7FEFF 		bl	Display_Reset
 314              	.LVL16:
  83:Source\bsw\LCD_Driver/ugui_st7735.c ****     {
 315              		.loc 1 83 0
 316 022e 0024     		movs	r4, #0
ARM GAS  C:\Users\Reza\AppData\Local\Temp\ccXaA36W.s 			page 9


 317 0230 16E0     		b	.L8
 318              	.LVL17:
 319              	.L10:
  85:Source\bsw\LCD_Driver/ugui_st7735.c ****         Display_WriteData(&configdata[loop][2], configdata[loop][1]);
 320              		.loc 1 85 0
 321 0232 01AE     		add	r6, sp, #4
 322 0234 A500     		lsls	r5, r4, #2
 323 0236 2A19     		adds	r2, r5, r4
 324 0238 9300     		lsls	r3, r2, #2
 325 023a F718     		adds	r7, r6, r3
 326 023c F05C     		ldrb	r0, [r6, r3]	@ zero_extendqisi2
 327 023e FFF7FEFF 		bl	Display_WriteCommand
 328              	.LVL18:
  86:Source\bsw\LCD_Driver/ugui_st7735.c ****         
 329              		.loc 1 86 0
 330 0242 2B19     		adds	r3, r5, r4
 331 0244 9800     		lsls	r0, r3, #2
 332 0246 0230     		adds	r0, r0, #2
 333 0248 7978     		ldrb	r1, [r7, #1]	@ zero_extendqisi2
 334 024a 3044     		add	r0, r0, r6
 335 024c FFF7FEFF 		bl	Display_WriteData
 336              	.LVL19:
  88:Source\bsw\LCD_Driver/ugui_st7735.c ****             CyDelay(configdata[loop][configdata[loop][1] + 2]);
 337              		.loc 1 88 0
 338 0250 7A78     		ldrb	r2, [r7, #1]	@ zero_extendqisi2
 339 0252 0232     		adds	r2, r2, #2
 340 0254 B85C     		ldrb	r0, [r7, r2]	@ zero_extendqisi2
 341 0256 08B1     		cbz	r0, .L9
  89:Source\bsw\LCD_Driver/ugui_st7735.c ****     }
 342              		.loc 1 89 0
 343 0258 FFF7FEFF 		bl	CyDelay
 344              	.LVL20:
 345              	.L9:
  83:Source\bsw\LCD_Driver/ugui_st7735.c ****     {
 346              		.loc 1 83 0 discriminator 2
 347 025c 0134     		adds	r4, r4, #1
 348              	.LVL21:
 349 025e E4B2     		uxtb	r4, r4
 350              	.LVL22:
 351              	.L8:
  83:Source\bsw\LCD_Driver/ugui_st7735.c ****     {
 352              		.loc 1 83 0 is_stmt 0 discriminator 1
 353 0260 122C     		cmp	r4, #18
 354 0262 E6D9     		bls	.L10
  93:Source\bsw\LCD_Driver/ugui_st7735.c ****     
 355              		.loc 1 93 0 is_stmt 1
 356 0264 A023     		movs	r3, #160
 357 0266 8022     		movs	r2, #128
 358 0268 0749     		ldr	r1, .L12
 359 026a 0848     		ldr	r0, .L12+4
 360 026c FFF7FEFF 		bl	UG_Init
 361              	.LVL23:
  96:Source\bsw\LCD_Driver/ugui_st7735.c ****     UG_DriverRegister(DRIVER_DRAW_LINE, (void*)HW_DrawLine);
 362              		.loc 1 96 0
 363 0270 0749     		ldr	r1, .L12+8
 364 0272 0120     		movs	r0, #1
 365 0274 FFF7FEFF 		bl	UG_DriverRegister
ARM GAS  C:\Users\Reza\AppData\Local\Temp\ccXaA36W.s 			page 10


 366              	.LVL24:
  97:Source\bsw\LCD_Driver/ugui_st7735.c **** }
 367              		.loc 1 97 0
 368 0278 0649     		ldr	r1, .L12+12
 369 027a 0020     		movs	r0, #0
 370 027c FFF7FEFF 		bl	UG_DriverRegister
 371              	.LVL25:
  98:Source\bsw\LCD_Driver/ugui_st7735.c **** 
 372              		.loc 1 98 0
 373 0280 60B0     		add	sp, sp, #384
 374              		.cfi_def_cfa_offset 24
 375              		@ sp needed
 376 0282 BDE8F081 		pop	{r4, r5, r6, r7, r8, pc}
 377              	.LVL26:
 378              	.L13:
 379 0286 00BF     		.align	2
 380              	.L12:
 381 0288 00000000 		.word	Display_PSet
 382 028c 00000000 		.word	gui7735
 383 0290 00000000 		.word	HW_FillFrame
 384 0294 00000000 		.word	HW_DrawLine
 385              		.cfi_endproc
 386              	.LFE63:
 387              		.size	Display_Init, .-Display_Init
 388              		.section	.text.Display_PSet,"ax",%progbits
 389              		.align	2
 390              		.global	Display_PSet
 391              		.thumb
 392              		.thumb_func
 393              		.type	Display_PSet, %function
 394              	Display_PSet:
 395              	.LFB67:
 134:Source\bsw\LCD_Driver/ugui_st7735.c **** }
 135:Source\bsw\LCD_Driver/ugui_st7735.c **** 
 136:Source\bsw\LCD_Driver/ugui_st7735.c **** 
 137:Source\bsw\LCD_Driver/ugui_st7735.c **** void Display_PSet(UG_S16 x, UG_S16 y, UG_COLOR c)
 138:Source\bsw\LCD_Driver/ugui_st7735.c **** {
 396              		.loc 1 138 0
 397              		.cfi_startproc
 398              		@ args = 0, pretend = 0, frame = 8
 399              		@ frame_needed = 0, uses_anonymous_args = 0
 400              	.LVL27:
 139:Source\bsw\LCD_Driver/ugui_st7735.c ****     UG_U16 color;
 140:Source\bsw\LCD_Driver/ugui_st7735.c ****     uint8 ddata[4];
 141:Source\bsw\LCD_Driver/ugui_st7735.c **** 
 142:Source\bsw\LCD_Driver/ugui_st7735.c ****     if((x < 0) ||(x >= DISPLAY_WIDTH) || (y < 0) || (y >= DISPLAY_HEIGHT)) return;
 401              		.loc 1 142 0
 402 0000 83B2     		uxth	r3, r0
 403 0002 7F2B     		cmp	r3, #127
 404 0004 43D8     		bhi	.L18
 405              		.loc 1 142 0 is_stmt 0 discriminator 1
 406 0006 0029     		cmp	r1, #0
 407 0008 41DB     		blt	.L18
 408              		.loc 1 142 0 discriminator 2
 409 000a 9F29     		cmp	r1, #159
 410 000c 3FDC     		bgt	.L18
 138:Source\bsw\LCD_Driver/ugui_st7735.c ****     UG_U16 color;
ARM GAS  C:\Users\Reza\AppData\Local\Temp\ccXaA36W.s 			page 11


 411              		.loc 1 138 0 is_stmt 1
 412 000e F0B5     		push	{r4, r5, r6, r7, lr}
 413              		.cfi_def_cfa_offset 20
 414              		.cfi_offset 4, -20
 415              		.cfi_offset 5, -16
 416              		.cfi_offset 6, -12
 417              		.cfi_offset 7, -8
 418              		.cfi_offset 14, -4
 419 0010 83B0     		sub	sp, sp, #12
 420              		.cfi_def_cfa_offset 32
 421 0012 1646     		mov	r6, r2
 422 0014 0D46     		mov	r5, r1
 423 0016 0446     		mov	r4, r0
 143:Source\bsw\LCD_Driver/ugui_st7735.c **** 
 144:Source\bsw\LCD_Driver/ugui_st7735.c ****     Display_WriteCommand(0x2A);
 424              		.loc 1 144 0
 425 0018 2A20     		movs	r0, #42
 426              	.LVL28:
 427 001a FFF7FEFF 		bl	Display_WriteCommand
 428              	.LVL29:
 145:Source\bsw\LCD_Driver/ugui_st7735.c ****     ddata[0] = 0x00; ddata[1] = x; ddata[2] = 0x00; ddata[3] = x + 1;
 429              		.loc 1 145 0
 430 001e 0027     		movs	r7, #0
 431 0020 8DF80470 		strb	r7, [sp, #4]
 432 0024 E0B2     		uxtb	r0, r4
 433 0026 8DF80500 		strb	r0, [sp, #5]
 434 002a 8DF80670 		strb	r7, [sp, #6]
 435 002e 0130     		adds	r0, r0, #1
 436 0030 8DF80700 		strb	r0, [sp, #7]
 146:Source\bsw\LCD_Driver/ugui_st7735.c ****     Display_WriteData(ddata, 4);
 437              		.loc 1 146 0
 438 0034 0421     		movs	r1, #4
 439 0036 0DEB0100 		add	r0, sp, r1
 440 003a FFF7FEFF 		bl	Display_WriteData
 441              	.LVL30:
 147:Source\bsw\LCD_Driver/ugui_st7735.c **** 
 148:Source\bsw\LCD_Driver/ugui_st7735.c ****     Display_WriteCommand(0x2B);
 442              		.loc 1 148 0
 443 003e 2B20     		movs	r0, #43
 444 0040 FFF7FEFF 		bl	Display_WriteCommand
 445              	.LVL31:
 149:Source\bsw\LCD_Driver/ugui_st7735.c ****     ddata[0] = 0x00; ddata[1] = y; ddata[2] = 0x00; ddata[3] = y + 1;
 446              		.loc 1 149 0
 447 0044 8DF80470 		strb	r7, [sp, #4]
 448 0048 E9B2     		uxtb	r1, r5
 449 004a 8DF80510 		strb	r1, [sp, #5]
 450 004e 8DF80670 		strb	r7, [sp, #6]
 451 0052 0131     		adds	r1, r1, #1
 452 0054 8DF80710 		strb	r1, [sp, #7]
 150:Source\bsw\LCD_Driver/ugui_st7735.c ****     Display_WriteData(ddata, 4);
 453              		.loc 1 150 0
 454 0058 0421     		movs	r1, #4
 455 005a 0DEB0100 		add	r0, sp, r1
 456 005e FFF7FEFF 		bl	Display_WriteData
 457              	.LVL32:
 151:Source\bsw\LCD_Driver/ugui_st7735.c **** 
 152:Source\bsw\LCD_Driver/ugui_st7735.c ****     Display_WriteCommand(0x2C);
ARM GAS  C:\Users\Reza\AppData\Local\Temp\ccXaA36W.s 			page 12


 458              		.loc 1 152 0
 459 0062 2C20     		movs	r0, #44
 460 0064 FFF7FEFF 		bl	Display_WriteCommand
 461              	.LVL33:
 153:Source\bsw\LCD_Driver/ugui_st7735.c **** 
 154:Source\bsw\LCD_Driver/ugui_st7735.c **** #if defined USE_COLOR_RGB565
 155:Source\bsw\LCD_Driver/ugui_st7735.c ****     
 156:Source\bsw\LCD_Driver/ugui_st7735.c ****     color = (c & 0xF800) >> 11;
 157:Source\bsw\LCD_Driver/ugui_st7735.c ****     color = color | (c & 0x07E0);
 462              		.loc 1 157 0
 463 0068 06F4FC62 		and	r2, r6, #2016
 464 006c 42EAD622 		orr	r2, r2, r6, lsr #11
 465              	.LVL34:
 158:Source\bsw\LCD_Driver/ugui_st7735.c ****     color = color | ((c & 0x001F) << 11);
 466              		.loc 1 158 0
 467 0070 42EAC626 		orr	r6, r2, r6, lsl #11
 468 0074 36B2     		sxth	r6, r6
 469              	.LVL35:
 159:Source\bsw\LCD_Driver/ugui_st7735.c ****     
 160:Source\bsw\LCD_Driver/ugui_st7735.c ****     ddata[0] = (color >> 8); ddata[1] = color;
 470              		.loc 1 160 0
 471 0076 C6F30723 		ubfx	r3, r6, #8, #8
 472 007a 8DF80430 		strb	r3, [sp, #4]
 473 007e 8DF80560 		strb	r6, [sp, #5]
 161:Source\bsw\LCD_Driver/ugui_st7735.c ****     Display_WriteData(ddata, 2);
 474              		.loc 1 161 0
 475 0082 0221     		movs	r1, #2
 476 0084 01A8     		add	r0, sp, #4
 477 0086 FFF7FEFF 		bl	Display_WriteData
 478              	.LVL36:
 162:Source\bsw\LCD_Driver/ugui_st7735.c ****     
 163:Source\bsw\LCD_Driver/ugui_st7735.c **** #endif    
 164:Source\bsw\LCD_Driver/ugui_st7735.c **** 
 165:Source\bsw\LCD_Driver/ugui_st7735.c **** #if defined USE_COLOR_RGB888
 166:Source\bsw\LCD_Driver/ugui_st7735.c ****     
 167:Source\bsw\LCD_Driver/ugui_st7735.c ****     ddata[0] = (uint8)(c);
 168:Source\bsw\LCD_Driver/ugui_st7735.c ****     ddata[1] = (uint8)(c >> 8);
 169:Source\bsw\LCD_Driver/ugui_st7735.c ****     ddata[2] = (uint8)(c >> 16);
 170:Source\bsw\LCD_Driver/ugui_st7735.c ****     
 171:Source\bsw\LCD_Driver/ugui_st7735.c ****     Display_WriteData(ddata, 3); 
 172:Source\bsw\LCD_Driver/ugui_st7735.c ****     
 173:Source\bsw\LCD_Driver/ugui_st7735.c **** #endif    
 174:Source\bsw\LCD_Driver/ugui_st7735.c **** 
 175:Source\bsw\LCD_Driver/ugui_st7735.c **** }
 479              		.loc 1 175 0
 480 008a 03B0     		add	sp, sp, #12
 481              		.cfi_def_cfa_offset 20
 482              		@ sp needed
 483 008c F0BD     		pop	{r4, r5, r6, r7, pc}
 484              	.LVL37:
 485              	.L18:
 486              		.cfi_def_cfa_offset 0
 487              		.cfi_restore 4
 488              		.cfi_restore 5
 489              		.cfi_restore 6
 490              		.cfi_restore 7
 491              		.cfi_restore 14
ARM GAS  C:\Users\Reza\AppData\Local\Temp\ccXaA36W.s 			page 13


 492 008e 7047     		bx	lr
 493              		.cfi_endproc
 494              	.LFE67:
 495              		.size	Display_PSet, .-Display_PSet
 496              		.section	.text.HW_FillFrame,"ax",%progbits
 497              		.align	2
 498              		.global	HW_FillFrame
 499              		.thumb
 500              		.thumb_func
 501              		.type	HW_FillFrame, %function
 502              	HW_FillFrame:
 503              	.LFB68:
 176:Source\bsw\LCD_Driver/ugui_st7735.c **** 
 177:Source\bsw\LCD_Driver/ugui_st7735.c **** UG_RESULT HW_FillFrame(UG_S16 x1, UG_S16 y1, UG_S16 x2, UG_S16 y2, UG_COLOR c)
 178:Source\bsw\LCD_Driver/ugui_st7735.c **** {
 504              		.loc 1 178 0
 505              		.cfi_startproc
 506              		@ args = 4, pretend = 0, frame = 8
 507              		@ frame_needed = 0, uses_anonymous_args = 0
 508              	.LVL38:
 509 0000 2DE9F047 		push	{r4, r5, r6, r7, r8, r9, r10, lr}
 510              		.cfi_def_cfa_offset 32
 511              		.cfi_offset 4, -32
 512              		.cfi_offset 5, -28
 513              		.cfi_offset 6, -24
 514              		.cfi_offset 7, -20
 515              		.cfi_offset 8, -16
 516              		.cfi_offset 9, -12
 517              		.cfi_offset 10, -8
 518              		.cfi_offset 14, -4
 519 0004 82B0     		sub	sp, sp, #8
 520              		.cfi_def_cfa_offset 40
 521 0006 BDF82860 		ldrh	r6, [sp, #40]
 179:Source\bsw\LCD_Driver/ugui_st7735.c ****     uint8 loopx, loopy;
 180:Source\bsw\LCD_Driver/ugui_st7735.c ****     UG_U16 color;
 181:Source\bsw\LCD_Driver/ugui_st7735.c ****     uint8 ddata[4];
 182:Source\bsw\LCD_Driver/ugui_st7735.c ****     
 183:Source\bsw\LCD_Driver/ugui_st7735.c ****     if((x1 < 0) ||(x1 >= DISPLAY_WIDTH) || (y1 < 0) || (y1 >= DISPLAY_HEIGHT)) return UG_RESULT_FAI
 522              		.loc 1 183 0
 523 000a 84B2     		uxth	r4, r0
 524 000c 7F2C     		cmp	r4, #127
 525 000e 59D8     		bhi	.L24
 526              		.loc 1 183 0 is_stmt 0 discriminator 2
 527 0010 0029     		cmp	r1, #0
 528 0012 5ADB     		blt	.L25
 529              		.loc 1 183 0 discriminator 4
 530 0014 9F29     		cmp	r1, #159
 531 0016 5BDC     		bgt	.L26
 184:Source\bsw\LCD_Driver/ugui_st7735.c ****     if((x2 < 0) ||(x2 >= DISPLAY_WIDTH) || (y2 < 0) || (y2 >= DISPLAY_HEIGHT)) return UG_RESULT_FAI
 532              		.loc 1 184 0 is_stmt 1
 533 0018 94B2     		uxth	r4, r2
 534 001a 7F2C     		cmp	r4, #127
 535 001c 5BD8     		bhi	.L27
 536              		.loc 1 184 0 is_stmt 0 discriminator 2
 537 001e 002B     		cmp	r3, #0
 538 0020 5CDB     		blt	.L28
 539              		.loc 1 184 0 discriminator 4
ARM GAS  C:\Users\Reza\AppData\Local\Temp\ccXaA36W.s 			page 14


 540 0022 9F2B     		cmp	r3, #159
 541 0024 5DDC     		bgt	.L29
 542 0026 1D46     		mov	r5, r3
 543 0028 9246     		mov	r10, r2
 544 002a 8946     		mov	r9, r1
 545 002c 8046     		mov	r8, r0
 185:Source\bsw\LCD_Driver/ugui_st7735.c **** 
 186:Source\bsw\LCD_Driver/ugui_st7735.c ****     Display_WriteCommand(0x2A);
 546              		.loc 1 186 0 is_stmt 1
 547 002e 2A20     		movs	r0, #42
 548              	.LVL39:
 549 0030 FFF7FEFF 		bl	Display_WriteCommand
 550              	.LVL40:
 187:Source\bsw\LCD_Driver/ugui_st7735.c ****     ddata[0] = 0x00; ddata[1] = x1; ddata[2] = 0x00; ddata[3] = x2;
 551              		.loc 1 187 0
 552 0034 0024     		movs	r4, #0
 553              	.LVL41:
 554 0036 8DF80440 		strb	r4, [sp, #4]
 555 003a 5FFA88F8 		uxtb	r8, r8
 556 003e 8DF80580 		strb	r8, [sp, #5]
 557 0042 8DF80640 		strb	r4, [sp, #6]
 558 0046 8DF807A0 		strb	r10, [sp, #7]
 188:Source\bsw\LCD_Driver/ugui_st7735.c ****     Display_WriteData(ddata, 4);
 559              		.loc 1 188 0
 560 004a 0421     		movs	r1, #4
 561 004c 0DEB0100 		add	r0, sp, r1
 562 0050 FFF7FEFF 		bl	Display_WriteData
 563              	.LVL42:
 189:Source\bsw\LCD_Driver/ugui_st7735.c **** 
 190:Source\bsw\LCD_Driver/ugui_st7735.c ****     Display_WriteCommand(0x2B);
 564              		.loc 1 190 0
 565 0054 2B20     		movs	r0, #43
 566 0056 FFF7FEFF 		bl	Display_WriteCommand
 567              	.LVL43:
 191:Source\bsw\LCD_Driver/ugui_st7735.c ****     ddata[0] = 0x00; ddata[1] = y1; ddata[2] = 0x00; ddata[3] = y2;
 568              		.loc 1 191 0
 569 005a 8DF80440 		strb	r4, [sp, #4]
 570 005e 5FFA89F9 		uxtb	r9, r9
 571 0062 8DF80590 		strb	r9, [sp, #5]
 572 0066 8DF80640 		strb	r4, [sp, #6]
 573 006a 8DF80750 		strb	r5, [sp, #7]
 192:Source\bsw\LCD_Driver/ugui_st7735.c ****     Display_WriteData(ddata, 4);
 574              		.loc 1 192 0
 575 006e 0421     		movs	r1, #4
 576 0070 0DEB0100 		add	r0, sp, r1
 577 0074 FFF7FEFF 		bl	Display_WriteData
 578              	.LVL44:
 193:Source\bsw\LCD_Driver/ugui_st7735.c **** 
 194:Source\bsw\LCD_Driver/ugui_st7735.c ****     Display_WriteCommand(0x2C);    
 579              		.loc 1 194 0
 580 0078 2C20     		movs	r0, #44
 581 007a FFF7FEFF 		bl	Display_WriteCommand
 582              	.LVL45:
 195:Source\bsw\LCD_Driver/ugui_st7735.c ****     
 196:Source\bsw\LCD_Driver/ugui_st7735.c **** #if defined USE_COLOR_RGB565
 197:Source\bsw\LCD_Driver/ugui_st7735.c ****     
 198:Source\bsw\LCD_Driver/ugui_st7735.c ****     color = (c & 0xF800) >> 11;
ARM GAS  C:\Users\Reza\AppData\Local\Temp\ccXaA36W.s 			page 15


 199:Source\bsw\LCD_Driver/ugui_st7735.c ****     color = color | (c & 0x07E0);
 583              		.loc 1 199 0
 584 007e 06F4FC63 		and	r3, r6, #2016
 585 0082 43EAD623 		orr	r3, r3, r6, lsr #11
 586              	.LVL46:
 200:Source\bsw\LCD_Driver/ugui_st7735.c ****     color = color | ((c & 0x001F) << 11);
 587              		.loc 1 200 0
 588 0086 43EAC626 		orr	r6, r3, r6, lsl #11
 589 008a 36B2     		sxth	r6, r6
 590 008c B7B2     		uxth	r7, r6
 591              	.LVL47:
 201:Source\bsw\LCD_Driver/ugui_st7735.c ****     
 202:Source\bsw\LCD_Driver/ugui_st7735.c ****     for (loopx = x1; loopx < (x2 + 1); loopx++)
 592              		.loc 1 202 0
 593 008e 13E0     		b	.L21
 594              	.LVL48:
 595              	.L22:
 203:Source\bsw\LCD_Driver/ugui_st7735.c ****     {
 204:Source\bsw\LCD_Driver/ugui_st7735.c ****         for (loopy = y1; loopy < (y2 + 1); loopy++)
 205:Source\bsw\LCD_Driver/ugui_st7735.c ****         {
 206:Source\bsw\LCD_Driver/ugui_st7735.c ****             ddata[0] = (color >> 8); ddata[1] = color;
 596              		.loc 1 206 0 discriminator 3
 597 0090 3B0A     		lsrs	r3, r7, #8
 598 0092 8DF80430 		strb	r3, [sp, #4]
 599 0096 8DF80560 		strb	r6, [sp, #5]
 207:Source\bsw\LCD_Driver/ugui_st7735.c ****             Display_WriteData(ddata, 2); 
 600              		.loc 1 207 0 discriminator 3
 601 009a 0221     		movs	r1, #2
 602 009c 01A8     		add	r0, sp, #4
 603 009e FFF7FEFF 		bl	Display_WriteData
 604              	.LVL49:
 204:Source\bsw\LCD_Driver/ugui_st7735.c ****         {
 605              		.loc 1 204 0 discriminator 3
 606 00a2 0134     		adds	r4, r4, #1
 607              	.LVL50:
 608 00a4 E4B2     		uxtb	r4, r4
 609              	.LVL51:
 610 00a6 00E0     		b	.L23
 611              	.LVL52:
 612              	.L30:
 613 00a8 4C46     		mov	r4, r9
 614              	.L23:
 615              	.LVL53:
 204:Source\bsw\LCD_Driver/ugui_st7735.c ****         {
 616              		.loc 1 204 0 is_stmt 0 discriminator 1
 617 00aa 691C     		adds	r1, r5, #1
 618 00ac 8C42     		cmp	r4, r1
 619 00ae EFDB     		blt	.L22
 202:Source\bsw\LCD_Driver/ugui_st7735.c ****     {
 620              		.loc 1 202 0 is_stmt 1 discriminator 2
 621 00b0 08F10108 		add	r8, r8, #1
 622              	.LVL54:
 623 00b4 5FFA88F8 		uxtb	r8, r8
 624              	.LVL55:
 625              	.L21:
 202:Source\bsw\LCD_Driver/ugui_st7735.c ****     {
 626              		.loc 1 202 0 is_stmt 0 discriminator 1
ARM GAS  C:\Users\Reza\AppData\Local\Temp\ccXaA36W.s 			page 16


 627 00b8 0AF10103 		add	r3, r10, #1
 628 00bc 9845     		cmp	r8, r3
 629 00be F3DB     		blt	.L30
 208:Source\bsw\LCD_Driver/ugui_st7735.c ****         }
 209:Source\bsw\LCD_Driver/ugui_st7735.c ****     }
 210:Source\bsw\LCD_Driver/ugui_st7735.c ****     
 211:Source\bsw\LCD_Driver/ugui_st7735.c **** #endif    
 212:Source\bsw\LCD_Driver/ugui_st7735.c **** 
 213:Source\bsw\LCD_Driver/ugui_st7735.c **** #if defined USE_COLOR_RGB888
 214:Source\bsw\LCD_Driver/ugui_st7735.c ****     
 215:Source\bsw\LCD_Driver/ugui_st7735.c ****     ddata[0] = (uint8)(c);
 216:Source\bsw\LCD_Driver/ugui_st7735.c ****     ddata[1] = (uint8)(c >> 8);
 217:Source\bsw\LCD_Driver/ugui_st7735.c ****     ddata[2] = (uint8)(c >> 16);
 218:Source\bsw\LCD_Driver/ugui_st7735.c ****     
 219:Source\bsw\LCD_Driver/ugui_st7735.c ****     for (loopx = x1; loopx < (x2 + 1); loopx++)
 220:Source\bsw\LCD_Driver/ugui_st7735.c ****     {
 221:Source\bsw\LCD_Driver/ugui_st7735.c ****         for (loopy = y1; loopy < (y2 + 1); loopy++)
 222:Source\bsw\LCD_Driver/ugui_st7735.c ****         {
 223:Source\bsw\LCD_Driver/ugui_st7735.c ****             Display_WriteData(ddata, 3); 
 224:Source\bsw\LCD_Driver/ugui_st7735.c ****         }
 225:Source\bsw\LCD_Driver/ugui_st7735.c ****     }
 226:Source\bsw\LCD_Driver/ugui_st7735.c ****     
 227:Source\bsw\LCD_Driver/ugui_st7735.c **** #endif    
 228:Source\bsw\LCD_Driver/ugui_st7735.c ****     
 229:Source\bsw\LCD_Driver/ugui_st7735.c ****     return UG_RESULT_OK;
 630              		.loc 1 229 0 is_stmt 1
 631 00c0 0020     		movs	r0, #0
 632 00c2 10E0     		b	.L20
 633              	.LVL56:
 634              	.L24:
 183:Source\bsw\LCD_Driver/ugui_st7735.c ****     if((x2 < 0) ||(x2 >= DISPLAY_WIDTH) || (y2 < 0) || (y2 >= DISPLAY_HEIGHT)) return UG_RESULT_FAI
 635              		.loc 1 183 0
 636 00c4 4FF0FF30 		mov	r0, #-1
 637              	.LVL57:
 638 00c8 0DE0     		b	.L20
 639              	.LVL58:
 640              	.L25:
 641 00ca 4FF0FF30 		mov	r0, #-1
 642              	.LVL59:
 643 00ce 0AE0     		b	.L20
 644              	.LVL60:
 645              	.L26:
 646 00d0 4FF0FF30 		mov	r0, #-1
 647              	.LVL61:
 648 00d4 07E0     		b	.L20
 649              	.LVL62:
 650              	.L27:
 184:Source\bsw\LCD_Driver/ugui_st7735.c **** 
 651              		.loc 1 184 0
 652 00d6 4FF0FF30 		mov	r0, #-1
 653              	.LVL63:
 654 00da 04E0     		b	.L20
 655              	.LVL64:
 656              	.L28:
 657 00dc 4FF0FF30 		mov	r0, #-1
 658              	.LVL65:
 659 00e0 01E0     		b	.L20
ARM GAS  C:\Users\Reza\AppData\Local\Temp\ccXaA36W.s 			page 17


 660              	.LVL66:
 661              	.L29:
 662 00e2 4FF0FF30 		mov	r0, #-1
 663              	.LVL67:
 664              	.L20:
 230:Source\bsw\LCD_Driver/ugui_st7735.c **** }
 665              		.loc 1 230 0
 666 00e6 02B0     		add	sp, sp, #8
 667              		.cfi_def_cfa_offset 32
 668              		@ sp needed
 669 00e8 BDE8F087 		pop	{r4, r5, r6, r7, r8, r9, r10, pc}
 670              		.cfi_endproc
 671              	.LFE68:
 672              		.size	HW_FillFrame, .-HW_FillFrame
 673              		.section	.text.HW_DrawLine,"ax",%progbits
 674              		.align	2
 675              		.global	HW_DrawLine
 676              		.thumb
 677              		.thumb_func
 678              		.type	HW_DrawLine, %function
 679              	HW_DrawLine:
 680              	.LFB69:
 231:Source\bsw\LCD_Driver/ugui_st7735.c **** 
 232:Source\bsw\LCD_Driver/ugui_st7735.c **** UG_RESULT HW_DrawLine( UG_S16 x1 , UG_S16 y1 , UG_S16 x2 , UG_S16 y2 , UG_COLOR c )
 233:Source\bsw\LCD_Driver/ugui_st7735.c **** {
 681              		.loc 1 233 0
 682              		.cfi_startproc
 683              		@ args = 4, pretend = 0, frame = 0
 684              		@ frame_needed = 0, uses_anonymous_args = 0
 685              	.LVL68:
 686 0000 10B5     		push	{r4, lr}
 687              		.cfi_def_cfa_offset 8
 688              		.cfi_offset 4, -8
 689              		.cfi_offset 14, -4
 690 0002 82B0     		sub	sp, sp, #8
 691              		.cfi_def_cfa_offset 16
 234:Source\bsw\LCD_Driver/ugui_st7735.c ****     if((x1 < 0) ||(x1 >= DISPLAY_WIDTH) || (y1 < 0) || (y1 >= DISPLAY_HEIGHT)) return UG_RESULT_FAI
 692              		.loc 1 234 0
 693 0004 84B2     		uxth	r4, r0
 694 0006 7F2C     		cmp	r4, #127
 695 0008 15D8     		bhi	.L35
 696              		.loc 1 234 0 is_stmt 0 discriminator 2
 697 000a 0029     		cmp	r1, #0
 698 000c 16DB     		blt	.L36
 699              		.loc 1 234 0 discriminator 4
 700 000e 9F29     		cmp	r1, #159
 701 0010 17DC     		bgt	.L37
 235:Source\bsw\LCD_Driver/ugui_st7735.c ****     if((x2 < 0) ||(x2 >= DISPLAY_WIDTH) || (y2 < 0) || (y2 >= DISPLAY_HEIGHT)) return UG_RESULT_FAI
 702              		.loc 1 235 0 is_stmt 1
 703 0012 94B2     		uxth	r4, r2
 704 0014 7F2C     		cmp	r4, #127
 705 0016 17D8     		bhi	.L38
 706              		.loc 1 235 0 is_stmt 0 discriminator 2
 707 0018 002B     		cmp	r3, #0
 708 001a 18DB     		blt	.L39
 709              		.loc 1 235 0 discriminator 4
 710 001c 9F2B     		cmp	r3, #159
ARM GAS  C:\Users\Reza\AppData\Local\Temp\ccXaA36W.s 			page 18


 711 001e 19DC     		bgt	.L40
 236:Source\bsw\LCD_Driver/ugui_st7735.c ****     
 237:Source\bsw\LCD_Driver/ugui_st7735.c ****     // If it is a vertical or a horizontal line, draw it.
 238:Source\bsw\LCD_Driver/ugui_st7735.c ****     // If not, then use original drawline routine.
 239:Source\bsw\LCD_Driver/ugui_st7735.c ****     if ((x1 == x2) || (y1 == y2)) 
 712              		.loc 1 239 0 is_stmt 1
 713 0020 9042     		cmp	r0, r2
 714 0022 01D0     		beq	.L34
 715              		.loc 1 239 0 is_stmt 0 discriminator 1
 716 0024 9942     		cmp	r1, r3
 717 0026 18D1     		bne	.L41
 718              	.L34:
 240:Source\bsw\LCD_Driver/ugui_st7735.c ****     {
 241:Source\bsw\LCD_Driver/ugui_st7735.c ****         HW_FillFrame(x1, y1, x2, y2, c);
 719              		.loc 1 241 0 is_stmt 1
 720 0028 BDF81040 		ldrh	r4, [sp, #16]
 721 002c 0094     		str	r4, [sp]
 722 002e FFF7FEFF 		bl	HW_FillFrame
 723              	.LVL69:
 242:Source\bsw\LCD_Driver/ugui_st7735.c ****         return UG_RESULT_OK;
 724              		.loc 1 242 0
 725 0032 0020     		movs	r0, #0
 726 0034 13E0     		b	.L33
 727              	.LVL70:
 728              	.L35:
 234:Source\bsw\LCD_Driver/ugui_st7735.c ****     if((x2 < 0) ||(x2 >= DISPLAY_WIDTH) || (y2 < 0) || (y2 >= DISPLAY_HEIGHT)) return UG_RESULT_FAI
 729              		.loc 1 234 0
 730 0036 4FF0FF30 		mov	r0, #-1
 731              	.LVL71:
 732 003a 10E0     		b	.L33
 733              	.LVL72:
 734              	.L36:
 735 003c 4FF0FF30 		mov	r0, #-1
 736              	.LVL73:
 737 0040 0DE0     		b	.L33
 738              	.LVL74:
 739              	.L37:
 740 0042 4FF0FF30 		mov	r0, #-1
 741              	.LVL75:
 742 0046 0AE0     		b	.L33
 743              	.LVL76:
 744              	.L38:
 235:Source\bsw\LCD_Driver/ugui_st7735.c ****     
 745              		.loc 1 235 0
 746 0048 4FF0FF30 		mov	r0, #-1
 747              	.LVL77:
 748 004c 07E0     		b	.L33
 749              	.LVL78:
 750              	.L39:
 751 004e 4FF0FF30 		mov	r0, #-1
 752              	.LVL79:
 753 0052 04E0     		b	.L33
 754              	.LVL80:
 755              	.L40:
 756 0054 4FF0FF30 		mov	r0, #-1
 757              	.LVL81:
 758 0058 01E0     		b	.L33
ARM GAS  C:\Users\Reza\AppData\Local\Temp\ccXaA36W.s 			page 19


 759              	.LVL82:
 760              	.L41:
 243:Source\bsw\LCD_Driver/ugui_st7735.c ****     }
 244:Source\bsw\LCD_Driver/ugui_st7735.c ****     
 245:Source\bsw\LCD_Driver/ugui_st7735.c ****     return UG_RESULT_FAIL;
 761              		.loc 1 245 0
 762 005a 4FF0FF30 		mov	r0, #-1
 763              	.LVL83:
 764              	.L33:
 246:Source\bsw\LCD_Driver/ugui_st7735.c **** }
 765              		.loc 1 246 0
 766 005e 02B0     		add	sp, sp, #8
 767              		.cfi_def_cfa_offset 8
 768              		@ sp needed
 769 0060 10BD     		pop	{r4, pc}
 770              		.cfi_endproc
 771              	.LFE69:
 772              		.size	HW_DrawLine, .-HW_DrawLine
 773              		.comm	gui7735,100,4
 774 0062 00BF     		.text
 775              	.Letext0:
 776              		.file 2 "c:\\program files (x86)\\cypress\\psoc creator\\4.2\\psoc creator\\import\\gnu\\arm\\5.4.
 777              		.file 3 "c:\\program files (x86)\\cypress\\psoc creator\\4.2\\psoc creator\\import\\gnu\\arm\\5.4.
 778              		.file 4 "Generated_Source\\PSoC5/cytypes.h"
 779              		.file 5 ".\\Source\\bsw\\LCD_Library/ugui_config.h"
 780              		.file 6 ".\\Source\\bsw\\LCD_Library/ugui.h"
 781              		.file 7 "Generated_Source\\PSoC5/core_cm3.h"
 782              		.file 8 "Source\\bsw\\LCD_Driver\\ugui_st7735.h"
 783              		.file 9 "Generated_Source\\PSoC5/CyLib.h"